; Listing generated by Microsoft (R) Optimizing Compiler Version 16.00.30319.01 

	TITLE	D:\windows\belial\crypt\Blowfish.c
	.686P
	.XMM
	include listing.inc
	.model	flat

INCLUDELIB MSVCRTD
INCLUDELIB OLDNAMES

_BSS	SEGMENT
_pbox	DD	012H DUP (?)
_sbox	DD	0400H DUP (?)
_BSS	ENDS
CONST	SEGMENT
_P	DD	0243f6a88H
	DD	085a308d3H
	DD	013198a2eH
	DD	03707344H
	DD	0a4093822H
	DD	0299f31d0H
	DD	082efa98H
	DD	0ec4e6c89H
	DD	0452821e6H
	DD	038d01377H
	DD	0be5466cfH
	DD	034e90c6cH
	DD	0c0ac29b7H
	DD	0c97c50ddH
	DD	03f84d5b5H
	DD	0b5470917H
	DD	09216d5d9H
	DD	08979fb1bH
_S	DD	0d1310ba6H
	DD	098dfb5acH
	DD	02ffd72dbH
	DD	0d01adfb7H
	DD	0b8e1afedH
	DD	06a267e96H
	DD	0ba7c9045H
	DD	0f12c7f99H
	DD	024a19947H
	DD	0b3916cf7H
	DD	0801f2e2H
	DD	0858efc16H
	DD	0636920d8H
	DD	071574e69H
	DD	0a458fea3H
	DD	0f4933d7eH
	DD	0d95748fH
	DD	0728eb658H
	DD	0718bcd58H
	DD	082154aeeH
	DD	07b54a41dH
	DD	0c25a59b5H
	DD	09c30d539H
	DD	02af26013H
	DD	0c5d1b023H
	DD	0286085f0H
	DD	0ca417918H
	DD	0b8db38efH
	DD	08e79dcb0H
	DD	0603a180eH
	DD	06c9e0e8bH
	DD	0b01e8a3eH
	DD	0d71577c1H
	DD	0bd314b27H
	DD	078af2fdaH
	DD	055605c60H
	DD	0e65525f3H
	DD	0aa55ab94H
	DD	057489862H
	DD	063e81440H
	DD	055ca396aH
	DD	02aab10b6H
	DD	0b4cc5c34H
	DD	01141e8ceH
	DD	0a15486afH
	DD	07c72e993H
	DD	0b3ee1411H
	DD	0636fbc2aH
	DD	02ba9c55dH
	DD	0741831f6H
	DD	0ce5c3e16H
	DD	09b87931eH
	DD	0afd6ba33H
	DD	06c24cf5cH
	DD	07a325381H
	DD	028958677H
	DD	03b8f4898H
	DD	06b4bb9afH
	DD	0c4bfe81bH
	DD	066282193H
	DD	061d809ccH
	DD	0fb21a991H
	DD	0487cac60H
	DD	05dec8032H
	DD	0ef845d5dH
	DD	0e98575b1H
	DD	0dc262302H
	DD	0eb651b88H
	DD	023893e81H
	DD	0d396acc5H
	DD	0f6d6ff3H
	DD	083f44239H
	DD	02e0b4482H
	DD	0a4842004H
	DD	069c8f04aH
	DD	09e1f9b5eH
	DD	021c66842H
	DD	0f6e96c9aH
	DD	0670c9c61H
	DD	0abd388f0H
	DD	06a51a0d2H
	DD	0d8542f68H
	DD	0960fa728H
	DD	0ab5133a3H
	DD	06eef0b6cH
	DD	0137a3be4H
	DD	0ba3bf050H
	DD	07efb2a98H
	DD	0a1f1651dH
	DD	039af0176H
	DD	066ca593eH
	DD	082430e88H
	DD	08cee8619H
	DD	0456f9fb4H
	DD	07d84a5c3H
	DD	03b8b5ebeH
	DD	0e06f75d8H
	DD	085c12073H
	DD	0401a449fH
	DD	056c16aa6H
	DD	04ed3aa62H
	DD	0363f7706H
	DD	01bfedf72H
	DD	0429b023dH
	DD	037d0d724H
	DD	0d00a1248H
	DD	0db0fead3H
	DD	049f1c09bH
	DD	075372c9H
	DD	080991b7bH
	DD	025d479d8H
	DD	0f6e8def7H
	DD	0e3fe501aH
	DD	0b6794c3bH
	DD	0976ce0bdH
	DD	04c006baH
	DD	0c1a94fb6H
	DD	0409f60c4H
	DD	05e5c9ec2H
	DD	0196a2463H
	DD	068fb6fafH
	DD	03e6c53b5H
	DD	01339b2ebH
	DD	03b52ec6fH
	DD	06dfc511fH
	DD	09b30952cH
	DD	0cc814544H
	DD	0af5ebd09H
	DD	0bee3d004H
	DD	0de334afdH
	DD	0660f2807H
	DD	0192e4bb3H
	DD	0c0cba857H
	DD	045c8740fH
	DD	0d20b5f39H
	DD	0b9d3fbdbH
	DD	05579c0bdH
	DD	01a60320aH
	DD	0d6a100c6H
	DD	0402c7279H
	DD	0679f25feH
	DD	0fb1fa3ccH
	DD	08ea5e9f8H
	DD	0db3222f8H
	DD	03c7516dfH
	DD	0fd616b15H
	DD	02f501ec8H
	DD	0ad0552abH
	DD	0323db5faH
	DD	0fd238760H
	DD	053317b48H
	DD	03e00df82H
	DD	09e5c57bbH
	DD	0ca6f8ca0H
	DD	01a87562eH
	DD	0df1769dbH
	DD	0d542a8f6H
	DD	0287effc3H
	DD	0ac6732c6H
	DD	08c4f5573H
	DD	0695b27b0H
	DD	0bbca58c8H
	DD	0e1ffa35dH
	DD	0b8f011a0H
	DD	010fa3d98H
	DD	0fd2183b8H
	DD	04afcb56cH
	DD	02dd1d35bH
	DD	09a53e479H
	DD	0b6f84565H
	DD	0d28e49bcH
	DD	04bfb9790H
	DD	0e1ddf2daH
	DD	0a4cb7e33H
	DD	062fb1341H
	DD	0cee4c6e8H
	DD	0ef20cadaH
	DD	036774c01H
	DD	0d07e9efeH
	DD	02bf11fb4H
	DD	095dbda4dH
	DD	0ae909198H
	DD	0eaad8e71H
	DD	06b93d5a0H
	DD	0d08ed1d0H
	DD	0afc725e0H
	DD	08e3c5b2fH
	DD	08e7594b7H
	DD	08ff6e2fbH
	DD	0f2122b64H
	DD	08888b812H
	DD	0900df01cH
	DD	04fad5ea0H
	DD	0688fc31cH
	DD	0d1cff191H
	DD	0b3a8c1adH
	DD	02f2f2218H
	DD	0be0e1777H
	DD	0ea752dfeH
	DD	08b021fa1H
	DD	0e5a0cc0fH
	DD	0b56f74e8H
	DD	018acf3d6H
	DD	0ce89e299H
	DD	0b4a84fe0H
	DD	0fd13e0b7H
	DD	07cc43b81H
	DD	0d2ada8d9H
	DD	0165fa266H
	DD	080957705H
	DD	093cc7314H
	DD	0211a1477H
	DD	0e6ad2065H
	DD	077b5fa86H
	DD	0c75442f5H
	DD	0fb9d35cfH
	DD	0ebcdaf0cH
	DD	07b3e89a0H
	DD	0d6411bd3H
	DD	0ae1e7e49H
	DD	0250e2dH
	DD	02071b35eH
	DD	0226800bbH
	DD	057b8e0afH
	DD	02464369bH
	DD	0f009b91eH
	DD	05563911dH
	DD	059dfa6aaH
	DD	078c14389H
	DD	0d95a537fH
	DD	0207d5ba2H
	DD	02e5b9c5H
	DD	083260376H
	DD	06295cfa9H
	DD	011c81968H
	DD	04e734a41H
	DD	0b3472dcaH
	DD	07b14a94aH
	DD	01b510052H
	DD	09a532915H
	DD	0d60f573fH
	DD	0bc9bc6e4H
	DD	02b60a476H
	DD	081e67400H
	DD	08ba6fb5H
	DD	0571be91fH
	DD	0f296ec6bH
	DD	02a0dd915H
	DD	0b6636521H
	DD	0e7b9f9b6H
	DD	0ff34052eH
	DD	0c5855664H
	DD	053b02d5dH
	DD	0a99f8fa1H
	DD	08ba4799H
	DD	06e85076aH
	DD	04b7a70e9H
	DD	0b5b32944H
	DD	0db75092eH
	DD	0c4192623H
	DD	0ad6ea6b0H
	DD	049a7df7dH
	DD	09cee60b8H
	DD	08fedb266H
	DD	0ecaa8c71H
	DD	0699a17ffH
	DD	05664526cH
	DD	0c2b19ee1H
	DD	0193602a5H
	DD	075094c29H
	DD	0a0591340H
	DD	0e4183a3eH
	DD	03f54989aH
	DD	05b429d65H
	DD	06b8fe4d6H
	DD	099f73fd6H
	DD	0a1d29c07H
	DD	0efe830f5H
	DD	04d2d38e6H
	DD	0f0255dc1H
	DD	04cdd2086H
	DD	08470eb26H
	DD	06382e9c6H
	DD	021ecc5eH
	DD	09686b3fH
	DD	03ebaefc9H
	DD	03c971814H
	DD	06b6a70a1H
	DD	0687f3584H
	DD	052a0e286H
	DD	0b79c5305H
	DD	0aa500737H
	DD	03e07841cH
	DD	07fdeae5cH
	DD	08e7d44ecH
	DD	05716f2b8H
	DD	0b03ada37H
	DD	0f0500c0dH
	DD	0f01c1f04H
	DD	0200b3ffH
	DD	0ae0cf51aH
	DD	03cb574b2H
	DD	025837a58H
	DD	0dc0921bdH
	DD	0d19113f9H
	DD	07ca92ff6H
	DD	094324773H
	DD	022f54701H
	DD	03ae5e581H
	DD	037c2dadcH
	DD	0c8b57634H
	DD	09af3dda7H
	DD	0a9446146H
	DD	0fd0030eH
	DD	0ecc8c73eH
	DD	0a4751e41H
	DD	0e238cd99H
	DD	03bea0e2fH
	DD	03280bba1H
	DD	0183eb331H
	DD	04e548b38H
	DD	04f6db908H
	DD	06f420d03H
	DD	0f60a04bfH
	DD	02cb81290H
	DD	024977c79H
	DD	05679b072H
	DD	0bcaf89afH
	DD	0de9a771fH
	DD	0d9930810H
	DD	0b38bae12H
	DD	0dccf3f2eH
	DD	05512721fH
	DD	02e6b7124H
	DD	0501adde6H
	DD	09f84cd87H
	DD	07a584718H
	DD	07408da17H
	DD	0bc9f9abcH
	DD	0e94b7d8cH
	DD	0ec7aec3aH
	DD	0db851dfaH
	DD	063094366H
	DD	0c464c3d2H
	DD	0ef1c1847H
	DD	03215d908H
	DD	0dd433b37H
	DD	024c2ba16H
	DD	012a14d43H
	DD	02a65c451H
	DD	050940002H
	DD	0133ae4ddH
	DD	071dff89eH
	DD	010314e55H
	DD	081ac77d6H
	DD	05f11199bH
	DD	043556f1H
	DD	0d7a3c76bH
	DD	03c11183bH
	DD	05924a509H
	DD	0f28fe6edH
	DD	097f1fbfaH
	DD	09ebabf2cH
	DD	01e153c6eH
	DD	086e34570H
	DD	0eae96fb1H
	DD	0860e5e0aH
	DD	05a3e2ab3H
	DD	0771fe71cH
	DD	04e3d06faH
	DD	02965dcb9H
	DD	099e71d0fH
	DD	0803e89d6H
	DD	05266c825H
	DD	02e4cc978H
	DD	09c10b36aH
	DD	0c6150ebaH
	DD	094e2ea78H
	DD	0a5fc3c53H
	DD	01e0a2df4H
	DD	0f2f74ea7H
	DD	0361d2b3dH
	DD	01939260fH
	DD	019c27960H
	DD	05223a708H
	DD	0f71312b6H
	DD	0ebadfe6eH
	DD	0eac31f66H
	DD	0e3bc4595H
	DD	0a67bc883H
	DD	0b17f37d1H
	DD	018cff28H
	DD	0c332ddefH
	DD	0be6c5aa5H
	DD	065582185H
	DD	068ab9802H
	DD	0eecea50fH
	DD	0db2f953bH
	DD	02aef7dadH
	DD	05b6e2f84H
	DD	01521b628H
	DD	029076170H
	DD	0ecdd4775H
	DD	0619f1510H
	DD	013cca830H
	DD	0eb61bd96H
	DD	0334fe1eH
	DD	0aa0363cfH
	DD	0b5735c90H
	DD	04c70a239H
	DD	0d59e9e0bH
	DD	0cbaade14H
	DD	0eecc86bcH
	DD	060622ca7H
	DD	09cab5cabH
	DD	0b2f3846eH
	DD	0648b1eafH
	DD	019bdf0caH
	DD	0a02369b9H
	DD	0655abb50H
	DD	040685a32H
	DD	03c2ab4b3H
	DD	0319ee9d5H
	DD	0c021b8f7H
	DD	09b540b19H
	DD	0875fa099H
	DD	095f7997eH
	DD	0623d7da8H
	DD	0f837889aH
	DD	097e32d77H
	DD	011ed935fH
	DD	016681281H
	DD	0e358829H
	DD	0c7e61fd6H
	DD	096dedfa1H
	DD	07858ba99H
	DD	057f584a5H
	DD	01b227263H
	DD	09b83c3ffH
	DD	01ac24696H
	DD	0cdb30aebH
	DD	0532e3054H
	DD	08fd948e4H
	DD	06dbc3128H
	DD	058ebf2efH
	DD	034c6ffeaH
	DD	0fe28ed61H
	DD	0ee7c3c73H
	DD	05d4a14d9H
	DD	0e864b7e3H
	DD	042105d14H
	DD	0203e13e0H
	DD	045eee2b6H
	DD	0a3aaabeaH
	DD	0db6c4f15H
	DD	0facb4fd0H
	DD	0c742f442H
	DD	0ef6abbb5H
	DD	0654f3b1dH
	DD	041cd2105H
	DD	0d81e799eH
	DD	086854dc7H
	DD	0e44b476aH
	DD	03d816250H
	DD	0cf62a1f2H
	DD	05b8d2646H
	DD	0fc8883a0H
	DD	0c1c7b6a3H
	DD	07f1524c3H
	DD	069cb7492H
	DD	047848a0bH
	DD	05692b285H
	DD	095bbf00H
	DD	0ad19489dH
	DD	01462b174H
	DD	023820e00H
	DD	058428d2aH
	DD	0c55f5eaH
	DD	01dadf43eH
	DD	0233f7061H
	DD	03372f092H
	DD	08d937e41H
	DD	0d65fecf1H
	DD	06c223bdbH
	DD	07cde3759H
	DD	0cbee7460H
	DD	04085f2a7H
	DD	0ce77326eH
	DD	0a6078084H
	DD	019f8509eH
	DD	0e8efd855H
	DD	061d99735H
	DD	0a969a7aaH
	DD	0c50c06c2H
	DD	05a04abfcH
	DD	0800bcadcH
	DD	09e447a2eH
	DD	0c3453484H
	DD	0fdd56705H
	DD	0e1e9ec9H
	DD	0db73dbd3H
	DD	0105588cdH
	DD	0675fda79H
	DD	0e3674340H
	DD	0c5c43465H
	DD	0713e38d8H
	DD	03d28f89eH
	DD	0f16dff20H
	DD	0153e21e7H
	DD	08fb03d4aH
	DD	0e6e39f2bH
	DD	0db83adf7H
	DD	0e93d5a68H
	DD	0948140f7H
	DD	0f64c261cH
	DD	094692934H
	DD	0411520f7H
	DD	07602d4f7H
	DD	0bcf46b2eH
	DD	0d4a20068H
	DD	0d4082471H
	DD	03320f46aH
	DD	043b7d4b7H
	DD	0500061afH
	DD	01e39f62eH
	DD	097244546H
	DD	014214f74H
	DD	0bf8b8840H
	DD	04d95fc1dH
	DD	096b591afH
	DD	070f4ddd3H
	DD	066a02f45H
	DD	0bfbc09ecH
	DD	03bd9785H
	DD	07fac6dd0H
	DD	031cb8504H
	DD	096eb27b3H
	DD	055fd3941H
	DD	0da2547e6H
	DD	0abca0a9aH
	DD	028507825H
	DD	0530429f4H
	DD	0a2c86daH
	DD	0e9b66dfbH
	DD	068dc1462H
	DD	0d7486900H
	DD	0680ec0a4H
	DD	027a18deeH
	DD	04f3ffea2H
	DD	0e887ad8cH
	DD	0b58ce006H
	DD	07af4d6b6H
	DD	0aace1e7cH
	DD	0d3375fecH
	DD	0ce78a399H
	DD	0406b2a42H
	DD	020fe9e35H
	DD	0d9f385b9H
	DD	0ee39d7abH
	DD	03b124e8bH
	DD	01dc9faf7H
	DD	04b6d1856H
	DD	026a36631H
	DD	0eae397b2H
	DD	03a6efa74H
	DD	0dd5b4332H
	DD	06841e7f7H
	DD	0ca7820fbH
	DD	0fb0af54eH
	DD	0d8feb397H
	DD	0454056acH
	DD	0ba489527H
	DD	055533a3aH
	DD	020838d87H
	DD	0fe6ba9b7H
	DD	0d096954bH
	DD	055a867bcH
	DD	0a1159a58H
	DD	0cca92963H
	DD	099e1db33H
	DD	0a62a4a56H
	DD	03f3125f9H
	DD	05ef47e1cH
	DD	09029317cH
	DD	0fdf8e802H
	DD	04272f70H
	DD	080bb155cH
	DD	05282ce3H
	DD	095c11548H
	DD	0e4c66d22H
	DD	048c1133fH
	DD	0c70f86dcH
	DD	07f9c9eeH
	DD	041041f0fH
	DD	0404779a4H
	DD	05d886e17H
	DD	0325f51ebH
	DD	0d59bc0d1H
	DD	0f2bcc18fH
	DD	041113564H
	DD	0257b7834H
	DD	0602a9c60H
	DD	0dff8e8a3H
	DD	01f636c1bH
	DD	0e12b4c2H
	DD	02e1329eH
	DD	0af664fd1H
	DD	0cad18115H
	DD	06b2395e0H
	DD	0333e92e1H
	DD	03b240b62H
	DD	0eebeb922H
	DD	085b2a20eH
	DD	0e6ba0d99H
	DD	0de720c8cH
	DD	02da2f728H
	DD	0d0127845H
	DD	095b794fdH
	DD	0647d0862H
	DD	0e7ccf5f0H
	DD	05449a36fH
	DD	0877d48faH
	DD	0c39dfd27H
	DD	0f33e8d1eH
	DD	0a476341H
	DD	0992eff74H
	DD	03a6f6eabH
	DD	0f4f8fd37H
	DD	0a812dc60H
	DD	0a1ebddf8H
	DD	0991be14cH
	DD	0db6e6b0dH
	DD	0c67b5510H
	DD	06d672c37H
	DD	02765d43bH
	DD	0dcd0e804H
	DD	0f1290dc7H
	DD	0cc00ffa3H
	DD	0b5390f92H
	DD	0690fed0bH
	DD	0667b9ffbH
	DD	0cedb7d9cH
	DD	0a091cf0bH
	DD	0d9155ea3H
	DD	0bb132f88H
	DD	0515bad24H
	DD	07b9479bfH
	DD	0763bd6ebH
	DD	037392eb3H
	DD	0cc115979H
	DD	08026e297H
	DD	0f42e312dH
	DD	06842ada7H
	DD	0c66a2b3bH
	DD	012754cccH
	DD	0782ef11cH
	DD	06a124237H
	DD	0b79251e7H
	DD	06a1bbe6H
	DD	04bfb6350H
	DD	01a6b1018H
	DD	011caedfaH
	DD	03d25bdd8H
	DD	0e2e1c3c9H
	DD	044421659H
	DD	0a121386H
	DD	0d90cec6eH
	DD	0d5abea2aH
	DD	064af674eH
	DD	0da86a85fH
	DD	0bebfe988H
	DD	064e4c3feH
	DD	09dbc8057H
	DD	0f0f7c086H
	DD	060787bf8H
	DD	06003604dH
	DD	0d1fd8346H
	DD	0f6381fb0H
	DD	07745ae04H
	DD	0d736fcccH
	DD	083426b33H
	DD	0f01eab71H
	DD	0b0804187H
	DD	03c005e5fH
	DD	077a057beH
	DD	0bde8ae24H
	DD	055464299H
	DD	0bf582e61H
	DD	04e58f48fH
	DD	0f2ddfda2H
	DD	0f474ef38H
	DD	08789bdc2H
	DD	05366f9c3H
	DD	0c8b38e74H
	DD	0b475f255H
	DD	046fcd9b9H
	DD	07aeb2661H
	DD	08b1ddf84H
	DD	0846a0e79H
	DD	0915f95e2H
	DD	0466e598eH
	DD	020b45770H
	DD	08cd55591H
	DD	0c902de4cH
	DD	0b90bace1H
	DD	0bb8205d0H
	DD	011a86248H
	DD	07574a99eH
	DD	0b77f19b6H
	DD	0e0a9dc09H
	DD	0662d09a1H
	DD	0c4324633H
	DD	0e85a1f02H
	DD	09f0be8cH
	DD	04a99a025H
	DD	01d6efe10H
	DD	01ab93d1dH
	DD	0ba5a4dfH
	DD	0a186f20fH
	DD	02868f169H
	DD	0dcb7da83H
	DD	0573906feH
	DD	0a1e2ce9bH
	DD	04fcd7f52H
	DD	050115e01H
	DD	0a70683faH
	DD	0a002b5c4H
	DD	0de6d027H
	DD	09af88c27H
	DD	0773f8641H
	DD	0c3604c06H
	DD	061a806b5H
	DD	0f0177a28H
	DD	0c0f586e0H
	DD	06058aaH
	DD	030dc7d62H
	DD	011e69ed7H
	DD	02338ea63H
	DD	053c2dd94H
	DD	0c2c21634H
	DD	0bbcbee56H
	DD	090bcb6deH
	DD	0ebfc7da1H
	DD	0ce591d76H
	DD	06f05e409H
	DD	04b7c0188H
	DD	039720a3dH
	DD	07c927c24H
	DD	086e3725fH
	DD	0724d9db9H
	DD	01ac15bb4H
	DD	0d39eb8fcH
	DD	0ed545578H
	DD	08fca5b5H
	DD	0d83d7cd3H
	DD	04dad0fc4H
	DD	01e50ef5eH
	DD	0b161e6f8H
	DD	0a28514d9H
	DD	06c51133cH
	DD	06fd5c7e7H
	DD	056e14ec4H
	DD	0362abfceH
	DD	0ddc6c837H
	DD	0d79a3234H
	DD	092638212H
	DD	0670efa8eH
	DD	0406000e0H
	DD	03a39ce37H
	DD	0d3faf5cfH
	DD	0abc27737H
	DD	05ac52d1bH
	DD	05cb0679eH
	DD	04fa33742H
	DD	0d3822740H
	DD	099bc9bbeH
	DD	0d5118e9dH
	DD	0bf0f7315H
	DD	0d62d1c7eH
	DD	0c700c47bH
	DD	0b78c1b6bH
	DD	021a19045H
	DD	0b26eb1beH
	DD	06a366eb4H
	DD	05748ab2fH
	DD	0bc946e79H
	DD	0c6a376d2H
	DD	06549c2c8H
	DD	0530ff8eeH
	DD	0468dde7dH
	DD	0d5730a1dH
	DD	04cd04dc6H
	DD	02939bbdbH
	DD	0a9ba4650H
	DD	0ac9526e8H
	DD	0be5ee304H
	DD	0a1fad5f0H
	DD	06a2d519aH
	DD	063ef8ce2H
	DD	09a86ee22H
	DD	0c089c2b8H
	DD	043242ef6H
	DD	0a51e03aaH
	DD	09cf2d0a4H
	DD	083c061baH
	DD	09be96a4dH
	DD	08fe51550H
	DD	0ba645bd6H
	DD	02826a2f9H
	DD	0a73a3ae1H
	DD	04ba99586H
	DD	0ef5562e9H
	DD	0c72fefd3H
	DD	0f752f7daH
	DD	03f046f69H
	DD	077fa0a59H
	DD	080e4a915H
	DD	087b08601H
	DD	09b09e6adH
	DD	03b3ee593H
	DD	0e990fd5aH
	DD	09e34d797H
	DD	02cf0b7d9H
	DD	022b8b51H
	DD	096d5ac3aH
	DD	017da67dH
	DD	0d1cf3ed6H
	DD	07c7d2d28H
	DD	01f9f25cfH
	DD	0adf2b89bH
	DD	05ad6b472H
	DD	05a88f54cH
	DD	0e029ac71H
	DD	0e019a5e6H
	DD	047b0acfdH
	DD	0ed93fa9bH
	DD	0e8d3c48dH
	DD	0283b57ccH
	DD	0f8d56629H
	DD	079132e28H
	DD	0785f0191H
	DD	0ed756055H
	DD	0f7960e44H
	DD	0e3d35e8cH
	DD	015056dd4H
	DD	088f46dbaH
	DD	03a16125H
	DD	0564f0bdH
	DD	0c3eb9e15H
	DD	03c9057a2H
	DD	097271aecH
	DD	0a93a072aH
	DD	01b3f6d9bH
	DD	01e6321f5H
	DD	0f59c66fbH
	DD	026dcf319H
	DD	07533d928H
	DD	0b155fdf5H
	DD	03563482H
	DD	08aba3cbbH
	DD	028517711H
	DD	0c20ad9f8H
	DD	0abcc5167H
	DD	0ccad925fH
	DD	04de81751H
	DD	03830dc8eH
	DD	0379d5862H
	DD	09320f991H
	DD	0ea7a90c2H
	DD	0fb3e7bceH
	DD	05121ce64H
	DD	0774fbe32H
	DD	0a8b6e37eH
	DD	0c3293d46H
	DD	048de5369H
	DD	06413e680H
	DD	0a2ae0810H
	DD	0dd6db224H
	DD	069852dfdH
	DD	09072166H
	DD	0b39a460aH
	DD	06445c0ddH
	DD	0586cdecfH
	DD	01c20c8aeH
	DD	05bbef7ddH
	DD	01b588d40H
	DD	0ccd2017fH
	DD	06bb4e3bbH
	DD	0dda26a7eH
	DD	03a59ff45H
	DD	03e350a44H
	DD	0bcb4cdd5H
	DD	072eacea8H
	DD	0fa6484bbH
	DD	08d6612aeH
	DD	0bf3c6f47H
	DD	0d29be463H
	DD	0542f5d9eH
	DD	0aec2771bH
	DD	0f64e6370H
	DD	0740e0d8dH
	DD	0e75b1357H
	DD	0f8721671H
	DD	0af537d5dH
	DD	04040cb08H
	DD	04eb4e2ccH
	DD	034d2466aH
	DD	0115af84H
	DD	0e1b00428H
	DD	095983a1dH
	DD	06b89fb4H
	DD	0ce6ea048H
	DD	06f3f3b82H
	DD	03520ab82H
	DD	011a1d4bH
	DD	0277227f8H
	DD	0611560b1H
	DD	0e7933fdcH
	DD	0bb3a792bH
	DD	0344525bdH
	DD	0a08839e1H
	DD	051ce794bH
	DD	02f32c9b7H
	DD	0a01fbac9H
	DD	0e01cc87eH
	DD	0bcc7d1f6H
	DD	0cf0111c3H
	DD	0a1e8aac7H
	DD	01a908749H
	DD	0d44fbd9aH
	DD	0d0dadecbH
	DD	0d50ada38H
	DD	0339c32aH
	DD	0c6913667H
	DD	08df9317cH
	DD	0e0b12b4fH
	DD	0f79e59b7H
	DD	043f5bb3aH
	DD	0f2d519ffH
	DD	027d9459cH
	DD	0bf97222cH
	DD	015e6fc2aH
	DD	0f91fc71H
	DD	09b941525H
	DD	0fae59361H
	DD	0ceb69cebH
	DD	0c2a86459H
	DD	012baa8d1H
	DD	0b6c1075eH
	DD	0e3056a0cH
	DD	010d25065H
	DD	0cb03a442H
	DD	0e0ec6e0eH
	DD	01698db3bH
	DD	04c98a0beH
	DD	03278e964H
	DD	09f1f9532H
	DD	0e0d392dfH
	DD	0d3a0342bH
	DD	08971f21eH
	DD	01b0a7441H
	DD	04ba3348cH
	DD	0c5be7120H
	DD	0c37632d8H
	DD	0df359f8dH
	DD	09b992f2eH
	DD	0e60b6f47H
	DD	0fe3f11dH
	DD	0e54cda54H
	DD	01edad891H
	DD	0ce6279cfH
	DD	0cd3e7e6fH
	DD	01618b166H
	DD	0fd2c1d05H
	DD	0848fd2c5H
	DD	0f6fb2299H
	DD	0f523f357H
	DD	0a6327623H
	DD	093a83531H
	DD	056cccd02H
	DD	0acf08162H
	DD	05a75ebb5H
	DD	06e163697H
	DD	088d273ccH
	DD	0de966292H
	DD	081b949d0H
	DD	04c50901bH
	DD	071c65614H
	DD	0e6c6c7bdH
	DD	0327a140aH
	DD	045e1d006H
	DD	0c3f27b9aH
	DD	0c9aa53fdH
	DD	062a80f00H
	DD	0bb25bfe2H
	DD	035bdd2f6H
	DD	071126905H
	DD	0b2040222H
	DD	0b6cbcf7cH
	DD	0cd769c2bH
	DD	053113ec0H
	DD	01640e3d3H
	DD	038abbd60H
	DD	02547adf0H
	DD	0ba38209cH
	DD	0f746ce76H
	DD	077afa1c5H
	DD	020756060H
	DD	085cbfe4eH
	DD	08ae88dd8H
	DD	07aaaf9b0H
	DD	04cf9aa7eH
	DD	01948c25cH
	DD	02fb8a8cH
	DD	01c36ae4H
	DD	0d6ebe1f9H
	DD	090d4f869H
	DD	0a65cdea0H
	DD	03f09252dH
	DD	0c208e69fH
	DD	0b74e6132H
	DD	0ce77e25bH
	DD	0578fdfe3H
	DD	03ac372e6H
CONST	ENDS
PUBLIC	__$ArrayPad$
PUBLIC	_BlowFishInit
EXTRN	_memcpy:PROC
EXTRN	___security_cookie:DWORD
EXTRN	__RTC_CheckEsp:PROC
EXTRN	@__security_check_cookie@4:PROC
EXTRN	@_RTC_CheckStackVars@8:PROC
EXTRN	_memset:PROC
EXTRN	__RTC_Shutdown:PROC
EXTRN	__RTC_InitBase:PROC
;	COMDAT rtc$TMZ
; File d:\windows\belial\crypt\blowfish.c
rtc$TMZ	SEGMENT
__RTC_Shutdown.rtc$TMZ DD FLAT:__RTC_Shutdown
rtc$TMZ	ENDS
;	COMDAT rtc$IMZ
rtc$IMZ	SEGMENT
__RTC_InitBase.rtc$IMZ DD FLAT:__RTC_InitBase
; Function compile flags: /Odtp /RTCsu /ZI
rtc$IMZ	ENDS
;	COMDAT _BlowFishInit
_TEXT	SEGMENT
_key$ = -128						; size = 72
_pr$ = -48						; size = 4
_pl$ = -36						; size = 4
_j$ = -24						; size = 4
_i$ = -12						; size = 4
__$ArrayPad$ = -4					; size = 4
_pContext$ = 8						; size = 4
_BlowFishInit PROC					; COMDAT

; 350  : {

  00000	55		 push	 ebp
  00001	8b ec		 mov	 ebp, esp
  00003	81 ec 44 01 00
	00		 sub	 esp, 324		; 00000144H
  00009	53		 push	 ebx
  0000a	56		 push	 esi
  0000b	57		 push	 edi
  0000c	8d bd bc fe ff
	ff		 lea	 edi, DWORD PTR [ebp-324]
  00012	b9 51 00 00 00	 mov	 ecx, 81			; 00000051H
  00017	b8 cc cc cc cc	 mov	 eax, -858993460		; ccccccccH
  0001c	f3 ab		 rep stosd
  0001e	a1 00 00 00 00	 mov	 eax, DWORD PTR ___security_cookie
  00023	33 c5		 xor	 eax, ebp
  00025	89 45 fc	 mov	 DWORD PTR __$ArrayPad$[ebp], eax

; 351  : 	int i = 0;

  00028	c7 45 f4 00 00
	00 00		 mov	 DWORD PTR _i$[ebp], 0

; 352  : 	int j = 0;

  0002f	c7 45 e8 00 00
	00 00		 mov	 DWORD PTR _j$[ebp], 0

; 353  : 	unsigned int pl = 0;

  00036	c7 45 dc 00 00
	00 00		 mov	 DWORD PTR _pl$[ebp], 0

; 354  : 	unsigned int pr = 0;

  0003d	c7 45 d0 00 00
	00 00		 mov	 DWORD PTR _pr$[ebp], 0

; 355  : 	unsigned int key[18] = {0};

  00044	c7 45 80 00 00
	00 00		 mov	 DWORD PTR _key$[ebp], 0
  0004b	6a 44		 push	 68			; 00000044H
  0004d	6a 00		 push	 0
  0004f	8d 45 84	 lea	 eax, DWORD PTR _key$[ebp+4]
  00052	50		 push	 eax
  00053	e8 00 00 00 00	 call	 _memset
  00058	83 c4 0c	 add	 esp, 12			; 0000000cH

; 356  : 	if (NULL == pContext->pKey)

  0005b	8b 45 08	 mov	 eax, DWORD PTR _pContext$[ebp]
  0005e	83 38 00	 cmp	 DWORD PTR [eax], 0
  00061	75 05		 jne	 SHORT $LN16@BlowFishIn

; 357  : 	{
; 358  : 		return;

  00063	e9 82 01 00 00	 jmp	 $LN17@BlowFishIn
$LN16@BlowFishIn:

; 359  : 	}
; 360  : 	if ((pContext->nLen < MIN_ENCRYPT_SIZE) ||
; 361  : 		(pContext->nLen > MAX_ENCRYPT_SIZE))

  00068	8b 45 08	 mov	 eax, DWORD PTR _pContext$[ebp]
  0006b	83 78 04 04	 cmp	 DWORD PTR [eax+4], 4
  0006f	72 09		 jb	 SHORT $LN14@BlowFishIn
  00071	8b 45 08	 mov	 eax, DWORD PTR _pContext$[ebp]
  00074	83 78 04 38	 cmp	 DWORD PTR [eax+4], 56	; 00000038H
  00078	76 05		 jbe	 SHORT $LN15@BlowFishIn
$LN14@BlowFishIn:

; 362  : 	{
; 363  : 		return;

  0007a	e9 6b 01 00 00	 jmp	 $LN17@BlowFishIn
$LN15@BlowFishIn:

; 364  : 	}
; 365  : 	memcpy(pContext->sbox,S,sizeof(S));

  0007f	68 00 10 00 00	 push	 4096			; 00001000H
  00084	68 00 00 00 00	 push	 OFFSET _S
  00089	8b 45 08	 mov	 eax, DWORD PTR _pContext$[ebp]
  0008c	83 c0 50	 add	 eax, 80			; 00000050H
  0008f	50		 push	 eax
  00090	e8 00 00 00 00	 call	 _memcpy
  00095	83 c4 0c	 add	 esp, 12			; 0000000cH

; 366  : 	memcpy(pContext->pbox,P,sizeof(P));

  00098	6a 48		 push	 72			; 00000048H
  0009a	68 00 00 00 00	 push	 OFFSET _P
  0009f	8b 45 08	 mov	 eax, DWORD PTR _pContext$[ebp]
  000a2	83 c0 08	 add	 eax, 8
  000a5	50		 push	 eax
  000a6	e8 00 00 00 00	 call	 _memcpy
  000ab	83 c4 0c	 add	 esp, 12			; 0000000cH

; 367  : 	memcpy(key,pContext->pKey,pContext->nLen);

  000ae	8b 45 08	 mov	 eax, DWORD PTR _pContext$[ebp]
  000b1	8b 48 04	 mov	 ecx, DWORD PTR [eax+4]
  000b4	51		 push	 ecx
  000b5	8b 55 08	 mov	 edx, DWORD PTR _pContext$[ebp]
  000b8	8b 02		 mov	 eax, DWORD PTR [edx]
  000ba	50		 push	 eax
  000bb	8d 4d 80	 lea	 ecx, DWORD PTR _key$[ebp]
  000be	51		 push	 ecx
  000bf	e8 00 00 00 00	 call	 _memcpy
  000c4	83 c4 0c	 add	 esp, 12			; 0000000cH

; 368  : 	if (pContext->nLen < 64)

  000c7	8b 45 08	 mov	 eax, DWORD PTR _pContext$[ebp]
  000ca	83 78 04 40	 cmp	 DWORD PTR [eax+4], 64	; 00000040H
  000ce	73 25		 jae	 SHORT $LN13@BlowFishIn

; 369  : 	{
; 370  : 		memcpy((char*)key + pContext->nLen,pContext->pKey,64 - pContext->nLen);

  000d0	8b 45 08	 mov	 eax, DWORD PTR _pContext$[ebp]
  000d3	b9 40 00 00 00	 mov	 ecx, 64			; 00000040H
  000d8	2b 48 04	 sub	 ecx, DWORD PTR [eax+4]
  000db	51		 push	 ecx
  000dc	8b 55 08	 mov	 edx, DWORD PTR _pContext$[ebp]
  000df	8b 02		 mov	 eax, DWORD PTR [edx]
  000e1	50		 push	 eax
  000e2	8b 4d 08	 mov	 ecx, DWORD PTR _pContext$[ebp]
  000e5	8b 51 04	 mov	 edx, DWORD PTR [ecx+4]
  000e8	8d 44 15 80	 lea	 eax, DWORD PTR _key$[ebp+edx]
  000ec	50		 push	 eax
  000ed	e8 00 00 00 00	 call	 _memcpy
  000f2	83 c4 0c	 add	 esp, 12			; 0000000cH
$LN13@BlowFishIn:

; 371  : 	}
; 372  : 	for (i=0; i<18; i++)

  000f5	c7 45 f4 00 00
	00 00		 mov	 DWORD PTR _i$[ebp], 0
  000fc	eb 09		 jmp	 SHORT $LN12@BlowFishIn
$LN11@BlowFishIn:
  000fe	8b 45 f4	 mov	 eax, DWORD PTR _i$[ebp]
  00101	83 c0 01	 add	 eax, 1
  00104	89 45 f4	 mov	 DWORD PTR _i$[ebp], eax
$LN12@BlowFishIn:
  00107	83 7d f4 12	 cmp	 DWORD PTR _i$[ebp], 18	; 00000012H
  0010b	7d 1d		 jge	 SHORT $LN10@BlowFishIn

; 373  : 	{
; 374  : 		pContext->pbox[i] ^= key[i];

  0010d	8b 45 f4	 mov	 eax, DWORD PTR _i$[ebp]
  00110	8b 4d 08	 mov	 ecx, DWORD PTR _pContext$[ebp]
  00113	8b 55 f4	 mov	 edx, DWORD PTR _i$[ebp]
  00116	8b 44 81 08	 mov	 eax, DWORD PTR [ecx+eax*4+8]
  0011a	33 44 95 80	 xor	 eax, DWORD PTR _key$[ebp+edx*4]
  0011e	8b 4d f4	 mov	 ecx, DWORD PTR _i$[ebp]
  00121	8b 55 08	 mov	 edx, DWORD PTR _pContext$[ebp]
  00124	89 44 8a 08	 mov	 DWORD PTR [edx+ecx*4+8], eax

; 375  : 	}

  00128	eb d4		 jmp	 SHORT $LN11@BlowFishIn
$LN10@BlowFishIn:

; 376  : 	for (i=0; i<18; i+=2)

  0012a	c7 45 f4 00 00
	00 00		 mov	 DWORD PTR _i$[ebp], 0
  00131	eb 09		 jmp	 SHORT $LN9@BlowFishIn
$LN8@BlowFishIn:
  00133	8b 45 f4	 mov	 eax, DWORD PTR _i$[ebp]
  00136	83 c0 02	 add	 eax, 2
  00139	89 45 f4	 mov	 DWORD PTR _i$[ebp], eax
$LN9@BlowFishIn:
  0013c	83 7d f4 12	 cmp	 DWORD PTR _i$[ebp], 18	; 00000012H
  00140	7d 30		 jge	 SHORT $LN7@BlowFishIn

; 377  : 	{
; 378  : 		BF_EncodeEx(pContext,&pl,&pr);

  00142	8d 45 d0	 lea	 eax, DWORD PTR _pr$[ebp]
  00145	50		 push	 eax
  00146	8d 4d dc	 lea	 ecx, DWORD PTR _pl$[ebp]
  00149	51		 push	 ecx
  0014a	8b 55 08	 mov	 edx, DWORD PTR _pContext$[ebp]
  0014d	52		 push	 edx
  0014e	e8 00 00 00 00	 call	 _BF_EncodeEx
  00153	83 c4 0c	 add	 esp, 12			; 0000000cH

; 379  : 		pContext->pbox[i] = pl;

  00156	8b 45 f4	 mov	 eax, DWORD PTR _i$[ebp]
  00159	8b 4d 08	 mov	 ecx, DWORD PTR _pContext$[ebp]
  0015c	8b 55 dc	 mov	 edx, DWORD PTR _pl$[ebp]
  0015f	89 54 81 08	 mov	 DWORD PTR [ecx+eax*4+8], edx

; 380  : 		pContext->pbox[i+1] = pr;

  00163	8b 45 f4	 mov	 eax, DWORD PTR _i$[ebp]
  00166	8b 4d 08	 mov	 ecx, DWORD PTR _pContext$[ebp]
  00169	8b 55 d0	 mov	 edx, DWORD PTR _pr$[ebp]
  0016c	89 54 81 0c	 mov	 DWORD PTR [ecx+eax*4+12], edx

; 381  : 	}

  00170	eb c1		 jmp	 SHORT $LN8@BlowFishIn
$LN7@BlowFishIn:

; 382  : 	for (i=0; i<4; i++)

  00172	c7 45 f4 00 00
	00 00		 mov	 DWORD PTR _i$[ebp], 0
  00179	eb 09		 jmp	 SHORT $LN6@BlowFishIn
$LN5@BlowFishIn:
  0017b	8b 45 f4	 mov	 eax, DWORD PTR _i$[ebp]
  0017e	83 c0 01	 add	 eax, 1
  00181	89 45 f4	 mov	 DWORD PTR _i$[ebp], eax
$LN6@BlowFishIn:
  00184	83 7d f4 04	 cmp	 DWORD PTR _i$[ebp], 4
  00188	7d 60		 jge	 SHORT $LN17@BlowFishIn

; 383  : 	{
; 384  : 		for (j=0; j<256; j+=2)

  0018a	c7 45 e8 00 00
	00 00		 mov	 DWORD PTR _j$[ebp], 0
  00191	eb 09		 jmp	 SHORT $LN3@BlowFishIn
$LN2@BlowFishIn:
  00193	8b 45 e8	 mov	 eax, DWORD PTR _j$[ebp]
  00196	83 c0 02	 add	 eax, 2
  00199	89 45 e8	 mov	 DWORD PTR _j$[ebp], eax
$LN3@BlowFishIn:
  0019c	81 7d e8 00 01
	00 00		 cmp	 DWORD PTR _j$[ebp], 256	; 00000100H
  001a3	7d 43		 jge	 SHORT $LN1@BlowFishIn

; 385  : 		{
; 386  : 			BF_EncodeEx(pContext,&pl,&pr);

  001a5	8d 45 d0	 lea	 eax, DWORD PTR _pr$[ebp]
  001a8	50		 push	 eax
  001a9	8d 4d dc	 lea	 ecx, DWORD PTR _pl$[ebp]
  001ac	51		 push	 ecx
  001ad	8b 55 08	 mov	 edx, DWORD PTR _pContext$[ebp]
  001b0	52		 push	 edx
  001b1	e8 00 00 00 00	 call	 _BF_EncodeEx
  001b6	83 c4 0c	 add	 esp, 12			; 0000000cH

; 387  : 			pContext->sbox[i][j] = pl;

  001b9	8b 45 f4	 mov	 eax, DWORD PTR _i$[ebp]
  001bc	c1 e0 0a	 shl	 eax, 10			; 0000000aH
  001bf	8b 4d 08	 mov	 ecx, DWORD PTR _pContext$[ebp]
  001c2	8d 54 01 50	 lea	 edx, DWORD PTR [ecx+eax+80]
  001c6	8b 45 e8	 mov	 eax, DWORD PTR _j$[ebp]
  001c9	8b 4d dc	 mov	 ecx, DWORD PTR _pl$[ebp]
  001cc	89 0c 82	 mov	 DWORD PTR [edx+eax*4], ecx

; 388  : 			pContext->sbox[i][j+1] = pr;

  001cf	8b 45 f4	 mov	 eax, DWORD PTR _i$[ebp]
  001d2	c1 e0 0a	 shl	 eax, 10			; 0000000aH
  001d5	8b 4d 08	 mov	 ecx, DWORD PTR _pContext$[ebp]
  001d8	8d 54 01 50	 lea	 edx, DWORD PTR [ecx+eax+80]
  001dc	8b 45 e8	 mov	 eax, DWORD PTR _j$[ebp]
  001df	8b 4d d0	 mov	 ecx, DWORD PTR _pr$[ebp]
  001e2	89 4c 82 04	 mov	 DWORD PTR [edx+eax*4+4], ecx

; 389  : 		}

  001e6	eb ab		 jmp	 SHORT $LN2@BlowFishIn
$LN1@BlowFishIn:

; 390  : 	}

  001e8	eb 91		 jmp	 SHORT $LN5@BlowFishIn
$LN17@BlowFishIn:

; 391  : }

  001ea	52		 push	 edx
  001eb	8b cd		 mov	 ecx, ebp
  001ed	50		 push	 eax
  001ee	8d 15 00 00 00
	00		 lea	 edx, DWORD PTR $LN23@BlowFishIn
  001f4	e8 00 00 00 00	 call	 @_RTC_CheckStackVars@8
  001f9	58		 pop	 eax
  001fa	5a		 pop	 edx
  001fb	5f		 pop	 edi
  001fc	5e		 pop	 esi
  001fd	5b		 pop	 ebx
  001fe	8b 4d fc	 mov	 ecx, DWORD PTR __$ArrayPad$[ebp]
  00201	33 cd		 xor	 ecx, ebp
  00203	e8 00 00 00 00	 call	 @__security_check_cookie@4
  00208	81 c4 44 01 00
	00		 add	 esp, 324		; 00000144H
  0020e	3b ec		 cmp	 ebp, esp
  00210	e8 00 00 00 00	 call	 __RTC_CheckEsp
  00215	8b e5		 mov	 esp, ebp
  00217	5d		 pop	 ebp
  00218	c3		 ret	 0
  00219	8d 49 00	 npad	 3
$LN23@BlowFishIn:
  0021c	03 00 00 00	 DD	 3
  00220	00 00 00 00	 DD	 $LN22@BlowFishIn
$LN22@BlowFishIn:
  00224	dc ff ff ff	 DD	 -36			; ffffffdcH
  00228	04 00 00 00	 DD	 4
  0022c	00 00 00 00	 DD	 $LN19@BlowFishIn
  00230	d0 ff ff ff	 DD	 -48			; ffffffd0H
  00234	04 00 00 00	 DD	 4
  00238	00 00 00 00	 DD	 $LN20@BlowFishIn
  0023c	80 ff ff ff	 DD	 -128			; ffffff80H
  00240	48 00 00 00	 DD	 72			; 00000048H
  00244	00 00 00 00	 DD	 $LN21@BlowFishIn
$LN21@BlowFishIn:
  00248	6b		 DB	 107			; 0000006bH
  00249	65		 DB	 101			; 00000065H
  0024a	79		 DB	 121			; 00000079H
  0024b	00		 DB	 0
$LN20@BlowFishIn:
  0024c	70		 DB	 112			; 00000070H
  0024d	72		 DB	 114			; 00000072H
  0024e	00		 DB	 0
$LN19@BlowFishIn:
  0024f	70		 DB	 112			; 00000070H
  00250	6c		 DB	 108			; 0000006cH
  00251	00		 DB	 0
_BlowFishInit ENDP
; Function compile flags: /Odtp /RTCsu /ZI
_TEXT	ENDS
;	COMDAT _BF_EncodeEx
_TEXT	SEGMENT
_i$ = -32						; size = 4
_npr$ = -20						; size = 4
_npl$ = -8						; size = 4
_pContext$ = 8						; size = 4
_pl$ = 12						; size = 4
_pr$ = 16						; size = 4
_BF_EncodeEx PROC					; COMDAT

; 395  : {

  00000	55		 push	 ebp
  00001	8b ec		 mov	 ebp, esp
  00003	81 ec e4 00 00
	00		 sub	 esp, 228		; 000000e4H
  00009	53		 push	 ebx
  0000a	56		 push	 esi
  0000b	57		 push	 edi
  0000c	8d bd 1c ff ff
	ff		 lea	 edi, DWORD PTR [ebp-228]
  00012	b9 39 00 00 00	 mov	 ecx, 57			; 00000039H
  00017	b8 cc cc cc cc	 mov	 eax, -858993460		; ccccccccH
  0001c	f3 ab		 rep stosd

; 396  : 	unsigned int npl,npr;
; 397  : 	int i;
; 398  : 	for (i = 0; i < 16; i++)

  0001e	c7 45 e0 00 00
	00 00		 mov	 DWORD PTR _i$[ebp], 0
  00025	eb 09		 jmp	 SHORT $LN3@BF_EncodeE
$LN2@BF_EncodeE:
  00027	8b 45 e0	 mov	 eax, DWORD PTR _i$[ebp]
  0002a	83 c0 01	 add	 eax, 1
  0002d	89 45 e0	 mov	 DWORD PTR _i$[ebp], eax
$LN3@BF_EncodeE:
  00030	83 7d e0 10	 cmp	 DWORD PTR _i$[ebp], 16	; 00000010H
  00034	7d 63		 jge	 SHORT $LN1@BF_EncodeE

; 399  : 	{
; 400  : 		npr = *pl ^ pContext->pbox[i];

  00036	8b 45 0c	 mov	 eax, DWORD PTR _pl$[ebp]
  00039	8b 4d e0	 mov	 ecx, DWORD PTR _i$[ebp]
  0003c	8b 55 08	 mov	 edx, DWORD PTR _pContext$[ebp]
  0003f	8b 00		 mov	 eax, DWORD PTR [eax]
  00041	33 44 8a 08	 xor	 eax, DWORD PTR [edx+ecx*4+8]
  00045	89 45 ec	 mov	 DWORD PTR _npr$[ebp], eax

; 401  : 		npl = F(pContext->sbox,npr) ^ *pr;

  00048	0f b6 45 ec	 movzx	 eax, BYTE PTR _npr$[ebp]
  0004c	0f b6 4d ed	 movzx	 ecx, BYTE PTR _npr$[ebp+1]
  00050	8b 55 08	 mov	 edx, DWORD PTR _pContext$[ebp]
  00053	8b 44 82 50	 mov	 eax, DWORD PTR [edx+eax*4+80]
  00057	8b 55 08	 mov	 edx, DWORD PTR _pContext$[ebp]
  0005a	03 84 8a 50 04
	00 00		 add	 eax, DWORD PTR [edx+ecx*4+1104]
  00061	0f b6 4d ee	 movzx	 ecx, BYTE PTR _npr$[ebp+2]
  00065	0f b6 55 ef	 movzx	 edx, BYTE PTR _npr$[ebp+3]
  00069	8b 75 08	 mov	 esi, DWORD PTR _pContext$[ebp]
  0006c	8b 8c 8e 50 08
	00 00		 mov	 ecx, DWORD PTR [esi+ecx*4+2128]
  00073	8b 75 08	 mov	 esi, DWORD PTR _pContext$[ebp]
  00076	03 8c 96 50 0c
	00 00		 add	 ecx, DWORD PTR [esi+edx*4+3152]
  0007d	33 c1		 xor	 eax, ecx
  0007f	8b 55 10	 mov	 edx, DWORD PTR _pr$[ebp]
  00082	33 02		 xor	 eax, DWORD PTR [edx]
  00084	89 45 f8	 mov	 DWORD PTR _npl$[ebp], eax

; 402  : 		*pl = npl;

  00087	8b 45 0c	 mov	 eax, DWORD PTR _pl$[ebp]
  0008a	8b 4d f8	 mov	 ecx, DWORD PTR _npl$[ebp]
  0008d	89 08		 mov	 DWORD PTR [eax], ecx

; 403  : 		*pr = npr;

  0008f	8b 45 10	 mov	 eax, DWORD PTR _pr$[ebp]
  00092	8b 4d ec	 mov	 ecx, DWORD PTR _npr$[ebp]
  00095	89 08		 mov	 DWORD PTR [eax], ecx

; 404  : 	}

  00097	eb 8e		 jmp	 SHORT $LN2@BF_EncodeE
$LN1@BF_EncodeE:

; 405  : 	npl = *pr ^ pContext->pbox[17];

  00099	8b 45 10	 mov	 eax, DWORD PTR _pr$[ebp]
  0009c	8b 4d 08	 mov	 ecx, DWORD PTR _pContext$[ebp]
  0009f	8b 10		 mov	 edx, DWORD PTR [eax]
  000a1	33 51 4c	 xor	 edx, DWORD PTR [ecx+76]
  000a4	89 55 f8	 mov	 DWORD PTR _npl$[ebp], edx

; 406  : 	npr = *pl ^ pContext->pbox[16];

  000a7	8b 45 0c	 mov	 eax, DWORD PTR _pl$[ebp]
  000aa	8b 4d 08	 mov	 ecx, DWORD PTR _pContext$[ebp]
  000ad	8b 10		 mov	 edx, DWORD PTR [eax]
  000af	33 51 48	 xor	 edx, DWORD PTR [ecx+72]
  000b2	89 55 ec	 mov	 DWORD PTR _npr$[ebp], edx

; 407  : 	*pl = npl;

  000b5	8b 45 0c	 mov	 eax, DWORD PTR _pl$[ebp]
  000b8	8b 4d f8	 mov	 ecx, DWORD PTR _npl$[ebp]
  000bb	89 08		 mov	 DWORD PTR [eax], ecx

; 408  : 	*pr = npr;

  000bd	8b 45 10	 mov	 eax, DWORD PTR _pr$[ebp]
  000c0	8b 4d ec	 mov	 ecx, DWORD PTR _npr$[ebp]
  000c3	89 08		 mov	 DWORD PTR [eax], ecx

; 409  : }

  000c5	5f		 pop	 edi
  000c6	5e		 pop	 esi
  000c7	5b		 pop	 ebx
  000c8	8b e5		 mov	 esp, ebp
  000ca	5d		 pop	 ebp
  000cb	c3		 ret	 0
_BF_EncodeEx ENDP
_TEXT	ENDS
PUBLIC	_BlowFishEncrypt
EXTRN	_memset:PROC
; Function compile flags: /Odtp /RTCsu /ZI
;	COMDAT _BlowFishEncrypt
_TEXT	SEGMENT
tv71 = -232						; size = 4
_i$ = -32						; size = 4
_pr$ = -20						; size = 4
_pl$ = -8						; size = 4
_pContext$ = 8						; size = 4
_pInput$ = 12						; size = 4
_nSize$ = 16						; size = 4
_pOutput$ = 20						; size = 4
_BlowFishEncrypt PROC					; COMDAT

; 433  : {

  00000	55		 push	 ebp
  00001	8b ec		 mov	 ebp, esp
  00003	81 ec e8 00 00
	00		 sub	 esp, 232		; 000000e8H
  00009	53		 push	 ebx
  0000a	56		 push	 esi
  0000b	57		 push	 edi
  0000c	8d bd 18 ff ff
	ff		 lea	 edi, DWORD PTR [ebp-232]
  00012	b9 3a 00 00 00	 mov	 ecx, 58			; 0000003aH
  00017	b8 cc cc cc cc	 mov	 eax, -858993460		; ccccccccH
  0001c	f3 ab		 rep stosd

; 434  : 	unsigned int pl = 0;

  0001e	c7 45 f8 00 00
	00 00		 mov	 DWORD PTR _pl$[ebp], 0

; 435  : 	unsigned int pr = 0;

  00025	c7 45 ec 00 00
	00 00		 mov	 DWORD PTR _pr$[ebp], 0

; 436  : 	unsigned int i;
; 437  : 	if ((NULL == pInput) || 
; 438  : 		(NULL == pOutput))

  0002c	83 7d 0c 00	 cmp	 DWORD PTR _pInput$[ebp], 0
  00030	74 06		 je	 SHORT $LN7@BlowFishEn
  00032	83 7d 14 00	 cmp	 DWORD PTR _pOutput$[ebp], 0
  00036	75 05		 jne	 SHORT $LN8@BlowFishEn
$LN7@BlowFishEn:

; 439  : 	{
; 440  : 		return;

  00038	e9 f9 00 00 00	 jmp	 $LN9@BlowFishEn
$LN8@BlowFishEn:

; 441  : 	}
; 442  : 	//保8，真酷
; 443  : 	nSize = (nSize&0x7) ? (nSize + 8 - (nSize&0x7)) : nSize;

  0003d	8b 45 10	 mov	 eax, DWORD PTR _nSize$[ebp]
  00040	83 e0 07	 and	 eax, 7
  00043	74 16		 je	 SHORT $LN11@BlowFishEn
  00045	8b 4d 10	 mov	 ecx, DWORD PTR _nSize$[ebp]
  00048	83 c1 08	 add	 ecx, 8
  0004b	8b 55 10	 mov	 edx, DWORD PTR _nSize$[ebp]
  0004e	83 e2 07	 and	 edx, 7
  00051	2b ca		 sub	 ecx, edx
  00053	89 8d 18 ff ff
	ff		 mov	 DWORD PTR tv71[ebp], ecx
  00059	eb 09		 jmp	 SHORT $LN12@BlowFishEn
$LN11@BlowFishEn:
  0005b	8b 45 10	 mov	 eax, DWORD PTR _nSize$[ebp]
  0005e	89 85 18 ff ff
	ff		 mov	 DWORD PTR tv71[ebp], eax
$LN12@BlowFishEn:
  00064	8b 8d 18 ff ff
	ff		 mov	 ecx, DWORD PTR tv71[ebp]
  0006a	89 4d 10	 mov	 DWORD PTR _nSize$[ebp], ecx

; 444  : 	/*
; 445  : 	if (NULL != pSize)
; 446  : 	{
; 447  : 		*pSize = nSize;
; 448  : 	}
; 449  : 	*/
; 450  : 	memset(pOutput,0,nSize);

  0006d	8b 45 10	 mov	 eax, DWORD PTR _nSize$[ebp]
  00070	50		 push	 eax
  00071	6a 00		 push	 0
  00073	8b 4d 14	 mov	 ecx, DWORD PTR _pOutput$[ebp]
  00076	51		 push	 ecx
  00077	e8 00 00 00 00	 call	 _memset
  0007c	83 c4 0c	 add	 esp, 12			; 0000000cH

; 451  : 	memcpy(pOutput,pInput,nSize);

  0007f	8b 45 10	 mov	 eax, DWORD PTR _nSize$[ebp]
  00082	50		 push	 eax
  00083	8b 4d 0c	 mov	 ecx, DWORD PTR _pInput$[ebp]
  00086	51		 push	 ecx
  00087	8b 55 14	 mov	 edx, DWORD PTR _pOutput$[ebp]
  0008a	52		 push	 edx
  0008b	e8 00 00 00 00	 call	 _memcpy
  00090	83 c4 0c	 add	 esp, 12			; 0000000cH

; 452  : 	for (i = 0; i < nSize; i += 8)

  00093	c7 45 e0 00 00
	00 00		 mov	 DWORD PTR _i$[ebp], 0
  0009a	eb 09		 jmp	 SHORT $LN6@BlowFishEn
$LN5@BlowFishEn:
  0009c	8b 45 e0	 mov	 eax, DWORD PTR _i$[ebp]
  0009f	83 c0 08	 add	 eax, 8
  000a2	89 45 e0	 mov	 DWORD PTR _i$[ebp], eax
$LN6@BlowFishEn:
  000a5	8b 45 e0	 mov	 eax, DWORD PTR _i$[ebp]
  000a8	3b 45 10	 cmp	 eax, DWORD PTR _nSize$[ebp]
  000ab	0f 83 85 00 00
	00		 jae	 $LN9@BlowFishEn

; 453  : 	{
; 454  : 		if (BF_Mode_ECB == pContext->mode)

  000b1	8b 45 08	 mov	 eax, DWORD PTR _pContext$[ebp]
  000b4	83 b8 50 10 00
	00 00		 cmp	 DWORD PTR [eax+4176], 0
  000bb	75 20		 jne	 SHORT $LN3@BlowFishEn

; 455  : 		{
; 456  : 			BF_EncodeEx(pContext,
; 457  : 				(unsigned int*)((char*)pOutput+i),
; 458  : 				(unsigned int*)((char*)pOutput+i+4));

  000bd	8b 45 e0	 mov	 eax, DWORD PTR _i$[ebp]
  000c0	8b 4d 14	 mov	 ecx, DWORD PTR _pOutput$[ebp]
  000c3	8d 54 01 04	 lea	 edx, DWORD PTR [ecx+eax+4]
  000c7	52		 push	 edx
  000c8	8b 45 14	 mov	 eax, DWORD PTR _pOutput$[ebp]
  000cb	03 45 e0	 add	 eax, DWORD PTR _i$[ebp]
  000ce	50		 push	 eax
  000cf	8b 4d 08	 mov	 ecx, DWORD PTR _pContext$[ebp]
  000d2	51		 push	 ecx
  000d3	e8 00 00 00 00	 call	 _BF_EncodeEx
  000d8	83 c4 0c	 add	 esp, 12			; 0000000cH
  000db	eb 54		 jmp	 SHORT $LN2@BlowFishEn
$LN3@BlowFishEn:

; 459  : 		}
; 460  : 		else if(BF_Mode_BCB == pContext->mode)

  000dd	8b 45 08	 mov	 eax, DWORD PTR _pContext$[ebp]
  000e0	83 b8 50 10 00
	00 01		 cmp	 DWORD PTR [eax+4176], 1
  000e7	75 48		 jne	 SHORT $LN2@BlowFishEn

; 461  : 		{
; 462  : 			pl ^= *(unsigned int*)((char*)pOutput+i);

  000e9	8b 45 14	 mov	 eax, DWORD PTR _pOutput$[ebp]
  000ec	03 45 e0	 add	 eax, DWORD PTR _i$[ebp]
  000ef	8b 4d f8	 mov	 ecx, DWORD PTR _pl$[ebp]
  000f2	33 08		 xor	 ecx, DWORD PTR [eax]
  000f4	89 4d f8	 mov	 DWORD PTR _pl$[ebp], ecx

; 463  : 			pr ^= *(unsigned int*)((char*)pOutput+i+4);

  000f7	8b 45 14	 mov	 eax, DWORD PTR _pOutput$[ebp]
  000fa	03 45 e0	 add	 eax, DWORD PTR _i$[ebp]
  000fd	8b 4d ec	 mov	 ecx, DWORD PTR _pr$[ebp]
  00100	33 48 04	 xor	 ecx, DWORD PTR [eax+4]
  00103	89 4d ec	 mov	 DWORD PTR _pr$[ebp], ecx

; 464  : 			BF_EncodeEx(pContext,&pl,&pr);

  00106	8d 45 ec	 lea	 eax, DWORD PTR _pr$[ebp]
  00109	50		 push	 eax
  0010a	8d 4d f8	 lea	 ecx, DWORD PTR _pl$[ebp]
  0010d	51		 push	 ecx
  0010e	8b 55 08	 mov	 edx, DWORD PTR _pContext$[ebp]
  00111	52		 push	 edx
  00112	e8 00 00 00 00	 call	 _BF_EncodeEx
  00117	83 c4 0c	 add	 esp, 12			; 0000000cH

; 465  : 			*(unsigned int*)((char*)pOutput+i) = pl;

  0011a	8b 45 14	 mov	 eax, DWORD PTR _pOutput$[ebp]
  0011d	03 45 e0	 add	 eax, DWORD PTR _i$[ebp]
  00120	8b 4d f8	 mov	 ecx, DWORD PTR _pl$[ebp]
  00123	89 08		 mov	 DWORD PTR [eax], ecx

; 466  : 			*(unsigned int*)((char*)pOutput+i+4) = pr;

  00125	8b 45 14	 mov	 eax, DWORD PTR _pOutput$[ebp]
  00128	03 45 e0	 add	 eax, DWORD PTR _i$[ebp]
  0012b	8b 4d ec	 mov	 ecx, DWORD PTR _pr$[ebp]
  0012e	89 48 04	 mov	 DWORD PTR [eax+4], ecx
$LN2@BlowFishEn:

; 467  : 		}
; 468  : 	}

  00131	e9 66 ff ff ff	 jmp	 $LN5@BlowFishEn
$LN9@BlowFishEn:

; 469  : }

  00136	52		 push	 edx
  00137	8b cd		 mov	 ecx, ebp
  00139	50		 push	 eax
  0013a	8d 15 00 00 00
	00		 lea	 edx, DWORD PTR $LN16@BlowFishEn
  00140	e8 00 00 00 00	 call	 @_RTC_CheckStackVars@8
  00145	58		 pop	 eax
  00146	5a		 pop	 edx
  00147	5f		 pop	 edi
  00148	5e		 pop	 esi
  00149	5b		 pop	 ebx
  0014a	81 c4 e8 00 00
	00		 add	 esp, 232		; 000000e8H
  00150	3b ec		 cmp	 ebp, esp
  00152	e8 00 00 00 00	 call	 __RTC_CheckEsp
  00157	8b e5		 mov	 esp, ebp
  00159	5d		 pop	 ebp
  0015a	c3		 ret	 0
  0015b	90		 npad	 1
$LN16@BlowFishEn:
  0015c	02 00 00 00	 DD	 2
  00160	00 00 00 00	 DD	 $LN15@BlowFishEn
$LN15@BlowFishEn:
  00164	f8 ff ff ff	 DD	 -8			; fffffff8H
  00168	04 00 00 00	 DD	 4
  0016c	00 00 00 00	 DD	 $LN13@BlowFishEn
  00170	ec ff ff ff	 DD	 -20			; ffffffecH
  00174	04 00 00 00	 DD	 4
  00178	00 00 00 00	 DD	 $LN14@BlowFishEn
$LN14@BlowFishEn:
  0017c	70		 DB	 112			; 00000070H
  0017d	72		 DB	 114			; 00000072H
  0017e	00		 DB	 0
$LN13@BlowFishEn:
  0017f	70		 DB	 112			; 00000070H
  00180	6c		 DB	 108			; 0000006cH
  00181	00		 DB	 0
_BlowFishEncrypt ENDP
_TEXT	ENDS
PUBLIC	_BlowFishDecrypt
; Function compile flags: /Odtp /RTCsu /ZI
;	COMDAT _BlowFishDecrypt
_TEXT	SEGMENT
_i$ = -56						; size = 4
_cpr$ = -44						; size = 4
_cpl$ = -32						; size = 4
_pr$ = -20						; size = 4
_pl$ = -8						; size = 4
_pContext$ = 8						; size = 4
_pInput$ = 12						; size = 4
_nSize$ = 16						; size = 4
_pOutput$ = 20						; size = 4
_BlowFishDecrypt PROC					; COMDAT

; 475  : {

  00000	55		 push	 ebp
  00001	8b ec		 mov	 ebp, esp
  00003	81 ec fc 00 00
	00		 sub	 esp, 252		; 000000fcH
  00009	53		 push	 ebx
  0000a	56		 push	 esi
  0000b	57		 push	 edi
  0000c	8d bd 04 ff ff
	ff		 lea	 edi, DWORD PTR [ebp-252]
  00012	b9 3f 00 00 00	 mov	 ecx, 63			; 0000003fH
  00017	b8 cc cc cc cc	 mov	 eax, -858993460		; ccccccccH
  0001c	f3 ab		 rep stosd

; 476  : 	unsigned int pl = 0;

  0001e	c7 45 f8 00 00
	00 00		 mov	 DWORD PTR _pl$[ebp], 0

; 477  : 	unsigned int pr = 0;

  00025	c7 45 ec 00 00
	00 00		 mov	 DWORD PTR _pr$[ebp], 0

; 478  : 	unsigned int cpl = 0;

  0002c	c7 45 e0 00 00
	00 00		 mov	 DWORD PTR _cpl$[ebp], 0

; 479  : 	unsigned int cpr = 0;

  00033	c7 45 d4 00 00
	00 00		 mov	 DWORD PTR _cpr$[ebp], 0

; 480  : 	unsigned int i;
; 481  : 	if ((NULL == pInput) || 
; 482  : 		(NULL == pOutput) ||
; 483  : 		(nSize == 0) ||
; 484  : 		((nSize %8) != 0))

  0003a	83 7d 0c 00	 cmp	 DWORD PTR _pInput$[ebp], 0
  0003e	74 1c		 je	 SHORT $LN7@BlowFishDe
  00040	83 7d 14 00	 cmp	 DWORD PTR _pOutput$[ebp], 0
  00044	74 16		 je	 SHORT $LN7@BlowFishDe
  00046	83 7d 10 00	 cmp	 DWORD PTR _nSize$[ebp], 0
  0004a	74 10		 je	 SHORT $LN7@BlowFishDe
  0004c	8b 45 10	 mov	 eax, DWORD PTR _nSize$[ebp]
  0004f	33 d2		 xor	 edx, edx
  00051	b9 08 00 00 00	 mov	 ecx, 8
  00056	f7 f1		 div	 ecx
  00058	85 d2		 test	 edx, edx
  0005a	74 05		 je	 SHORT $LN8@BlowFishDe
$LN7@BlowFishDe:

; 485  : 	{
; 486  : 		return;

  0005c	e9 ea 00 00 00	 jmp	 $LN9@BlowFishDe
$LN8@BlowFishDe:

; 487  : 	}
; 488  : 	//保8，真酷
; 489  : 	//nSize = (nSize&0x7) ? (nSize + 8 - (nSize&0x7)) : nSize;
; 490  : 	memset(pOutput,0,nSize);

  00061	8b 45 10	 mov	 eax, DWORD PTR _nSize$[ebp]
  00064	50		 push	 eax
  00065	6a 00		 push	 0
  00067	8b 4d 14	 mov	 ecx, DWORD PTR _pOutput$[ebp]
  0006a	51		 push	 ecx
  0006b	e8 00 00 00 00	 call	 _memset
  00070	83 c4 0c	 add	 esp, 12			; 0000000cH

; 491  : 	memcpy(pOutput,pInput,nSize);

  00073	8b 45 10	 mov	 eax, DWORD PTR _nSize$[ebp]
  00076	50		 push	 eax
  00077	8b 4d 0c	 mov	 ecx, DWORD PTR _pInput$[ebp]
  0007a	51		 push	 ecx
  0007b	8b 55 14	 mov	 edx, DWORD PTR _pOutput$[ebp]
  0007e	52		 push	 edx
  0007f	e8 00 00 00 00	 call	 _memcpy
  00084	83 c4 0c	 add	 esp, 12			; 0000000cH

; 492  : 	
; 493  : 	for (i = 0; i < nSize; i += 8)

  00087	c7 45 c8 00 00
	00 00		 mov	 DWORD PTR _i$[ebp], 0
  0008e	eb 09		 jmp	 SHORT $LN6@BlowFishDe
$LN5@BlowFishDe:
  00090	8b 45 c8	 mov	 eax, DWORD PTR _i$[ebp]
  00093	83 c0 08	 add	 eax, 8
  00096	89 45 c8	 mov	 DWORD PTR _i$[ebp], eax
$LN6@BlowFishDe:
  00099	8b 45 c8	 mov	 eax, DWORD PTR _i$[ebp]
  0009c	3b 45 10	 cmp	 eax, DWORD PTR _nSize$[ebp]
  0009f	0f 83 a6 00 00
	00		 jae	 $LN9@BlowFishDe

; 494  : 	{
; 495  : 		if (BF_Mode_ECB == pContext->mode)

  000a5	8b 45 08	 mov	 eax, DWORD PTR _pContext$[ebp]
  000a8	83 b8 50 10 00
	00 00		 cmp	 DWORD PTR [eax+4176], 0
  000af	75 20		 jne	 SHORT $LN3@BlowFishDe

; 496  : 		{
; 497  : 			BF_DecodeEx(pContext,
; 498  : 				(unsigned int*)((char*)pOutput+i),
; 499  : 				(unsigned int*)((char*)pOutput+i+4));

  000b1	8b 45 c8	 mov	 eax, DWORD PTR _i$[ebp]
  000b4	8b 4d 14	 mov	 ecx, DWORD PTR _pOutput$[ebp]
  000b7	8d 54 01 04	 lea	 edx, DWORD PTR [ecx+eax+4]
  000bb	52		 push	 edx
  000bc	8b 45 14	 mov	 eax, DWORD PTR _pOutput$[ebp]
  000bf	03 45 c8	 add	 eax, DWORD PTR _i$[ebp]
  000c2	50		 push	 eax
  000c3	8b 4d 08	 mov	 ecx, DWORD PTR _pContext$[ebp]
  000c6	51		 push	 ecx
  000c7	e8 00 00 00 00	 call	 _BF_DecodeEx
  000cc	83 c4 0c	 add	 esp, 12			; 0000000cH
  000cf	eb 75		 jmp	 SHORT $LN2@BlowFishDe
$LN3@BlowFishDe:

; 500  : 		}
; 501  : 		else if(BF_Mode_BCB == pContext->mode)

  000d1	8b 45 08	 mov	 eax, DWORD PTR _pContext$[ebp]
  000d4	83 b8 50 10 00
	00 01		 cmp	 DWORD PTR [eax+4176], 1
  000db	75 69		 jne	 SHORT $LN2@BlowFishDe

; 502  : 		{
; 503  : 			cpl = pl;

  000dd	8b 45 f8	 mov	 eax, DWORD PTR _pl$[ebp]
  000e0	89 45 e0	 mov	 DWORD PTR _cpl$[ebp], eax

; 504  : 			cpr = pr;

  000e3	8b 45 ec	 mov	 eax, DWORD PTR _pr$[ebp]
  000e6	89 45 d4	 mov	 DWORD PTR _cpr$[ebp], eax

; 505  : 			pl = *(unsigned int*)((char*)pOutput+i);

  000e9	8b 45 14	 mov	 eax, DWORD PTR _pOutput$[ebp]
  000ec	03 45 c8	 add	 eax, DWORD PTR _i$[ebp]
  000ef	8b 08		 mov	 ecx, DWORD PTR [eax]
  000f1	89 4d f8	 mov	 DWORD PTR _pl$[ebp], ecx

; 506  : 			pr = *(unsigned int*)((char*)pOutput+i+4);

  000f4	8b 45 14	 mov	 eax, DWORD PTR _pOutput$[ebp]
  000f7	03 45 c8	 add	 eax, DWORD PTR _i$[ebp]
  000fa	8b 48 04	 mov	 ecx, DWORD PTR [eax+4]
  000fd	89 4d ec	 mov	 DWORD PTR _pr$[ebp], ecx

; 507  : 			//BF_Decode(&pl,&pr);
; 508  : 			BF_DecodeEx(pContext,(unsigned int*)((char*)pOutput+i),(unsigned int*)((char*)pOutput+i+4));

  00100	8b 45 c8	 mov	 eax, DWORD PTR _i$[ebp]
  00103	8b 4d 14	 mov	 ecx, DWORD PTR _pOutput$[ebp]
  00106	8d 54 01 04	 lea	 edx, DWORD PTR [ecx+eax+4]
  0010a	52		 push	 edx
  0010b	8b 45 14	 mov	 eax, DWORD PTR _pOutput$[ebp]
  0010e	03 45 c8	 add	 eax, DWORD PTR _i$[ebp]
  00111	50		 push	 eax
  00112	8b 4d 08	 mov	 ecx, DWORD PTR _pContext$[ebp]
  00115	51		 push	 ecx
  00116	e8 00 00 00 00	 call	 _BF_DecodeEx
  0011b	83 c4 0c	 add	 esp, 12			; 0000000cH

; 509  : 			*(unsigned int*)((char*)pOutput+i) ^=  cpl;

  0011e	8b 45 14	 mov	 eax, DWORD PTR _pOutput$[ebp]
  00121	03 45 c8	 add	 eax, DWORD PTR _i$[ebp]
  00124	8b 08		 mov	 ecx, DWORD PTR [eax]
  00126	33 4d e0	 xor	 ecx, DWORD PTR _cpl$[ebp]
  00129	8b 55 14	 mov	 edx, DWORD PTR _pOutput$[ebp]
  0012c	03 55 c8	 add	 edx, DWORD PTR _i$[ebp]
  0012f	89 0a		 mov	 DWORD PTR [edx], ecx

; 510  : 			*(unsigned int*)((char*)pOutput+i+4) ^= cpr;

  00131	8b 45 14	 mov	 eax, DWORD PTR _pOutput$[ebp]
  00134	03 45 c8	 add	 eax, DWORD PTR _i$[ebp]
  00137	8b 48 04	 mov	 ecx, DWORD PTR [eax+4]
  0013a	33 4d d4	 xor	 ecx, DWORD PTR _cpr$[ebp]
  0013d	8b 55 14	 mov	 edx, DWORD PTR _pOutput$[ebp]
  00140	03 55 c8	 add	 edx, DWORD PTR _i$[ebp]
  00143	89 4a 04	 mov	 DWORD PTR [edx+4], ecx
$LN2@BlowFishDe:

; 511  : 		}
; 512  : 	}

  00146	e9 45 ff ff ff	 jmp	 $LN5@BlowFishDe
$LN9@BlowFishDe:

; 513  : }

  0014b	5f		 pop	 edi
  0014c	5e		 pop	 esi
  0014d	5b		 pop	 ebx
  0014e	81 c4 fc 00 00
	00		 add	 esp, 252		; 000000fcH
  00154	3b ec		 cmp	 ebp, esp
  00156	e8 00 00 00 00	 call	 __RTC_CheckEsp
  0015b	8b e5		 mov	 esp, ebp
  0015d	5d		 pop	 ebp
  0015e	c3		 ret	 0
_BlowFishDecrypt ENDP
; Function compile flags: /Odtp /RTCsu /ZI
_TEXT	ENDS
;	COMDAT _BF_DecodeEx
_TEXT	SEGMENT
_i$ = -32						; size = 4
_npr$ = -20						; size = 4
_npl$ = -8						; size = 4
_pContext$ = 8						; size = 4
_pl$ = 12						; size = 4
_pr$ = 16						; size = 4
_BF_DecodeEx PROC					; COMDAT

; 413  : {

  00000	55		 push	 ebp
  00001	8b ec		 mov	 ebp, esp
  00003	81 ec e4 00 00
	00		 sub	 esp, 228		; 000000e4H
  00009	53		 push	 ebx
  0000a	56		 push	 esi
  0000b	57		 push	 edi
  0000c	8d bd 1c ff ff
	ff		 lea	 edi, DWORD PTR [ebp-228]
  00012	b9 39 00 00 00	 mov	 ecx, 57			; 00000039H
  00017	b8 cc cc cc cc	 mov	 eax, -858993460		; ccccccccH
  0001c	f3 ab		 rep stosd

; 414  : 	unsigned int npl,npr;
; 415  : 	int i;
; 416  : 	for (i=0; i<16; i++)

  0001e	c7 45 e0 00 00
	00 00		 mov	 DWORD PTR _i$[ebp], 0
  00025	eb 09		 jmp	 SHORT $LN3@BF_DecodeE
$LN2@BF_DecodeE:
  00027	8b 45 e0	 mov	 eax, DWORD PTR _i$[ebp]
  0002a	83 c0 01	 add	 eax, 1
  0002d	89 45 e0	 mov	 DWORD PTR _i$[ebp], eax
$LN3@BF_DecodeE:
  00030	83 7d e0 10	 cmp	 DWORD PTR _i$[ebp], 16	; 00000010H
  00034	7d 68		 jge	 SHORT $LN1@BF_DecodeE

; 417  : 	{
; 418  : 		npr = *pl ^ pContext->pbox[17 - i];

  00036	b8 11 00 00 00	 mov	 eax, 17			; 00000011H
  0003b	2b 45 e0	 sub	 eax, DWORD PTR _i$[ebp]
  0003e	8b 4d 0c	 mov	 ecx, DWORD PTR _pl$[ebp]
  00041	8b 55 08	 mov	 edx, DWORD PTR _pContext$[ebp]
  00044	8b 09		 mov	 ecx, DWORD PTR [ecx]
  00046	33 4c 82 08	 xor	 ecx, DWORD PTR [edx+eax*4+8]
  0004a	89 4d ec	 mov	 DWORD PTR _npr$[ebp], ecx

; 419  : 		npl = F(pContext->sbox,npr) ^ *pr;

  0004d	0f b6 45 ec	 movzx	 eax, BYTE PTR _npr$[ebp]
  00051	0f b6 4d ed	 movzx	 ecx, BYTE PTR _npr$[ebp+1]
  00055	8b 55 08	 mov	 edx, DWORD PTR _pContext$[ebp]
  00058	8b 44 82 50	 mov	 eax, DWORD PTR [edx+eax*4+80]
  0005c	8b 55 08	 mov	 edx, DWORD PTR _pContext$[ebp]
  0005f	03 84 8a 50 04
	00 00		 add	 eax, DWORD PTR [edx+ecx*4+1104]
  00066	0f b6 4d ee	 movzx	 ecx, BYTE PTR _npr$[ebp+2]
  0006a	0f b6 55 ef	 movzx	 edx, BYTE PTR _npr$[ebp+3]
  0006e	8b 75 08	 mov	 esi, DWORD PTR _pContext$[ebp]
  00071	8b 8c 8e 50 08
	00 00		 mov	 ecx, DWORD PTR [esi+ecx*4+2128]
  00078	8b 75 08	 mov	 esi, DWORD PTR _pContext$[ebp]
  0007b	03 8c 96 50 0c
	00 00		 add	 ecx, DWORD PTR [esi+edx*4+3152]
  00082	33 c1		 xor	 eax, ecx
  00084	8b 55 10	 mov	 edx, DWORD PTR _pr$[ebp]
  00087	33 02		 xor	 eax, DWORD PTR [edx]
  00089	89 45 f8	 mov	 DWORD PTR _npl$[ebp], eax

; 420  : 		*pl = npl;

  0008c	8b 45 0c	 mov	 eax, DWORD PTR _pl$[ebp]
  0008f	8b 4d f8	 mov	 ecx, DWORD PTR _npl$[ebp]
  00092	89 08		 mov	 DWORD PTR [eax], ecx

; 421  : 		*pr = npr;

  00094	8b 45 10	 mov	 eax, DWORD PTR _pr$[ebp]
  00097	8b 4d ec	 mov	 ecx, DWORD PTR _npr$[ebp]
  0009a	89 08		 mov	 DWORD PTR [eax], ecx

; 422  : 	}

  0009c	eb 89		 jmp	 SHORT $LN2@BF_DecodeE
$LN1@BF_DecodeE:

; 423  : 	npl = *pr ^ pContext->pbox[0];

  0009e	8b 45 10	 mov	 eax, DWORD PTR _pr$[ebp]
  000a1	8b 4d 08	 mov	 ecx, DWORD PTR _pContext$[ebp]
  000a4	8b 10		 mov	 edx, DWORD PTR [eax]
  000a6	33 51 08	 xor	 edx, DWORD PTR [ecx+8]
  000a9	89 55 f8	 mov	 DWORD PTR _npl$[ebp], edx

; 424  : 	npr = *pl ^ pContext->pbox[1];

  000ac	8b 45 0c	 mov	 eax, DWORD PTR _pl$[ebp]
  000af	8b 4d 08	 mov	 ecx, DWORD PTR _pContext$[ebp]
  000b2	8b 10		 mov	 edx, DWORD PTR [eax]
  000b4	33 51 0c	 xor	 edx, DWORD PTR [ecx+12]
  000b7	89 55 ec	 mov	 DWORD PTR _npr$[ebp], edx

; 425  : 	*pl = npl;

  000ba	8b 45 0c	 mov	 eax, DWORD PTR _pl$[ebp]
  000bd	8b 4d f8	 mov	 ecx, DWORD PTR _npl$[ebp]
  000c0	89 08		 mov	 DWORD PTR [eax], ecx

; 426  : 	*pr = npr;

  000c2	8b 45 10	 mov	 eax, DWORD PTR _pr$[ebp]
  000c5	8b 4d ec	 mov	 ecx, DWORD PTR _npr$[ebp]
  000c8	89 08		 mov	 DWORD PTR [eax], ecx

; 427  : }

  000ca	5f		 pop	 edi
  000cb	5e		 pop	 esi
  000cc	5b		 pop	 ebx
  000cd	8b e5		 mov	 esp, ebp
  000cf	5d		 pop	 ebp
  000d0	c3		 ret	 0
_BF_DecodeEx ENDP
_TEXT	ENDS
END
