; Listing generated by Microsoft (R) Optimizing Compiler Version 16.00.30319.01 

	TITLE	D:\windows\belial\crypt\Des.c
	.686P
	.XMM
	include listing.inc
	.model	flat

INCLUDELIB MSVCRTD
INCLUDELIB OLDNAMES

CONST	SEGMENT
_sp_init DD	03aH
	DD	032H
	DD	02aH
	DD	022H
	DD	01aH
	DD	012H
	DD	0aH
	DD	02H
	DD	03cH
	DD	034H
	DD	02cH
	DD	024H
	DD	01cH
	DD	014H
	DD	0cH
	DD	04H
	DD	03eH
	DD	036H
	DD	02eH
	DD	026H
	DD	01eH
	DD	016H
	DD	0eH
	DD	06H
	DD	040H
	DD	038H
	DD	030H
	DD	028H
	DD	020H
	DD	018H
	DD	010H
	DD	08H
	DD	039H
	DD	031H
	DD	029H
	DD	021H
	DD	019H
	DD	011H
	DD	09H
	DD	01H
	DD	03bH
	DD	033H
	DD	02bH
	DD	023H
	DD	01bH
	DD	013H
	DD	0bH
	DD	03H
	DD	03dH
	DD	035H
	DD	02dH
	DD	025H
	DD	01dH
	DD	015H
	DD	0dH
	DD	05H
	DD	03fH
	DD	037H
	DD	02fH
	DD	027H
	DD	01fH
	DD	017H
	DD	0fH
	DD	07H
_sp_key_pc1 DD	039H
	DD	031H
	DD	029H
	DD	021H
	DD	019H
	DD	011H
	DD	09H
	DD	01H
	DD	03aH
	DD	032H
	DD	02aH
	DD	022H
	DD	01aH
	DD	012H
	DD	0aH
	DD	02H
	DD	03bH
	DD	033H
	DD	02bH
	DD	023H
	DD	01bH
	DD	013H
	DD	0bH
	DD	03H
	DD	03cH
	DD	034H
	DD	02cH
	DD	024H
	DD	03fH
	DD	037H
	DD	02fH
	DD	027H
	DD	01fH
	DD	017H
	DD	0fH
	DD	07H
	DD	03eH
	DD	036H
	DD	02eH
	DD	026H
	DD	01eH
	DD	016H
	DD	0eH
	DD	06H
	DD	03dH
	DD	035H
	DD	02dH
	DD	025H
	DD	01dH
	DD	015H
	DD	0dH
	DD	05H
	DD	01cH
	DD	014H
	DD	0cH
	DD	04H
_sp_key_pc2 DD	0eH
	DD	011H
	DD	0bH
	DD	018H
	DD	01H
	DD	05H
	DD	03H
	DD	01cH
	DD	0fH
	DD	06H
	DD	015H
	DD	0aH
	DD	017H
	DD	013H
	DD	0cH
	DD	04H
	DD	01aH
	DD	08H
	DD	010H
	DD	07H
	DD	01bH
	DD	014H
	DD	0dH
	DD	02H
	DD	029H
	DD	034H
	DD	01fH
	DD	025H
	DD	02fH
	DD	037H
	DD	01eH
	DD	028H
	DD	033H
	DD	02dH
	DD	021H
	DD	030H
	DD	02cH
	DD	031H
	DD	027H
	DD	038H
	DD	022H
	DD	035H
	DD	02eH
	DD	02aH
	DD	032H
	DD	024H
	DD	01dH
	DD	020H
_sp_key_shifts DD 01H
	DD	01H
	DD	02H
	DD	02H
	DD	02H
	DD	02H
	DD	02H
	DD	02H
	DD	01H
	DD	02H
	DD	02H
	DD	02H
	DD	02H
	DD	02H
	DD	02H
	DD	01H
_sp_last DD	028H
	DD	08H
	DD	030H
	DD	010H
	DD	038H
	DD	018H
	DD	040H
	DD	020H
	DD	027H
	DD	07H
	DD	02fH
	DD	0fH
	DD	037H
	DD	017H
	DD	03fH
	DD	01fH
	DD	026H
	DD	06H
	DD	02eH
	DD	0eH
	DD	036H
	DD	016H
	DD	03eH
	DD	01eH
	DD	025H
	DD	05H
	DD	02dH
	DD	0dH
	DD	035H
	DD	015H
	DD	03dH
	DD	01dH
	DD	024H
	DD	04H
	DD	02cH
	DD	0cH
	DD	034H
	DD	014H
	DD	03cH
	DD	01cH
	DD	023H
	DD	03H
	DD	02bH
	DD	0bH
	DD	033H
	DD	013H
	DD	03bH
	DD	01bH
	DD	022H
	DD	02H
	DD	02aH
	DD	0aH
	DD	032H
	DD	012H
	DD	03aH
	DD	01aH
	DD	021H
	DD	01H
	DD	029H
	DD	09H
	DD	031H
	DD	011H
	DD	039H
	DD	019H
_sp_box_ext DD	020H
	DD	01H
	DD	02H
	DD	03H
	DD	04H
	DD	05H
	DD	04H
	DD	05H
	DD	06H
	DD	07H
	DD	08H
	DD	09H
	DD	08H
	DD	09H
	DD	0aH
	DD	0bH
	DD	0cH
	DD	0dH
	DD	0cH
	DD	0dH
	DD	0eH
	DD	0fH
	DD	010H
	DD	011H
	DD	010H
	DD	011H
	DD	012H
	DD	013H
	DD	014H
	DD	015H
	DD	014H
	DD	015H
	DD	016H
	DD	017H
	DD	018H
	DD	019H
	DD	018H
	DD	019H
	DD	01aH
	DD	01bH
	DD	01cH
	DD	01dH
	DD	01cH
	DD	01dH
	DD	01eH
	DD	01fH
	DD	020H
	DD	01fH
_sp_box_end DD	010H
	DD	07H
	DD	014H
	DD	015H
	DD	01dH
	DD	0cH
	DD	01cH
	DD	011H
	DD	01H
	DD	0fH
	DD	017H
	DD	01aH
	DD	05H
	DD	012H
	DD	01fH
	DD	0aH
	DD	02H
	DD	08H
	DD	018H
	DD	0eH
	DD	020H
	DD	01bH
	DD	03H
	DD	09H
	DD	013H
	DD	0dH
	DD	01eH
	DD	06H
	DD	016H
	DD	0bH
	DD	04H
	DD	019H
_sbox	DD	0eH
	DD	04H
	DD	0dH
	DD	01H
	DD	02H
	DD	0fH
	DD	0bH
	DD	08H
	DD	03H
	DD	0aH
	DD	06H
	DD	0cH
	DD	05H
	DD	09H
	DD	00H
	DD	07H
	DD	00H
	DD	0fH
	DD	07H
	DD	04H
	DD	0eH
	DD	02H
	DD	0dH
	DD	01H
	DD	0aH
	DD	06H
	DD	0cH
	DD	0bH
	DD	09H
	DD	05H
	DD	03H
	DD	08H
	DD	04H
	DD	01H
	DD	0eH
	DD	08H
	DD	0dH
	DD	06H
	DD	02H
	DD	0bH
	DD	0fH
	DD	0cH
	DD	09H
	DD	07H
	DD	03H
	DD	0aH
	DD	05H
	DD	00H
	DD	0fH
	DD	0cH
	DD	08H
	DD	02H
	DD	04H
	DD	09H
	DD	01H
	DD	07H
	DD	05H
	DD	0bH
	DD	03H
	DD	0eH
	DD	0aH
	DD	00H
	DD	06H
	DD	0dH
	DD	0fH
	DD	01H
	DD	08H
	DD	0eH
	DD	06H
	DD	0bH
	DD	03H
	DD	04H
	DD	09H
	DD	07H
	DD	02H
	DD	0dH
	DD	0cH
	DD	00H
	DD	05H
	DD	0aH
	DD	03H
	DD	0dH
	DD	04H
	DD	07H
	DD	0fH
	DD	02H
	DD	08H
	DD	0eH
	DD	0cH
	DD	00H
	DD	01H
	DD	0aH
	DD	06H
	DD	09H
	DD	0bH
	DD	05H
	DD	00H
	DD	0eH
	DD	07H
	DD	0bH
	DD	0aH
	DD	04H
	DD	0dH
	DD	01H
	DD	05H
	DD	08H
	DD	0cH
	DD	06H
	DD	09H
	DD	03H
	DD	02H
	DD	0fH
	DD	0dH
	DD	08H
	DD	0aH
	DD	01H
	DD	03H
	DD	0fH
	DD	04H
	DD	02H
	DD	0bH
	DD	06H
	DD	07H
	DD	0cH
	DD	00H
	DD	05H
	DD	0eH
	DD	09H
	DD	0aH
	DD	00H
	DD	09H
	DD	0eH
	DD	06H
	DD	03H
	DD	0fH
	DD	05H
	DD	01H
	DD	0dH
	DD	0cH
	DD	07H
	DD	0bH
	DD	04H
	DD	02H
	DD	08H
	DD	0dH
	DD	07H
	DD	00H
	DD	09H
	DD	03H
	DD	04H
	DD	06H
	DD	0aH
	DD	02H
	DD	08H
	DD	05H
	DD	0eH
	DD	0cH
	DD	0bH
	DD	0fH
	DD	01H
	DD	0dH
	DD	06H
	DD	04H
	DD	09H
	DD	08H
	DD	0fH
	DD	03H
	DD	00H
	DD	0bH
	DD	01H
	DD	02H
	DD	0cH
	DD	05H
	DD	0aH
	DD	0eH
	DD	07H
	DD	01H
	DD	0aH
	DD	0dH
	DD	00H
	DD	06H
	DD	09H
	DD	08H
	DD	07H
	DD	04H
	DD	0fH
	DD	0eH
	DD	03H
	DD	0bH
	DD	05H
	DD	02H
	DD	0cH
	DD	07H
	DD	0dH
	DD	0eH
	DD	03H
	DD	00H
	DD	06H
	DD	09H
	DD	0aH
	DD	01H
	DD	02H
	DD	08H
	DD	05H
	DD	0bH
	DD	0cH
	DD	04H
	DD	0fH
	DD	0dH
	DD	08H
	DD	0bH
	DD	05H
	DD	06H
	DD	0fH
	DD	00H
	DD	03H
	DD	04H
	DD	07H
	DD	02H
	DD	0cH
	DD	01H
	DD	0aH
	DD	0eH
	DD	09H
	DD	0aH
	DD	06H
	DD	09H
	DD	00H
	DD	0cH
	DD	0bH
	DD	07H
	DD	0dH
	DD	0fH
	DD	01H
	DD	03H
	DD	0eH
	DD	05H
	DD	02H
	DD	08H
	DD	04H
	DD	03H
	DD	0fH
	DD	00H
	DD	06H
	DD	0aH
	DD	01H
	DD	0dH
	DD	08H
	DD	09H
	DD	04H
	DD	05H
	DD	0bH
	DD	0cH
	DD	07H
	DD	02H
	DD	0eH
	DD	02H
	DD	0cH
	DD	04H
	DD	01H
	DD	07H
	DD	0aH
	DD	0bH
	DD	06H
	DD	08H
	DD	05H
	DD	03H
	DD	0fH
	DD	0dH
	DD	00H
	DD	0eH
	DD	09H
	DD	0eH
	DD	0bH
	DD	02H
	DD	0cH
	DD	04H
	DD	07H
	DD	0dH
	DD	01H
	DD	05H
	DD	00H
	DD	0fH
	DD	0aH
	DD	03H
	DD	09H
	DD	08H
	DD	06H
	DD	04H
	DD	02H
	DD	01H
	DD	0bH
	DD	0aH
	DD	0dH
	DD	07H
	DD	08H
	DD	0fH
	DD	09H
	DD	0cH
	DD	05H
	DD	06H
	DD	03H
	DD	00H
	DD	0eH
	DD	0bH
	DD	08H
	DD	0cH
	DD	07H
	DD	01H
	DD	0eH
	DD	02H
	DD	0dH
	DD	06H
	DD	0fH
	DD	00H
	DD	09H
	DD	0aH
	DD	04H
	DD	05H
	DD	03H
	DD	0cH
	DD	01H
	DD	0aH
	DD	0fH
	DD	09H
	DD	02H
	DD	06H
	DD	08H
	DD	00H
	DD	0dH
	DD	03H
	DD	04H
	DD	0eH
	DD	07H
	DD	05H
	DD	0bH
	DD	0aH
	DD	0fH
	DD	04H
	DD	02H
	DD	07H
	DD	0cH
	DD	09H
	DD	05H
	DD	06H
	DD	01H
	DD	0dH
	DD	0eH
	DD	00H
	DD	0bH
	DD	03H
	DD	08H
	DD	09H
	DD	0eH
	DD	0fH
	DD	05H
	DD	02H
	DD	08H
	DD	0cH
	DD	03H
	DD	07H
	DD	00H
	DD	04H
	DD	0aH
	DD	01H
	DD	0dH
	DD	0bH
	DD	06H
	DD	04H
	DD	03H
	DD	02H
	DD	0cH
	DD	09H
	DD	05H
	DD	0fH
	DD	0aH
	DD	0bH
	DD	0eH
	DD	01H
	DD	07H
	DD	06H
	DD	00H
	DD	08H
	DD	0dH
	DD	04H
	DD	0bH
	DD	02H
	DD	0eH
	DD	0fH
	DD	00H
	DD	08H
	DD	0dH
	DD	03H
	DD	0cH
	DD	09H
	DD	07H
	DD	05H
	DD	0aH
	DD	06H
	DD	01H
	DD	0dH
	DD	00H
	DD	0bH
	DD	07H
	DD	04H
	DD	09H
	DD	01H
	DD	0aH
	DD	0eH
	DD	03H
	DD	05H
	DD	0cH
	DD	02H
	DD	0fH
	DD	08H
	DD	06H
	DD	01H
	DD	04H
	DD	0bH
	DD	0dH
	DD	0cH
	DD	03H
	DD	07H
	DD	0eH
	DD	0aH
	DD	0fH
	DD	06H
	DD	08H
	DD	00H
	DD	05H
	DD	09H
	DD	02H
	DD	06H
	DD	0bH
	DD	0dH
	DD	08H
	DD	01H
	DD	04H
	DD	0aH
	DD	07H
	DD	09H
	DD	05H
	DD	00H
	DD	0fH
	DD	0eH
	DD	02H
	DD	03H
	DD	0cH
	DD	0dH
	DD	02H
	DD	08H
	DD	04H
	DD	06H
	DD	0fH
	DD	0bH
	DD	01H
	DD	0aH
	DD	09H
	DD	03H
	DD	0eH
	DD	05H
	DD	00H
	DD	0cH
	DD	07H
	DD	01H
	DD	0fH
	DD	0dH
	DD	08H
	DD	0aH
	DD	03H
	DD	07H
	DD	04H
	DD	0cH
	DD	05H
	DD	06H
	DD	0bH
	DD	00H
	DD	0eH
	DD	09H
	DD	02H
	DD	07H
	DD	0bH
	DD	04H
	DD	01H
	DD	09H
	DD	0cH
	DD	0eH
	DD	02H
	DD	00H
	DD	06H
	DD	0aH
	DD	0dH
	DD	0fH
	DD	03H
	DD	05H
	DD	08H
	DD	02H
	DD	01H
	DD	0eH
	DD	07H
	DD	04H
	DD	0aH
	DD	08H
	DD	0dH
	DD	0fH
	DD	0cH
	DD	09H
	DD	00H
	DD	03H
	DD	05H
	DD	06H
	DD	0bH
_sp_key_loop DB	01H
	DB	02H
	DB	04H
	DB	08H
	DB	01H
	DB	02H
	DB	04H
	DB	08H
_double_bit_byte DD 01H
	DD	00H
	DD	00H
	DD	01H
	DD	00H
	DD	01H
	DD	01H
	DD	00H
	DD	00H
	DD	01H
	DD	01H
	DD	00H
	DD	01H
	DD	00H
	DD	00H
	DD	01H
	DD	00H
	DD	01H
	DD	01H
	DD	00H
	DD	01H
	DD	00H
	DD	00H
	DD	01H
	DD	01H
	DD	00H
	DD	00H
	DD	01H
	DD	00H
	DD	01H
	DD	01H
	DD	00H
	DD	00H
	DD	01H
	DD	01H
	DD	00H
	DD	01H
	DD	00H
	DD	00H
	DD	01H
	DD	01H
	DD	00H
	DD	00H
	DD	01H
	DD	00H
	DD	01H
	DD	01H
	DD	00H
	DD	01H
	DD	00H
	DD	00H
	DD	01H
	DD	00H
	DD	01H
	DD	01H
	DD	00H
	DD	00H
	DD	01H
	DD	01H
	DD	00H
	DD	01H
	DD	00H
	DD	00H
	DD	01H
	DD	00H
	DD	01H
	DD	01H
	DD	00H
	DD	01H
	DD	00H
	DD	00H
	DD	01H
	DD	01H
	DD	00H
	DD	00H
	DD	01H
	DD	00H
	DD	01H
	DD	01H
	DD	00H
	DD	01H
	DD	00H
	DD	00H
	DD	01H
	DD	00H
	DD	01H
	DD	01H
	DD	00H
	DD	00H
	DD	01H
	DD	01H
	DD	00H
	DD	01H
	DD	00H
	DD	00H
	DD	01H
	DD	01H
	DD	00H
	DD	00H
	DD	01H
	DD	00H
	DD	01H
	DD	01H
	DD	00H
	DD	00H
	DD	01H
	DD	01H
	DD	00H
	DD	01H
	DD	00H
	DD	00H
	DD	01H
	DD	00H
	DD	01H
	DD	01H
	DD	00H
	DD	01H
	DD	00H
	DD	00H
	DD	01H
	DD	01H
	DD	00H
	DD	00H
	DD	01H
	DD	00H
	DD	01H
	DD	01H
	DD	00H
	DD	00H
	DD	01H
	DD	01H
	DD	00H
	DD	01H
	DD	00H
	DD	00H
	DD	01H
	DD	01H
	DD	00H
	DD	00H
	DD	01H
	DD	00H
	DD	01H
	DD	01H
	DD	00H
	DD	01H
	DD	00H
	DD	00H
	DD	01H
	DD	00H
	DD	01H
	DD	01H
	DD	00H
	DD	00H
	DD	01H
	DD	01H
	DD	00H
	DD	01H
	DD	00H
	DD	00H
	DD	01H
	DD	01H
	DD	00H
	DD	00H
	DD	01H
	DD	00H
	DD	01H
	DD	01H
	DD	00H
	DD	00H
	DD	01H
	DD	01H
	DD	00H
	DD	01H
	DD	00H
	DD	00H
	DD	01H
	DD	00H
	DD	01H
	DD	01H
	DD	00H
	DD	01H
	DD	00H
	DD	00H
	DD	01H
	DD	01H
	DD	00H
	DD	00H
	DD	01H
	DD	00H
	DD	01H
	DD	01H
	DD	00H
	DD	01H
	DD	00H
	DD	00H
	DD	01H
	DD	00H
	DD	01H
	DD	01H
	DD	00H
	DD	00H
	DD	01H
	DD	01H
	DD	00H
	DD	01H
	DD	00H
	DD	00H
	DD	01H
	DD	00H
	DD	01H
	DD	01H
	DD	00H
	DD	01H
	DD	00H
	DD	00H
	DD	01H
	DD	01H
	DD	00H
	DD	00H
	DD	01H
	DD	00H
	DD	01H
	DD	01H
	DD	00H
	DD	00H
	DD	01H
	DD	01H
	DD	00H
	DD	01H
	DD	00H
	DD	00H
	DD	01H
	DD	01H
	DD	00H
	DD	00H
	DD	01H
	DD	00H
	DD	01H
	DD	01H
	DD	00H
	DD	01H
	DD	00H
	DD	00H
	DD	01H
	DD	00H
	DD	01H
	DD	01H
	DD	00H
	DD	00H
	DD	01H
	DD	01H
	DD	00H
	DD	01H
	DD	00H
	DD	00H
	DD	01H
CONST	ENDS
PUBLIC	_IsDoubleBitByByte
EXTRN	__RTC_Shutdown:PROC
EXTRN	__RTC_InitBase:PROC
;	COMDAT rtc$TMZ
; File d:\windows\belial\crypt\des.c
rtc$TMZ	SEGMENT
__RTC_Shutdown.rtc$TMZ DD FLAT:__RTC_Shutdown
rtc$TMZ	ENDS
;	COMDAT rtc$IMZ
rtc$IMZ	SEGMENT
__RTC_InitBase.rtc$IMZ DD FLAT:__RTC_InitBase
; Function compile flags: /Odtp /RTCsu /ZI
rtc$IMZ	ENDS
;	COMDAT _IsDoubleBitByByte
_TEXT	SEGMENT
_b$ = 8							; size = 1
_IsDoubleBitByByte PROC					; COMDAT

; 303  : {

  00000	55		 push	 ebp
  00001	8b ec		 mov	 ebp, esp
  00003	81 ec c0 00 00
	00		 sub	 esp, 192		; 000000c0H
  00009	53		 push	 ebx
  0000a	56		 push	 esi
  0000b	57		 push	 edi
  0000c	8d bd 40 ff ff
	ff		 lea	 edi, DWORD PTR [ebp-192]
  00012	b9 30 00 00 00	 mov	 ecx, 48			; 00000030H
  00017	b8 cc cc cc cc	 mov	 eax, -858993460		; ccccccccH
  0001c	f3 ab		 rep stosd

; 304  : 	return double_bit_byte[b];

  0001e	0f b6 45 08	 movzx	 eax, BYTE PTR _b$[ebp]
  00022	8b 04 85 00 00
	00 00		 mov	 eax, DWORD PTR _double_bit_byte[eax*4]

; 305  : }

  00029	5f		 pop	 edi
  0002a	5e		 pop	 esi
  0002b	5b		 pop	 ebx
  0002c	8b e5		 mov	 esp, ebp
  0002e	5d		 pop	 ebp
  0002f	c3		 ret	 0
_IsDoubleBitByByte ENDP
_TEXT	ENDS
PUBLIC	_IsDoubleBitByInt
EXTRN	__RTC_CheckEsp:PROC
; Function compile flags: /Odtp /RTCsu /ZI
;	COMDAT _IsDoubleBitByInt
_TEXT	SEGMENT
_cnt$ = -32						; size = 4
_pByteNum$ = -20					; size = 4
_pNum$ = -8						; size = 4
_n$ = 8							; size = 4
_IsDoubleBitByInt PROC					; COMDAT

; 308  : {

  00000	55		 push	 ebp
  00001	8b ec		 mov	 ebp, esp
  00003	81 ec e4 00 00
	00		 sub	 esp, 228		; 000000e4H
  00009	53		 push	 ebx
  0000a	56		 push	 esi
  0000b	57		 push	 edi
  0000c	8d bd 1c ff ff
	ff		 lea	 edi, DWORD PTR [ebp-228]
  00012	b9 39 00 00 00	 mov	 ecx, 57			; 00000039H
  00017	b8 cc cc cc cc	 mov	 eax, -858993460		; ccccccccH
  0001c	f3 ab		 rep stosd

; 309  : 	int* pNum = &n;

  0001e	8d 45 08	 lea	 eax, DWORD PTR _n$[ebp]
  00021	89 45 f8	 mov	 DWORD PTR _pNum$[ebp], eax

; 310  : 	PBYTE pByteNum = (PBYTE)pNum;

  00024	8b 45 f8	 mov	 eax, DWORD PTR _pNum$[ebp]
  00027	89 45 ec	 mov	 DWORD PTR _pByteNum$[ebp], eax

; 311  : 	int cnt = 0;

  0002a	c7 45 e0 00 00
	00 00		 mov	 DWORD PTR _cnt$[ebp], 0

; 312  : 	//偶数+2   奇数+1
; 313  : 	cnt += (IsDoubleBitByByte(pByteNum[0]) ? 2 : 1);

  00031	8b 45 ec	 mov	 eax, DWORD PTR _pByteNum$[ebp]
  00034	0f b6 08	 movzx	 ecx, BYTE PTR [eax]
  00037	51		 push	 ecx
  00038	e8 00 00 00 00	 call	 _IsDoubleBitByByte
  0003d	83 c4 04	 add	 esp, 4
  00040	f7 d8		 neg	 eax
  00042	1b c0		 sbb	 eax, eax
  00044	f7 d8		 neg	 eax
  00046	83 c0 01	 add	 eax, 1
  00049	03 45 e0	 add	 eax, DWORD PTR _cnt$[ebp]
  0004c	89 45 e0	 mov	 DWORD PTR _cnt$[ebp], eax

; 314  : 	cnt += (IsDoubleBitByByte(pByteNum[1]) ? 2 : 1);

  0004f	8b 45 ec	 mov	 eax, DWORD PTR _pByteNum$[ebp]
  00052	0f b6 48 01	 movzx	 ecx, BYTE PTR [eax+1]
  00056	51		 push	 ecx
  00057	e8 00 00 00 00	 call	 _IsDoubleBitByByte
  0005c	83 c4 04	 add	 esp, 4
  0005f	f7 d8		 neg	 eax
  00061	1b c0		 sbb	 eax, eax
  00063	f7 d8		 neg	 eax
  00065	83 c0 01	 add	 eax, 1
  00068	03 45 e0	 add	 eax, DWORD PTR _cnt$[ebp]
  0006b	89 45 e0	 mov	 DWORD PTR _cnt$[ebp], eax

; 315  : 	cnt += (IsDoubleBitByByte(pByteNum[2]) ? 2 : 1);

  0006e	8b 45 ec	 mov	 eax, DWORD PTR _pByteNum$[ebp]
  00071	0f b6 48 02	 movzx	 ecx, BYTE PTR [eax+2]
  00075	51		 push	 ecx
  00076	e8 00 00 00 00	 call	 _IsDoubleBitByByte
  0007b	83 c4 04	 add	 esp, 4
  0007e	f7 d8		 neg	 eax
  00080	1b c0		 sbb	 eax, eax
  00082	f7 d8		 neg	 eax
  00084	83 c0 01	 add	 eax, 1
  00087	03 45 e0	 add	 eax, DWORD PTR _cnt$[ebp]
  0008a	89 45 e0	 mov	 DWORD PTR _cnt$[ebp], eax

; 316  : 	cnt += (IsDoubleBitByByte(pByteNum[3]) ? 2 : 1);

  0008d	8b 45 ec	 mov	 eax, DWORD PTR _pByteNum$[ebp]
  00090	0f b6 48 03	 movzx	 ecx, BYTE PTR [eax+3]
  00094	51		 push	 ecx
  00095	e8 00 00 00 00	 call	 _IsDoubleBitByByte
  0009a	83 c4 04	 add	 esp, 4
  0009d	f7 d8		 neg	 eax
  0009f	1b c0		 sbb	 eax, eax
  000a1	f7 d8		 neg	 eax
  000a3	83 c0 01	 add	 eax, 1
  000a6	03 45 e0	 add	 eax, DWORD PTR _cnt$[ebp]
  000a9	89 45 e0	 mov	 DWORD PTR _cnt$[ebp], eax

; 317  : 	return (BOOL)(cnt % 2);

  000ac	8b 45 e0	 mov	 eax, DWORD PTR _cnt$[ebp]
  000af	25 01 00 00 80	 and	 eax, -2147483647	; 80000001H
  000b4	79 05		 jns	 SHORT $LN3@IsDoubleBi
  000b6	48		 dec	 eax
  000b7	83 c8 fe	 or	 eax, -2			; fffffffeH
  000ba	40		 inc	 eax
$LN3@IsDoubleBi:

; 318  : }

  000bb	5f		 pop	 edi
  000bc	5e		 pop	 esi
  000bd	5b		 pop	 ebx
  000be	81 c4 e4 00 00
	00		 add	 esp, 228		; 000000e4H
  000c4	3b ec		 cmp	 ebp, esp
  000c6	e8 00 00 00 00	 call	 __RTC_CheckEsp
  000cb	8b e5		 mov	 esp, ebp
  000cd	5d		 pop	 ebp
  000ce	c3		 ret	 0
_IsDoubleBitByInt ENDP
_TEXT	ENDS
PUBLIC	_InvBitSwap
EXTRN	__allshl:PROC
EXTRN	__allshr:PROC
; Function compile flags: /Odtp /RTCsu /ZI
;	COMDAT _InvBitSwap
_TEXT	SEGMENT
_nv$ = -40						; size = 8
_tmp$ = -24						; size = 8
_i$ = -8						; size = 4
_num$ = 8						; size = 8
_pSwapTable$ = 16					; size = 4
_len$ = 20						; size = 4
_InvBitSwap PROC					; COMDAT

; 336  : {

  00000	55		 push	 ebp
  00001	8b ec		 mov	 ebp, esp
  00003	81 ec ec 00 00
	00		 sub	 esp, 236		; 000000ecH
  00009	53		 push	 ebx
  0000a	56		 push	 esi
  0000b	57		 push	 edi
  0000c	8d bd 14 ff ff
	ff		 lea	 edi, DWORD PTR [ebp-236]
  00012	b9 3b 00 00 00	 mov	 ecx, 59			; 0000003bH
  00017	b8 cc cc cc cc	 mov	 eax, -858993460		; ccccccccH
  0001c	f3 ab		 rep stosd

; 337  : 	int i;
; 338  : 	INT64 tmp;
; 339  : 	INT64 nv = 0;

  0001e	c7 45 d8 00 00
	00 00		 mov	 DWORD PTR _nv$[ebp], 0
  00025	c7 45 dc 00 00
	00 00		 mov	 DWORD PTR _nv$[ebp+4], 0

; 340  : 	for (i = 0; i < len; i++)

  0002c	c7 45 f8 00 00
	00 00		 mov	 DWORD PTR _i$[ebp], 0
  00033	eb 09		 jmp	 SHORT $LN3@InvBitSwap
$LN2@InvBitSwap:
  00035	8b 45 f8	 mov	 eax, DWORD PTR _i$[ebp]
  00038	83 c0 01	 add	 eax, 1
  0003b	89 45 f8	 mov	 DWORD PTR _i$[ebp], eax
$LN3@InvBitSwap:
  0003e	8b 45 f8	 mov	 eax, DWORD PTR _i$[ebp]
  00041	3b 45 14	 cmp	 eax, DWORD PTR _len$[ebp]
  00044	7d 60		 jge	 SHORT $LN1@InvBitSwap

; 341  : 	{
; 342  : 		tmp = num >> (64 - 1 - i);

  00046	b9 3f 00 00 00	 mov	 ecx, 63			; 0000003fH
  0004b	2b 4d f8	 sub	 ecx, DWORD PTR _i$[ebp]
  0004e	8b 45 08	 mov	 eax, DWORD PTR _num$[ebp]
  00051	8b 55 0c	 mov	 edx, DWORD PTR _num$[ebp+4]
  00054	e8 00 00 00 00	 call	 __allshr
  00059	89 45 e8	 mov	 DWORD PTR _tmp$[ebp], eax
  0005c	89 55 ec	 mov	 DWORD PTR _tmp$[ebp+4], edx

; 343  : 		tmp &= 0x1;

  0005f	8b 45 e8	 mov	 eax, DWORD PTR _tmp$[ebp]
  00062	83 e0 01	 and	 eax, 1
  00065	8b 4d ec	 mov	 ecx, DWORD PTR _tmp$[ebp+4]
  00068	83 e1 00	 and	 ecx, 0
  0006b	89 45 e8	 mov	 DWORD PTR _tmp$[ebp], eax
  0006e	89 4d ec	 mov	 DWORD PTR _tmp$[ebp+4], ecx

; 344  : 		tmp <<= (64 - *(pSwapTable+i));

  00071	8b 45 f8	 mov	 eax, DWORD PTR _i$[ebp]
  00074	8b 4d 10	 mov	 ecx, DWORD PTR _pSwapTable$[ebp]
  00077	be 40 00 00 00	 mov	 esi, 64			; 00000040H
  0007c	2b 34 81	 sub	 esi, DWORD PTR [ecx+eax*4]
  0007f	8b 45 e8	 mov	 eax, DWORD PTR _tmp$[ebp]
  00082	8b 55 ec	 mov	 edx, DWORD PTR _tmp$[ebp+4]
  00085	8b ce		 mov	 ecx, esi
  00087	e8 00 00 00 00	 call	 __allshl
  0008c	89 45 e8	 mov	 DWORD PTR _tmp$[ebp], eax
  0008f	89 55 ec	 mov	 DWORD PTR _tmp$[ebp+4], edx

; 345  : 		nv |= tmp;

  00092	8b 45 d8	 mov	 eax, DWORD PTR _nv$[ebp]
  00095	0b 45 e8	 or	 eax, DWORD PTR _tmp$[ebp]
  00098	8b 4d dc	 mov	 ecx, DWORD PTR _nv$[ebp+4]
  0009b	0b 4d ec	 or	 ecx, DWORD PTR _tmp$[ebp+4]
  0009e	89 45 d8	 mov	 DWORD PTR _nv$[ebp], eax
  000a1	89 4d dc	 mov	 DWORD PTR _nv$[ebp+4], ecx

; 346  : 	}

  000a4	eb 8f		 jmp	 SHORT $LN2@InvBitSwap
$LN1@InvBitSwap:

; 347  : 	return nv;

  000a6	8b 45 d8	 mov	 eax, DWORD PTR _nv$[ebp]
  000a9	8b 55 dc	 mov	 edx, DWORD PTR _nv$[ebp+4]

; 348  : }

  000ac	5f		 pop	 edi
  000ad	5e		 pop	 esi
  000ae	5b		 pop	 ebx
  000af	81 c4 ec 00 00
	00		 add	 esp, 236		; 000000ecH
  000b5	3b ec		 cmp	 ebp, esp
  000b7	e8 00 00 00 00	 call	 __RTC_CheckEsp
  000bc	8b e5		 mov	 esp, ebp
  000be	5d		 pop	 ebp
  000bf	c3		 ret	 0
_InvBitSwap ENDP
_TEXT	ENDS
PUBLIC	_ChooseKey
; Function compile flags: /Odtp /RTCsu /ZI
;	COMDAT _ChooseKey
_TEXT	SEGMENT
_tmp$ = -52						; size = 8
_c$ = -33						; size = 1
_key$ = -24						; size = 8
_i$ = -8						; size = 4
_cKey$ = 8						; size = 4
_ChooseKey PROC						; COMDAT

; 542  : {

  00000	55		 push	 ebp
  00001	8b ec		 mov	 ebp, esp
  00003	81 ec f8 00 00
	00		 sub	 esp, 248		; 000000f8H
  00009	53		 push	 ebx
  0000a	56		 push	 esi
  0000b	57		 push	 edi
  0000c	8d bd 08 ff ff
	ff		 lea	 edi, DWORD PTR [ebp-248]
  00012	b9 3e 00 00 00	 mov	 ecx, 62			; 0000003eH
  00017	b8 cc cc cc cc	 mov	 eax, -858993460		; ccccccccH
  0001c	f3 ab		 rep stosd

; 543  : 	int i;
; 544  : 	INT64 key = 0;

  0001e	c7 45 e8 00 00
	00 00		 mov	 DWORD PTR _key$[ebp], 0
  00025	c7 45 ec 00 00
	00 00		 mov	 DWORD PTR _key$[ebp+4], 0

; 545  : 	unsigned char c = 0;

  0002c	c6 45 df 00	 mov	 BYTE PTR _c$[ebp], 0

; 546  : 	INT64 tmp = *((INT64*)cKey);

  00030	8b 45 08	 mov	 eax, DWORD PTR _cKey$[ebp]
  00033	8b 08		 mov	 ecx, DWORD PTR [eax]
  00035	89 4d cc	 mov	 DWORD PTR _tmp$[ebp], ecx
  00038	8b 50 04	 mov	 edx, DWORD PTR [eax+4]
  0003b	89 55 d0	 mov	 DWORD PTR _tmp$[ebp+4], edx

; 547  : 	for (i=0; i<7; i++)

  0003e	c7 45 f8 00 00
	00 00		 mov	 DWORD PTR _i$[ebp], 0
  00045	eb 09		 jmp	 SHORT $LN5@ChooseKey
$LN4@ChooseKey:
  00047	8b 45 f8	 mov	 eax, DWORD PTR _i$[ebp]
  0004a	83 c0 01	 add	 eax, 1
  0004d	89 45 f8	 mov	 DWORD PTR _i$[ebp], eax
$LN5@ChooseKey:
  00050	83 7d f8 07	 cmp	 DWORD PTR _i$[ebp], 7
  00054	7d 75		 jge	 SHORT $LN3@ChooseKey

; 548  : 	{
; 549  : 		key <<= 8;

  00056	8b 45 e8	 mov	 eax, DWORD PTR _key$[ebp]
  00059	8b 55 ec	 mov	 edx, DWORD PTR _key$[ebp+4]
  0005c	b1 08		 mov	 cl, 8
  0005e	e8 00 00 00 00	 call	 __allshl
  00063	89 45 e8	 mov	 DWORD PTR _key$[ebp], eax
  00066	89 55 ec	 mov	 DWORD PTR _key$[ebp+4], edx

; 550  : 		//这表示是偶数位，应该加1
; 551  : 		c = (tmp >> (7- i - 1) * 7) & 0x7f;//移位

  00069	b9 07 00 00 00	 mov	 ecx, 7
  0006e	2b 4d f8	 sub	 ecx, DWORD PTR _i$[ebp]
  00071	83 e9 01	 sub	 ecx, 1
  00074	6b c9 07	 imul	 ecx, 7
  00077	8b 45 cc	 mov	 eax, DWORD PTR _tmp$[ebp]
  0007a	8b 55 d0	 mov	 edx, DWORD PTR _tmp$[ebp+4]
  0007d	e8 00 00 00 00	 call	 __allshr
  00082	83 e0 7f	 and	 eax, 127		; 0000007fH
  00085	83 e2 00	 and	 edx, 0
  00088	88 45 df	 mov	 BYTE PTR _c$[ebp], al

; 552  : 		if (double_bit_byte[c])

  0008b	0f b6 45 df	 movzx	 eax, BYTE PTR _c$[ebp]
  0008f	83 3c 85 00 00
	00 00 00	 cmp	 DWORD PTR _double_bit_byte[eax*4], 0
  00097	74 14		 je	 SHORT $LN2@ChooseKey

; 553  : 		{
; 554  : 			c <<= 1;//左移一位

  00099	8a 45 df	 mov	 al, BYTE PTR _c$[ebp]
  0009c	d0 e0		 shl	 al, 1
  0009e	88 45 df	 mov	 BYTE PTR _c$[ebp], al

; 555  : 			c += 1;

  000a1	0f b6 45 df	 movzx	 eax, BYTE PTR _c$[ebp]
  000a5	83 c0 01	 add	 eax, 1
  000a8	88 45 df	 mov	 BYTE PTR _c$[ebp], al

; 556  : 		}
; 557  : 		else

  000ab	eb 08		 jmp	 SHORT $LN1@ChooseKey
$LN2@ChooseKey:

; 558  : 		{
; 559  : 			c <<= 1;//必须左移一位，变成8位

  000ad	8a 45 df	 mov	 al, BYTE PTR _c$[ebp]
  000b0	d0 e0		 shl	 al, 1
  000b2	88 45 df	 mov	 BYTE PTR _c$[ebp], al
$LN1@ChooseKey:

; 560  : 		}
; 561  : 		key |= c;

  000b5	0f b6 45 df	 movzx	 eax, BYTE PTR _c$[ebp]
  000b9	99		 cdq
  000ba	0b 45 e8	 or	 eax, DWORD PTR _key$[ebp]
  000bd	0b 55 ec	 or	 edx, DWORD PTR _key$[ebp+4]
  000c0	89 45 e8	 mov	 DWORD PTR _key$[ebp], eax
  000c3	89 55 ec	 mov	 DWORD PTR _key$[ebp+4], edx

; 562  : 	}

  000c6	e9 7c ff ff ff	 jmp	 $LN4@ChooseKey
$LN3@ChooseKey:

; 563  : 	return key;

  000cb	8b 45 e8	 mov	 eax, DWORD PTR _key$[ebp]
  000ce	8b 55 ec	 mov	 edx, DWORD PTR _key$[ebp+4]

; 564  : }

  000d1	5f		 pop	 edi
  000d2	5e		 pop	 esi
  000d3	5b		 pop	 ebx
  000d4	81 c4 f8 00 00
	00		 add	 esp, 248		; 000000f8H
  000da	3b ec		 cmp	 ebp, esp
  000dc	e8 00 00 00 00	 call	 __RTC_CheckEsp
  000e1	8b e5		 mov	 esp, ebp
  000e3	5d		 pop	 ebp
  000e4	c3		 ret	 0
_ChooseKey ENDP
_TEXT	ENDS
PUBLIC	__$ArrayPad$
PUBLIC	_DesInit
EXTRN	_memcpy:PROC
EXTRN	___security_cookie:DWORD
EXTRN	@__security_check_cookie@4:PROC
EXTRN	@_RTC_CheckStackVars@8:PROC
; Function compile flags: /Odtp /RTCsu /ZI
;	COMDAT _DesInit
_TEXT	SEGMENT
_cKey$ = -32						; size = 7
_key$ = -16						; size = 8
__$ArrayPad$ = -4					; size = 4
_context$ = 8						; size = 4
_DesInit PROC						; COMDAT

; 567  : {

  00000	55		 push	 ebp
  00001	8b ec		 mov	 ebp, esp
  00003	81 ec e4 00 00
	00		 sub	 esp, 228		; 000000e4H
  00009	53		 push	 ebx
  0000a	56		 push	 esi
  0000b	57		 push	 edi
  0000c	8d bd 1c ff ff
	ff		 lea	 edi, DWORD PTR [ebp-228]
  00012	b9 39 00 00 00	 mov	 ecx, 57			; 00000039H
  00017	b8 cc cc cc cc	 mov	 eax, -858993460		; ccccccccH
  0001c	f3 ab		 rep stosd
  0001e	a1 00 00 00 00	 mov	 eax, DWORD PTR ___security_cookie
  00023	33 c5		 xor	 eax, ebp
  00025	89 45 fc	 mov	 DWORD PTR __$ArrayPad$[ebp], eax

; 568  : 	INT64 key = 0;

  00028	c7 45 f0 00 00
	00 00		 mov	 DWORD PTR _key$[ebp], 0
  0002f	c7 45 f4 00 00
	00 00		 mov	 DWORD PTR _key$[ebp+4], 0

; 569  : 	char cKey[7] = {0};

  00036	c6 45 e0 00	 mov	 BYTE PTR _cKey$[ebp], 0
  0003a	33 c0		 xor	 eax, eax
  0003c	89 45 e1	 mov	 DWORD PTR _cKey$[ebp+1], eax
  0003f	66 89 45 e5	 mov	 WORD PTR _cKey$[ebp+5], ax

; 570  : 	if (NULL != context)

  00043	83 7d 08 00	 cmp	 DWORD PTR _context$[ebp], 0
  00047	74 3b		 je	 SHORT $LN2@DesInit

; 571  : 	{
; 572  : 		//最多取7个字节
; 573  : 		memcpy(cKey,context->key, 7);

  00049	6a 07		 push	 7
  0004b	8b 45 08	 mov	 eax, DWORD PTR _context$[ebp]
  0004e	50		 push	 eax
  0004f	8d 4d e0	 lea	 ecx, DWORD PTR _cKey$[ebp]
  00052	51		 push	 ecx
  00053	e8 00 00 00 00	 call	 _memcpy
  00058	83 c4 0c	 add	 esp, 12			; 0000000cH

; 574  : 
; 575  : 		//获取KEY
; 576  : 		key = ChooseKey(cKey);

  0005b	8d 45 e0	 lea	 eax, DWORD PTR _cKey$[ebp]
  0005e	50		 push	 eax
  0005f	e8 00 00 00 00	 call	 _ChooseKey
  00064	83 c4 04	 add	 esp, 4
  00067	89 45 f0	 mov	 DWORD PTR _key$[ebp], eax
  0006a	89 55 f4	 mov	 DWORD PTR _key$[ebp+4], edx

; 577  : 
; 578  : 		//构建子密钥
; 579  : 		BuildSubKey(key,context->subkey);

  0006d	8b 45 08	 mov	 eax, DWORD PTR _context$[ebp]
  00070	83 c0 08	 add	 eax, 8
  00073	50		 push	 eax
  00074	8b 4d f4	 mov	 ecx, DWORD PTR _key$[ebp+4]
  00077	51		 push	 ecx
  00078	8b 55 f0	 mov	 edx, DWORD PTR _key$[ebp]
  0007b	52		 push	 edx
  0007c	e8 00 00 00 00	 call	 _BuildSubKey
  00081	83 c4 0c	 add	 esp, 12			; 0000000cH
$LN2@DesInit:

; 580  : 	}
; 581  : }

  00084	52		 push	 edx
  00085	8b cd		 mov	 ecx, ebp
  00087	50		 push	 eax
  00088	8d 15 00 00 00
	00		 lea	 edx, DWORD PTR $LN6@DesInit
  0008e	e8 00 00 00 00	 call	 @_RTC_CheckStackVars@8
  00093	58		 pop	 eax
  00094	5a		 pop	 edx
  00095	5f		 pop	 edi
  00096	5e		 pop	 esi
  00097	5b		 pop	 ebx
  00098	8b 4d fc	 mov	 ecx, DWORD PTR __$ArrayPad$[ebp]
  0009b	33 cd		 xor	 ecx, ebp
  0009d	e8 00 00 00 00	 call	 @__security_check_cookie@4
  000a2	81 c4 e4 00 00
	00		 add	 esp, 228		; 000000e4H
  000a8	3b ec		 cmp	 ebp, esp
  000aa	e8 00 00 00 00	 call	 __RTC_CheckEsp
  000af	8b e5		 mov	 esp, ebp
  000b1	5d		 pop	 ebp
  000b2	c3		 ret	 0
  000b3	90		 npad	 1
$LN6@DesInit:
  000b4	01 00 00 00	 DD	 1
  000b8	00 00 00 00	 DD	 $LN5@DesInit
$LN5@DesInit:
  000bc	e0 ff ff ff	 DD	 -32			; ffffffe0H
  000c0	07 00 00 00	 DD	 7
  000c4	00 00 00 00	 DD	 $LN4@DesInit
$LN4@DesInit:
  000c8	63		 DB	 99			; 00000063H
  000c9	4b		 DB	 75			; 0000004bH
  000ca	65		 DB	 101			; 00000065H
  000cb	79		 DB	 121			; 00000079H
  000cc	00		 DB	 0
_DesInit ENDP
; Function compile flags: /Odtp /RTCsu /ZI
_TEXT	ENDS
;	COMDAT _BuildSubKey
_TEXT	SEGMENT
_nkey$ = -76						; size = 8
_ret$ = -60						; size = 8
_i$ = -44						; size = 4
_tmp_bit$ = -32						; size = 4
_d$ = -20						; size = 4
_c$ = -8						; size = 4
_key$ = 8						; size = 8
_pSubKey$ = 16						; size = 4
_BuildSubKey PROC					; COMDAT

; 381  : {

  00000	55		 push	 ebp
  00001	8b ec		 mov	 ebp, esp
  00003	81 ec 10 01 00
	00		 sub	 esp, 272		; 00000110H
  00009	53		 push	 ebx
  0000a	56		 push	 esi
  0000b	57		 push	 edi
  0000c	8d bd f0 fe ff
	ff		 lea	 edi, DWORD PTR [ebp-272]
  00012	b9 44 00 00 00	 mov	 ecx, 68			; 00000044H
  00017	b8 cc cc cc cc	 mov	 eax, -858993460		; ccccccccH
  0001c	f3 ab		 rep stosd

; 382  : 	int c,d,tmp_bit;
; 383  : 	int i;
; 384  : 	INT64 ret;//保存结果
; 385  : 	//将64位转为56位密钥，去除奇偶校验位
; 386  : 	INT64 nkey = BitSwap(key,sp_key_pc1,ARRAY_LEN(sp_key_pc1));

  0001e	6a 38		 push	 56			; 00000038H
  00020	68 00 00 00 00	 push	 OFFSET _sp_key_pc1
  00025	8b 45 0c	 mov	 eax, DWORD PTR _key$[ebp+4]
  00028	50		 push	 eax
  00029	8b 4d 08	 mov	 ecx, DWORD PTR _key$[ebp]
  0002c	51		 push	 ecx
  0002d	e8 00 00 00 00	 call	 _BitSwap
  00032	83 c4 10	 add	 esp, 16			; 00000010H
  00035	89 45 b4	 mov	 DWORD PTR _nkey$[ebp], eax
  00038	89 55 b8	 mov	 DWORD PTR _nkey$[ebp+4], edx

; 387  : 	d = nkey &0x0fffffff;

  0003b	8b 45 b4	 mov	 eax, DWORD PTR _nkey$[ebp]
  0003e	25 ff ff ff 0f	 and	 eax, 268435455		; 0fffffffH
  00043	8b 4d b8	 mov	 ecx, DWORD PTR _nkey$[ebp+4]
  00046	83 e1 00	 and	 ecx, 0
  00049	89 45 ec	 mov	 DWORD PTR _d$[ebp], eax

; 388  : 	c = (nkey>>28)&0x0fffffff;

  0004c	8b 45 b4	 mov	 eax, DWORD PTR _nkey$[ebp]
  0004f	8b 55 b8	 mov	 edx, DWORD PTR _nkey$[ebp+4]
  00052	b1 1c		 mov	 cl, 28			; 0000001cH
  00054	e8 00 00 00 00	 call	 __allshr
  00059	25 ff ff ff 0f	 and	 eax, 268435455		; 0fffffffH
  0005e	83 e2 00	 and	 edx, 0
  00061	89 45 f8	 mov	 DWORD PTR _c$[ebp], eax

; 389  : 	for (i=0; i<16; i++)

  00064	c7 45 d4 00 00
	00 00		 mov	 DWORD PTR _i$[ebp], 0
  0006b	eb 09		 jmp	 SHORT $LN6@BuildSubKe
$LN5@BuildSubKe:
  0006d	8b 45 d4	 mov	 eax, DWORD PTR _i$[ebp]
  00070	83 c0 01	 add	 eax, 1
  00073	89 45 d4	 mov	 DWORD PTR _i$[ebp], eax
$LN6@BuildSubKe:
  00076	83 7d d4 10	 cmp	 DWORD PTR _i$[ebp], 16	; 00000010H
  0007a	0f 8d 42 01 00
	00		 jge	 $LN4@BuildSubKe

; 390  : 	{
; 391  : 		if (sp_key_shifts[i] == 1)

  00080	8b 45 d4	 mov	 eax, DWORD PTR _i$[ebp]
  00083	83 3c 85 00 00
	00 00 01	 cmp	 DWORD PTR _sp_key_shifts[eax*4], 1
  0008b	75 56		 jne	 SHORT $LN3@BuildSubKe

; 392  : 		{
; 393  : 			/*不能使用汇编的循环左移，TMD，只有28位有效位
; 394  : 			__asm
; 395  : 			{
; 396  : 			rol c,1;
; 397  : 			rol d,1;
; 398  : 			}
; 399  : 			*/
; 400  : 			tmp_bit =  c & 0x08000000;//第28位

  0008d	8b 45 f8	 mov	 eax, DWORD PTR _c$[ebp]
  00090	25 00 00 00 08	 and	 eax, 134217728		; 08000000H
  00095	89 45 e0	 mov	 DWORD PTR _tmp_bit$[ebp], eax

; 401  : 			c <<= 1;//左移1位

  00098	8b 45 f8	 mov	 eax, DWORD PTR _c$[ebp]
  0009b	d1 e0		 shl	 eax, 1
  0009d	89 45 f8	 mov	 DWORD PTR _c$[ebp], eax

; 402  : 			c &= 0x0fffffff;//将前面4位清0

  000a0	8b 45 f8	 mov	 eax, DWORD PTR _c$[ebp]
  000a3	25 ff ff ff 0f	 and	 eax, 268435455		; 0fffffffH
  000a8	89 45 f8	 mov	 DWORD PTR _c$[ebp], eax

; 403  : 			c |= (tmp_bit >> 27);//将第28位放置最后

  000ab	8b 45 e0	 mov	 eax, DWORD PTR _tmp_bit$[ebp]
  000ae	c1 f8 1b	 sar	 eax, 27			; 0000001bH
  000b1	0b 45 f8	 or	 eax, DWORD PTR _c$[ebp]
  000b4	89 45 f8	 mov	 DWORD PTR _c$[ebp], eax

; 404  : 
; 405  : 			tmp_bit =  d & 0x08000000;//第28位

  000b7	8b 45 ec	 mov	 eax, DWORD PTR _d$[ebp]
  000ba	25 00 00 00 08	 and	 eax, 134217728		; 08000000H
  000bf	89 45 e0	 mov	 DWORD PTR _tmp_bit$[ebp], eax

; 406  : 			d <<= 1;//左移1位

  000c2	8b 45 ec	 mov	 eax, DWORD PTR _d$[ebp]
  000c5	d1 e0		 shl	 eax, 1
  000c7	89 45 ec	 mov	 DWORD PTR _d$[ebp], eax

; 407  : 			d &= 0x0fffffff;//将前面4位清0

  000ca	8b 45 ec	 mov	 eax, DWORD PTR _d$[ebp]
  000cd	25 ff ff ff 0f	 and	 eax, 268435455		; 0fffffffH
  000d2	89 45 ec	 mov	 DWORD PTR _d$[ebp], eax

; 408  : 			d |= (tmp_bit >> 27);//将第28位放置最后

  000d5	8b 45 e0	 mov	 eax, DWORD PTR _tmp_bit$[ebp]
  000d8	c1 f8 1b	 sar	 eax, 27			; 0000001bH
  000db	0b 45 ec	 or	 eax, DWORD PTR _d$[ebp]
  000de	89 45 ec	 mov	 DWORD PTR _d$[ebp], eax
  000e1	eb 63		 jmp	 SHORT $LN2@BuildSubKe
$LN3@BuildSubKe:

; 409  : 		} 
; 410  : 		else if (sp_key_shifts[i] == 2)

  000e3	8b 45 d4	 mov	 eax, DWORD PTR _i$[ebp]
  000e6	83 3c 85 00 00
	00 00 02	 cmp	 DWORD PTR _sp_key_shifts[eax*4], 2
  000ee	75 56		 jne	 SHORT $LN2@BuildSubKe

; 411  : 		{
; 412  : 			/*不能使用汇编的循环左移，TMD，只有28位有效位
; 413  : 			__asm
; 414  : 			{
; 415  : 			rol c,2;
; 416  : 			rol d,2;
; 417  : 			}
; 418  : 			*/
; 419  : 			tmp_bit =  c & 0x0C000000;//第28,27位

  000f0	8b 45 f8	 mov	 eax, DWORD PTR _c$[ebp]
  000f3	25 00 00 00 0c	 and	 eax, 201326592		; 0c000000H
  000f8	89 45 e0	 mov	 DWORD PTR _tmp_bit$[ebp], eax

; 420  : 			c <<= 2;//左移2位

  000fb	8b 45 f8	 mov	 eax, DWORD PTR _c$[ebp]
  000fe	c1 e0 02	 shl	 eax, 2
  00101	89 45 f8	 mov	 DWORD PTR _c$[ebp], eax

; 421  : 			c &= 0x0fffffff;//将前面4位清0

  00104	8b 45 f8	 mov	 eax, DWORD PTR _c$[ebp]
  00107	25 ff ff ff 0f	 and	 eax, 268435455		; 0fffffffH
  0010c	89 45 f8	 mov	 DWORD PTR _c$[ebp], eax

; 422  : 			c |= (tmp_bit >> 26);//将第28位放置最后

  0010f	8b 45 e0	 mov	 eax, DWORD PTR _tmp_bit$[ebp]
  00112	c1 f8 1a	 sar	 eax, 26			; 0000001aH
  00115	0b 45 f8	 or	 eax, DWORD PTR _c$[ebp]
  00118	89 45 f8	 mov	 DWORD PTR _c$[ebp], eax

; 423  : 
; 424  : 			tmp_bit =  d & 0x0C000000;//第28,27位

  0011b	8b 45 ec	 mov	 eax, DWORD PTR _d$[ebp]
  0011e	25 00 00 00 0c	 and	 eax, 201326592		; 0c000000H
  00123	89 45 e0	 mov	 DWORD PTR _tmp_bit$[ebp], eax

; 425  : 			d <<= 2;//左移2位

  00126	8b 45 ec	 mov	 eax, DWORD PTR _d$[ebp]
  00129	c1 e0 02	 shl	 eax, 2
  0012c	89 45 ec	 mov	 DWORD PTR _d$[ebp], eax

; 426  : 			d &= 0x0fffffff;//将前面4位清0

  0012f	8b 45 ec	 mov	 eax, DWORD PTR _d$[ebp]
  00132	25 ff ff ff 0f	 and	 eax, 268435455		; 0fffffffH
  00137	89 45 ec	 mov	 DWORD PTR _d$[ebp], eax

; 427  : 			d |= (tmp_bit >> 26);//将第28位放置最后

  0013a	8b 45 e0	 mov	 eax, DWORD PTR _tmp_bit$[ebp]
  0013d	c1 f8 1a	 sar	 eax, 26			; 0000001aH
  00140	0b 45 ec	 or	 eax, DWORD PTR _d$[ebp]
  00143	89 45 ec	 mov	 DWORD PTR _d$[ebp], eax
$LN2@BuildSubKe:

; 428  : 		}
; 429  : 		ret = 0;

  00146	c7 45 c4 00 00
	00 00		 mov	 DWORD PTR _ret$[ebp], 0
  0014d	c7 45 c8 00 00
	00 00		 mov	 DWORD PTR _ret$[ebp+4], 0

; 430  : 		ret = c & 0x0fffffff;

  00154	8b 45 f8	 mov	 eax, DWORD PTR _c$[ebp]
  00157	25 ff ff ff 0f	 and	 eax, 268435455		; 0fffffffH
  0015c	99		 cdq
  0015d	89 45 c4	 mov	 DWORD PTR _ret$[ebp], eax
  00160	89 55 c8	 mov	 DWORD PTR _ret$[ebp+4], edx

; 431  : 		ret <<= 28;

  00163	8b 45 c4	 mov	 eax, DWORD PTR _ret$[ebp]
  00166	8b 55 c8	 mov	 edx, DWORD PTR _ret$[ebp+4]
  00169	b1 1c		 mov	 cl, 28			; 0000001cH
  0016b	e8 00 00 00 00	 call	 __allshl
  00170	89 45 c4	 mov	 DWORD PTR _ret$[ebp], eax
  00173	89 55 c8	 mov	 DWORD PTR _ret$[ebp+4], edx

; 432  : 		ret |= d;

  00176	8b 45 ec	 mov	 eax, DWORD PTR _d$[ebp]
  00179	99		 cdq
  0017a	0b 45 c4	 or	 eax, DWORD PTR _ret$[ebp]
  0017d	0b 55 c8	 or	 edx, DWORD PTR _ret$[ebp+4]
  00180	89 45 c4	 mov	 DWORD PTR _ret$[ebp], eax
  00183	89 55 c8	 mov	 DWORD PTR _ret$[ebp+4], edx

; 433  : 		ret <<= 8;//左移8位，使得位数左对齐

  00186	8b 45 c4	 mov	 eax, DWORD PTR _ret$[ebp]
  00189	8b 55 c8	 mov	 edx, DWORD PTR _ret$[ebp+4]
  0018c	b1 08		 mov	 cl, 8
  0018e	e8 00 00 00 00	 call	 __allshl
  00193	89 45 c4	 mov	 DWORD PTR _ret$[ebp], eax
  00196	89 55 c8	 mov	 DWORD PTR _ret$[ebp+4], edx

; 434  : 		*(pSubKey + i) = BitSwap(ret,sp_key_pc2,ARRAY_LEN(sp_key_pc2));

  00199	6a 30		 push	 48			; 00000030H
  0019b	68 00 00 00 00	 push	 OFFSET _sp_key_pc2
  001a0	8b 45 c8	 mov	 eax, DWORD PTR _ret$[ebp+4]
  001a3	50		 push	 eax
  001a4	8b 4d c4	 mov	 ecx, DWORD PTR _ret$[ebp]
  001a7	51		 push	 ecx
  001a8	e8 00 00 00 00	 call	 _BitSwap
  001ad	83 c4 10	 add	 esp, 16			; 00000010H
  001b0	8b 4d d4	 mov	 ecx, DWORD PTR _i$[ebp]
  001b3	8b 75 10	 mov	 esi, DWORD PTR _pSubKey$[ebp]
  001b6	89 04 ce	 mov	 DWORD PTR [esi+ecx*8], eax
  001b9	89 54 ce 04	 mov	 DWORD PTR [esi+ecx*8+4], edx

; 435  : 	}

  001bd	e9 ab fe ff ff	 jmp	 $LN5@BuildSubKe
$LN4@BuildSubKe:

; 436  : 	return pSubKey;

  001c2	8b 45 10	 mov	 eax, DWORD PTR _pSubKey$[ebp]

; 437  : }

  001c5	5f		 pop	 edi
  001c6	5e		 pop	 esi
  001c7	5b		 pop	 ebx
  001c8	81 c4 10 01 00
	00		 add	 esp, 272		; 00000110H
  001ce	3b ec		 cmp	 ebp, esp
  001d0	e8 00 00 00 00	 call	 __RTC_CheckEsp
  001d5	8b e5		 mov	 esp, ebp
  001d7	5d		 pop	 ebp
  001d8	c3		 ret	 0
_BuildSubKey ENDP
; Function compile flags: /Odtp /RTCsu /ZI
_TEXT	ENDS
;	COMDAT _BitSwap
_TEXT	SEGMENT
_nv$ = -24						; size = 8
_i$ = -8						; size = 4
_num$ = 8						; size = 8
_pSwapTable$ = 16					; size = 4
_len$ = 20						; size = 4
_BitSwap PROC						; COMDAT

; 323  : {

  00000	55		 push	 ebp
  00001	8b ec		 mov	 ebp, esp
  00003	81 ec dc 00 00
	00		 sub	 esp, 220		; 000000dcH
  00009	53		 push	 ebx
  0000a	56		 push	 esi
  0000b	57		 push	 edi
  0000c	8d bd 24 ff ff
	ff		 lea	 edi, DWORD PTR [ebp-220]
  00012	b9 37 00 00 00	 mov	 ecx, 55			; 00000037H
  00017	b8 cc cc cc cc	 mov	 eax, -858993460		; ccccccccH
  0001c	f3 ab		 rep stosd

; 324  : 	int i;
; 325  : 	INT64 nv = 0;

  0001e	c7 45 e8 00 00
	00 00		 mov	 DWORD PTR _nv$[ebp], 0
  00025	c7 45 ec 00 00
	00 00		 mov	 DWORD PTR _nv$[ebp+4], 0

; 326  : 	for (i = 0; i < len; i++)

  0002c	c7 45 f8 00 00
	00 00		 mov	 DWORD PTR _i$[ebp], 0
  00033	eb 09		 jmp	 SHORT $LN3@BitSwap
$LN2@BitSwap:
  00035	8b 45 f8	 mov	 eax, DWORD PTR _i$[ebp]
  00038	83 c0 01	 add	 eax, 1
  0003b	89 45 f8	 mov	 DWORD PTR _i$[ebp], eax
$LN3@BitSwap:
  0003e	8b 45 f8	 mov	 eax, DWORD PTR _i$[ebp]
  00041	3b 45 14	 cmp	 eax, DWORD PTR _len$[ebp]
  00044	7d 42		 jge	 SHORT $LN1@BitSwap

; 327  : 	{
; 328  : 		nv <<= 1;

  00046	8b 45 e8	 mov	 eax, DWORD PTR _nv$[ebp]
  00049	8b 55 ec	 mov	 edx, DWORD PTR _nv$[ebp+4]
  0004c	b1 01		 mov	 cl, 1
  0004e	e8 00 00 00 00	 call	 __allshl
  00053	89 45 e8	 mov	 DWORD PTR _nv$[ebp], eax
  00056	89 55 ec	 mov	 DWORD PTR _nv$[ebp+4], edx

; 329  : 		nv |= ((num >> (64 - *(pSwapTable+i))) & 0x1);//位数1-64是从左到右

  00059	8b 45 f8	 mov	 eax, DWORD PTR _i$[ebp]
  0005c	8b 4d 10	 mov	 ecx, DWORD PTR _pSwapTable$[ebp]
  0005f	be 40 00 00 00	 mov	 esi, 64			; 00000040H
  00064	2b 34 81	 sub	 esi, DWORD PTR [ecx+eax*4]
  00067	8b 45 08	 mov	 eax, DWORD PTR _num$[ebp]
  0006a	8b 55 0c	 mov	 edx, DWORD PTR _num$[ebp+4]
  0006d	8b ce		 mov	 ecx, esi
  0006f	e8 00 00 00 00	 call	 __allshr
  00074	83 e0 01	 and	 eax, 1
  00077	83 e2 00	 and	 edx, 0
  0007a	0b 45 e8	 or	 eax, DWORD PTR _nv$[ebp]
  0007d	0b 55 ec	 or	 edx, DWORD PTR _nv$[ebp+4]
  00080	89 45 e8	 mov	 DWORD PTR _nv$[ebp], eax
  00083	89 55 ec	 mov	 DWORD PTR _nv$[ebp+4], edx

; 330  : 	}

  00086	eb ad		 jmp	 SHORT $LN2@BitSwap
$LN1@BitSwap:

; 331  : 	return nv;

  00088	8b 45 e8	 mov	 eax, DWORD PTR _nv$[ebp]
  0008b	8b 55 ec	 mov	 edx, DWORD PTR _nv$[ebp+4]

; 332  : }

  0008e	5f		 pop	 edi
  0008f	5e		 pop	 esi
  00090	5b		 pop	 ebx
  00091	81 c4 dc 00 00
	00		 add	 esp, 220		; 000000dcH
  00097	3b ec		 cmp	 ebp, esp
  00099	e8 00 00 00 00	 call	 __RTC_CheckEsp
  0009e	8b e5		 mov	 esp, ebp
  000a0	5d		 pop	 ebp
  000a1	c3		 ret	 0
_BitSwap ENDP
_TEXT	ENDS
PUBLIC	_DesEncrypt
EXTRN	_memset:PROC
; Function compile flags: /Odtp /RTCsu /ZI
;	COMDAT _DesEncrypt
_TEXT	SEGMENT
tv69 = -276						; size = 4
_pDesOut$ = -76						; size = 4
_cnv$ = -64						; size = 8
_nv$ = -48						; size = 8
_i$ = -32						; size = 4
_loop$ = -20						; size = 4
_slen$ = -8						; size = 4
_context$ = 8						; size = 4
_pInput$ = 12						; size = 4
_srcLen$ = 16						; size = 4
_pOutput$ = 20						; size = 4
_DesEncrypt PROC					; COMDAT

; 587  : {

  00000	55		 push	 ebp
  00001	8b ec		 mov	 ebp, esp
  00003	81 ec 14 01 00
	00		 sub	 esp, 276		; 00000114H
  00009	53		 push	 ebx
  0000a	56		 push	 esi
  0000b	57		 push	 edi
  0000c	8d bd ec fe ff
	ff		 lea	 edi, DWORD PTR [ebp-276]
  00012	b9 45 00 00 00	 mov	 ecx, 69			; 00000045H
  00017	b8 cc cc cc cc	 mov	 eax, -858993460		; ccccccccH
  0001c	f3 ab		 rep stosd

; 588  : 	unsigned int slen,loop,i;
; 589  : 	INT64 nv = 0,cnv=0;

  0001e	c7 45 d0 00 00
	00 00		 mov	 DWORD PTR _nv$[ebp], 0
  00025	c7 45 d4 00 00
	00 00		 mov	 DWORD PTR _nv$[ebp+4], 0
  0002c	c7 45 c0 00 00
	00 00		 mov	 DWORD PTR _cnv$[ebp], 0
  00033	c7 45 c4 00 00
	00 00		 mov	 DWORD PTR _cnv$[ebp+4], 0

; 590  : 	INT64* pDesOut = (INT64*)pOutput;//结果

  0003a	8b 45 14	 mov	 eax, DWORD PTR _pOutput$[ebp]
  0003d	89 45 b4	 mov	 DWORD PTR _pDesOut$[ebp], eax

; 591  : 	slen = CHECKDIV8(srcLen);

  00040	8b 45 10	 mov	 eax, DWORD PTR _srcLen$[ebp]
  00043	83 e0 07	 and	 eax, 7
  00046	74 16		 je	 SHORT $LN9@DesEncrypt
  00048	8b 4d 10	 mov	 ecx, DWORD PTR _srcLen$[ebp]
  0004b	83 c1 08	 add	 ecx, 8
  0004e	8b 55 10	 mov	 edx, DWORD PTR _srcLen$[ebp]
  00051	83 e2 07	 and	 edx, 7
  00054	2b ca		 sub	 ecx, edx
  00056	89 8d ec fe ff
	ff		 mov	 DWORD PTR tv69[ebp], ecx
  0005c	eb 09		 jmp	 SHORT $LN10@DesEncrypt
$LN9@DesEncrypt:
  0005e	8b 45 10	 mov	 eax, DWORD PTR _srcLen$[ebp]
  00061	89 85 ec fe ff
	ff		 mov	 DWORD PTR tv69[ebp], eax
$LN10@DesEncrypt:
  00067	8b 8d ec fe ff
	ff		 mov	 ecx, DWORD PTR tv69[ebp]
  0006d	89 4d f8	 mov	 DWORD PTR _slen$[ebp], ecx

; 592  : 	memset(pOutput,0,slen);

  00070	8b 45 f8	 mov	 eax, DWORD PTR _slen$[ebp]
  00073	50		 push	 eax
  00074	6a 00		 push	 0
  00076	8b 4d 14	 mov	 ecx, DWORD PTR _pOutput$[ebp]
  00079	51		 push	 ecx
  0007a	e8 00 00 00 00	 call	 _memset
  0007f	83 c4 0c	 add	 esp, 12			; 0000000cH

; 593  : 	memcpy(pOutput,pInput,srcLen);//补0

  00082	8b 45 10	 mov	 eax, DWORD PTR _srcLen$[ebp]
  00085	50		 push	 eax
  00086	8b 4d 0c	 mov	 ecx, DWORD PTR _pInput$[ebp]
  00089	51		 push	 ecx
  0008a	8b 55 14	 mov	 edx, DWORD PTR _pOutput$[ebp]
  0008d	52		 push	 edx
  0008e	e8 00 00 00 00	 call	 _memcpy
  00093	83 c4 0c	 add	 esp, 12			; 0000000cH

; 594  : 	//key的处理
; 595  : 	//实际的key应该是56位7个字节，这里超过7个字节将被截断
; 596  : 	//没有7个字节也将补0
; 597  : 	//memcpy(cKey,pKey,(keyLen>7)?7:keyLen);//最多取7个字节
; 598  : 	//key = ChooseKey(cKey);//获取KEY
; 599  : 	loop = slen / 8;//获取循环次数

  00096	8b 45 f8	 mov	 eax, DWORD PTR _slen$[ebp]
  00099	c1 e8 03	 shr	 eax, 3
  0009c	89 45 ec	 mov	 DWORD PTR _loop$[ebp], eax

; 600  : 	//BuildSubKey(key,pSubKey);
; 601  : 	for(i=0; i<loop; i++)

  0009f	c7 45 e0 00 00
	00 00		 mov	 DWORD PTR _i$[ebp], 0
  000a6	eb 09		 jmp	 SHORT $LN6@DesEncrypt
$LN5@DesEncrypt:
  000a8	8b 45 e0	 mov	 eax, DWORD PTR _i$[ebp]
  000ab	83 c0 01	 add	 eax, 1
  000ae	89 45 e0	 mov	 DWORD PTR _i$[ebp], eax
$LN6@DesEncrypt:
  000b1	8b 45 e0	 mov	 eax, DWORD PTR _i$[ebp]
  000b4	3b 45 ec	 cmp	 eax, DWORD PTR _loop$[ebp]
  000b7	0f 83 b3 00 00
	00		 jae	 $LN7@DesEncrypt

; 602  : 	{
; 603  : 		nv = *(pDesOut + i);

  000bd	8b 45 e0	 mov	 eax, DWORD PTR _i$[ebp]
  000c0	8b 4d b4	 mov	 ecx, DWORD PTR _pDesOut$[ebp]
  000c3	8b 14 c1	 mov	 edx, DWORD PTR [ecx+eax*8]
  000c6	89 55 d0	 mov	 DWORD PTR _nv$[ebp], edx
  000c9	8b 44 c1 04	 mov	 eax, DWORD PTR [ecx+eax*8+4]
  000cd	89 45 d4	 mov	 DWORD PTR _nv$[ebp+4], eax

; 604  : 		nv = InitSwap(nv);

  000d0	8b 45 d4	 mov	 eax, DWORD PTR _nv$[ebp+4]
  000d3	50		 push	 eax
  000d4	8b 4d d0	 mov	 ecx, DWORD PTR _nv$[ebp]
  000d7	51		 push	 ecx
  000d8	e8 00 00 00 00	 call	 _InitSwap
  000dd	83 c4 08	 add	 esp, 8
  000e0	89 45 d0	 mov	 DWORD PTR _nv$[ebp], eax
  000e3	89 55 d4	 mov	 DWORD PTR _nv$[ebp+4], edx

; 605  : 		nv = Cliper(nv,context->subkey);

  000e6	8b 45 08	 mov	 eax, DWORD PTR _context$[ebp]
  000e9	83 c0 08	 add	 eax, 8
  000ec	50		 push	 eax
  000ed	8b 4d d4	 mov	 ecx, DWORD PTR _nv$[ebp+4]
  000f0	51		 push	 ecx
  000f1	8b 55 d0	 mov	 edx, DWORD PTR _nv$[ebp]
  000f4	52		 push	 edx
  000f5	e8 00 00 00 00	 call	 _Cliper
  000fa	83 c4 0c	 add	 esp, 12			; 0000000cH
  000fd	89 45 d0	 mov	 DWORD PTR _nv$[ebp], eax
  00100	89 55 d4	 mov	 DWORD PTR _nv$[ebp+4], edx

; 606  : 		nv = LastSwap(nv);

  00103	8b 45 d4	 mov	 eax, DWORD PTR _nv$[ebp+4]
  00106	50		 push	 eax
  00107	8b 4d d0	 mov	 ecx, DWORD PTR _nv$[ebp]
  0010a	51		 push	 ecx
  0010b	e8 00 00 00 00	 call	 _LastSwap
  00110	83 c4 08	 add	 esp, 8
  00113	89 45 d0	 mov	 DWORD PTR _nv$[ebp], eax
  00116	89 55 d4	 mov	 DWORD PTR _nv$[ebp+4], edx

; 607  : 		if (Des_Mode_ECB == context->mode)

  00119	8b 45 08	 mov	 eax, DWORD PTR _context$[ebp]
  0011c	83 b8 88 00 00
	00 00		 cmp	 DWORD PTR [eax+136], 0
  00123	75 15		 jne	 SHORT $LN3@DesEncrypt

; 608  : 		{
; 609  : 			*(pDesOut + i) = nv;

  00125	8b 45 e0	 mov	 eax, DWORD PTR _i$[ebp]
  00128	8b 4d b4	 mov	 ecx, DWORD PTR _pDesOut$[ebp]
  0012b	8b 55 d0	 mov	 edx, DWORD PTR _nv$[ebp]
  0012e	89 14 c1	 mov	 DWORD PTR [ecx+eax*8], edx
  00131	8b 55 d4	 mov	 edx, DWORD PTR _nv$[ebp+4]
  00134	89 54 c1 04	 mov	 DWORD PTR [ecx+eax*8+4], edx
  00138	eb 31		 jmp	 SHORT $LN2@DesEncrypt
$LN3@DesEncrypt:

; 610  : 		}
; 611  : 		else if (Des_Mode_BCB == context->mode)

  0013a	8b 45 08	 mov	 eax, DWORD PTR _context$[ebp]
  0013d	83 b8 88 00 00
	00 01		 cmp	 DWORD PTR [eax+136], 1
  00144	75 25		 jne	 SHORT $LN2@DesEncrypt

; 612  : 		{
; 613  : 			*(pDesOut + i) = nv ^ cnv;

  00146	8b 45 d0	 mov	 eax, DWORD PTR _nv$[ebp]
  00149	33 45 c0	 xor	 eax, DWORD PTR _cnv$[ebp]
  0014c	8b 4d d4	 mov	 ecx, DWORD PTR _nv$[ebp+4]
  0014f	33 4d c4	 xor	 ecx, DWORD PTR _cnv$[ebp+4]
  00152	8b 55 e0	 mov	 edx, DWORD PTR _i$[ebp]
  00155	8b 75 b4	 mov	 esi, DWORD PTR _pDesOut$[ebp]
  00158	89 04 d6	 mov	 DWORD PTR [esi+edx*8], eax
  0015b	89 4c d6 04	 mov	 DWORD PTR [esi+edx*8+4], ecx

; 614  : 			cnv = nv;

  0015f	8b 45 d0	 mov	 eax, DWORD PTR _nv$[ebp]
  00162	89 45 c0	 mov	 DWORD PTR _cnv$[ebp], eax
  00165	8b 4d d4	 mov	 ecx, DWORD PTR _nv$[ebp+4]
  00168	89 4d c4	 mov	 DWORD PTR _cnv$[ebp+4], ecx
$LN2@DesEncrypt:

; 615  : 		}
; 616  : 	}

  0016b	e9 38 ff ff ff	 jmp	 $LN5@DesEncrypt
$LN7@DesEncrypt:

; 617  : 	return;
; 618  : }

  00170	5f		 pop	 edi
  00171	5e		 pop	 esi
  00172	5b		 pop	 ebx
  00173	81 c4 14 01 00
	00		 add	 esp, 276		; 00000114H
  00179	3b ec		 cmp	 ebp, esp
  0017b	e8 00 00 00 00	 call	 __RTC_CheckEsp
  00180	8b e5		 mov	 esp, ebp
  00182	5d		 pop	 ebp
  00183	c3		 ret	 0
_DesEncrypt ENDP
; Function compile flags: /Odtp /RTCsu /ZI
_TEXT	ENDS
;	COMDAT _InitSwap
_TEXT	SEGMENT
_num$ = 8						; size = 8
_InitSwap PROC						; COMDAT

; 351  : {

  00000	55		 push	 ebp
  00001	8b ec		 mov	 ebp, esp
  00003	81 ec c0 00 00
	00		 sub	 esp, 192		; 000000c0H
  00009	53		 push	 ebx
  0000a	56		 push	 esi
  0000b	57		 push	 edi
  0000c	8d bd 40 ff ff
	ff		 lea	 edi, DWORD PTR [ebp-192]
  00012	b9 30 00 00 00	 mov	 ecx, 48			; 00000030H
  00017	b8 cc cc cc cc	 mov	 eax, -858993460		; ccccccccH
  0001c	f3 ab		 rep stosd

; 352  : 	return BitSwap(num,sp_init,ARRAY_LEN(sp_init));

  0001e	6a 40		 push	 64			; 00000040H
  00020	68 00 00 00 00	 push	 OFFSET _sp_init
  00025	8b 45 0c	 mov	 eax, DWORD PTR _num$[ebp+4]
  00028	50		 push	 eax
  00029	8b 4d 08	 mov	 ecx, DWORD PTR _num$[ebp]
  0002c	51		 push	 ecx
  0002d	e8 00 00 00 00	 call	 _BitSwap
  00032	83 c4 10	 add	 esp, 16			; 00000010H

; 353  : }

  00035	5f		 pop	 edi
  00036	5e		 pop	 esi
  00037	5b		 pop	 ebx
  00038	81 c4 c0 00 00
	00		 add	 esp, 192		; 000000c0H
  0003e	3b ec		 cmp	 ebp, esp
  00040	e8 00 00 00 00	 call	 __RTC_CheckEsp
  00045	8b e5		 mov	 esp, ebp
  00047	5d		 pop	 ebp
  00048	c3		 ret	 0
_InitSwap ENDP
; Function compile flags: /Odtp /RTCsu /ZI
_TEXT	ENDS
;	COMDAT _LastSwap
_TEXT	SEGMENT
_num$ = 8						; size = 8
_LastSwap PROC						; COMDAT

; 356  : {

  00000	55		 push	 ebp
  00001	8b ec		 mov	 ebp, esp
  00003	81 ec c0 00 00
	00		 sub	 esp, 192		; 000000c0H
  00009	53		 push	 ebx
  0000a	56		 push	 esi
  0000b	57		 push	 edi
  0000c	8d bd 40 ff ff
	ff		 lea	 edi, DWORD PTR [ebp-192]
  00012	b9 30 00 00 00	 mov	 ecx, 48			; 00000030H
  00017	b8 cc cc cc cc	 mov	 eax, -858993460		; ccccccccH
  0001c	f3 ab		 rep stosd

; 357  : 	return BitSwap(num,sp_last,ARRAY_LEN(sp_last));

  0001e	6a 40		 push	 64			; 00000040H
  00020	68 00 00 00 00	 push	 OFFSET _sp_last
  00025	8b 45 0c	 mov	 eax, DWORD PTR _num$[ebp+4]
  00028	50		 push	 eax
  00029	8b 4d 08	 mov	 ecx, DWORD PTR _num$[ebp]
  0002c	51		 push	 ecx
  0002d	e8 00 00 00 00	 call	 _BitSwap
  00032	83 c4 10	 add	 esp, 16			; 00000010H

; 358  : }

  00035	5f		 pop	 edi
  00036	5e		 pop	 esi
  00037	5b		 pop	 ebx
  00038	81 c4 c0 00 00
	00		 add	 esp, 192		; 000000c0H
  0003e	3b ec		 cmp	 ebp, esp
  00040	e8 00 00 00 00	 call	 __RTC_CheckEsp
  00045	8b e5		 mov	 esp, ebp
  00047	5d		 pop	 ebp
  00048	c3		 ret	 0
_LastSwap ENDP
; Function compile flags: /Odtp /RTCsu /ZI
_TEXT	ENDS
;	COMDAT _Cliper
_TEXT	SEGMENT
_nv$ = -72						; size = 8
_tmp$ = -56						; size = 4
_l$ = -44						; size = 4
_r$ = -32						; size = 4
_f$ = -20						; size = 4
_i$ = -8						; size = 4
_num$ = 8						; size = 8
_pSubKey$ = 16						; size = 4
_Cliper	PROC						; COMDAT

; 479  : {

  00000	55		 push	 ebp
  00001	8b ec		 mov	 ebp, esp
  00003	81 ec 0c 01 00
	00		 sub	 esp, 268		; 0000010cH
  00009	53		 push	 ebx
  0000a	56		 push	 esi
  0000b	57		 push	 edi
  0000c	8d bd f4 fe ff
	ff		 lea	 edi, DWORD PTR [ebp-268]
  00012	b9 43 00 00 00	 mov	 ecx, 67			; 00000043H
  00017	b8 cc cc cc cc	 mov	 eax, -858993460		; ccccccccH
  0001c	f3 ab		 rep stosd

; 480  : 	int i,f,r,l,tmp;
; 481  : 	INT64 nv = 0;

  0001e	c7 45 b8 00 00
	00 00		 mov	 DWORD PTR _nv$[ebp], 0
  00025	c7 45 bc 00 00
	00 00		 mov	 DWORD PTR _nv$[ebp+4], 0

; 482  : 	l = (int)((num >> 32) & KEEPZERO32);

  0002c	8b 45 08	 mov	 eax, DWORD PTR _num$[ebp]
  0002f	8b 55 0c	 mov	 edx, DWORD PTR _num$[ebp+4]
  00032	b1 20		 mov	 cl, 32			; 00000020H
  00034	e8 00 00 00 00	 call	 __allshr
  00039	83 e2 00	 and	 edx, 0
  0003c	89 45 d4	 mov	 DWORD PTR _l$[ebp], eax

; 483  : 	r = (int)(num & KEEPZERO32);

  0003f	8b 45 08	 mov	 eax, DWORD PTR _num$[ebp]
  00042	8b 4d 0c	 mov	 ecx, DWORD PTR _num$[ebp+4]
  00045	83 e1 00	 and	 ecx, 0
  00048	89 45 e0	 mov	 DWORD PTR _r$[ebp], eax

; 484  : 	for (i=0; i<16; i++)

  0004b	c7 45 f8 00 00
	00 00		 mov	 DWORD PTR _i$[ebp], 0
  00052	eb 09		 jmp	 SHORT $LN3@Cliper
$LN2@Cliper:
  00054	8b 45 f8	 mov	 eax, DWORD PTR _i$[ebp]
  00057	83 c0 01	 add	 eax, 1
  0005a	89 45 f8	 mov	 DWORD PTR _i$[ebp], eax
$LN3@Cliper:
  0005d	83 7d f8 10	 cmp	 DWORD PTR _i$[ebp], 16	; 00000010H
  00061	7d 35		 jge	 SHORT $LN1@Cliper

; 485  : 	{
; 486  : 		tmp = r;

  00063	8b 45 e0	 mov	 eax, DWORD PTR _r$[ebp]
  00066	89 45 c8	 mov	 DWORD PTR _tmp$[ebp], eax

; 487  : 		f = F(r,pSubKey[i]);

  00069	8b 45 f8	 mov	 eax, DWORD PTR _i$[ebp]
  0006c	8b 4d 10	 mov	 ecx, DWORD PTR _pSubKey$[ebp]
  0006f	8b 54 c1 04	 mov	 edx, DWORD PTR [ecx+eax*8+4]
  00073	52		 push	 edx
  00074	8b 04 c1	 mov	 eax, DWORD PTR [ecx+eax*8]
  00077	50		 push	 eax
  00078	8b 4d e0	 mov	 ecx, DWORD PTR _r$[ebp]
  0007b	51		 push	 ecx
  0007c	e8 00 00 00 00	 call	 _F
  00081	83 c4 0c	 add	 esp, 12			; 0000000cH
  00084	89 45 ec	 mov	 DWORD PTR _f$[ebp], eax

; 488  : 		r = l ^ f;

  00087	8b 45 d4	 mov	 eax, DWORD PTR _l$[ebp]
  0008a	33 45 ec	 xor	 eax, DWORD PTR _f$[ebp]
  0008d	89 45 e0	 mov	 DWORD PTR _r$[ebp], eax

; 489  : 		l = tmp;

  00090	8b 45 c8	 mov	 eax, DWORD PTR _tmp$[ebp]
  00093	89 45 d4	 mov	 DWORD PTR _l$[ebp], eax

; 490  : 	}

  00096	eb bc		 jmp	 SHORT $LN2@Cliper
$LN1@Cliper:

; 491  : 	nv |= r;

  00098	8b 45 e0	 mov	 eax, DWORD PTR _r$[ebp]
  0009b	99		 cdq
  0009c	0b 45 b8	 or	 eax, DWORD PTR _nv$[ebp]
  0009f	0b 55 bc	 or	 edx, DWORD PTR _nv$[ebp+4]
  000a2	89 45 b8	 mov	 DWORD PTR _nv$[ebp], eax
  000a5	89 55 bc	 mov	 DWORD PTR _nv$[ebp+4], edx

; 492  : 	nv <<= 32;

  000a8	8b 45 b8	 mov	 eax, DWORD PTR _nv$[ebp]
  000ab	8b 55 bc	 mov	 edx, DWORD PTR _nv$[ebp+4]
  000ae	b1 20		 mov	 cl, 32			; 00000020H
  000b0	e8 00 00 00 00	 call	 __allshl
  000b5	89 45 b8	 mov	 DWORD PTR _nv$[ebp], eax
  000b8	89 55 bc	 mov	 DWORD PTR _nv$[ebp+4], edx

; 493  : 	nv |= (l & KEEPZERO32);

  000bb	8b 45 d4	 mov	 eax, DWORD PTR _l$[ebp]
  000be	33 c9		 xor	 ecx, ecx
  000c0	0b 45 b8	 or	 eax, DWORD PTR _nv$[ebp]
  000c3	0b 4d bc	 or	 ecx, DWORD PTR _nv$[ebp+4]
  000c6	89 45 b8	 mov	 DWORD PTR _nv$[ebp], eax
  000c9	89 4d bc	 mov	 DWORD PTR _nv$[ebp+4], ecx

; 494  : 	return nv;

  000cc	8b 45 b8	 mov	 eax, DWORD PTR _nv$[ebp]
  000cf	8b 55 bc	 mov	 edx, DWORD PTR _nv$[ebp+4]

; 495  : }

  000d2	5f		 pop	 edi
  000d3	5e		 pop	 esi
  000d4	5b		 pop	 ebx
  000d5	81 c4 0c 01 00
	00		 add	 esp, 268		; 0000010cH
  000db	3b ec		 cmp	 ebp, esp
  000dd	e8 00 00 00 00	 call	 __RTC_CheckEsp
  000e2	8b e5		 mov	 esp, ebp
  000e4	5d		 pop	 ebp
  000e5	c3		 ret	 0
_Cliper	ENDP
_TEXT	ENDS
PUBLIC	__$ArrayPad$
; Function compile flags: /Odtp /RTCsu /ZI
;	COMDAT _F
_TEXT	SEGMENT
_r_box$ = -132						; size = 8
_box$ = -116						; size = 8
_col$ = -100						; size = 4
_row$ = -88						; size = 4
_i$ = -76						; size = 4
_s_ret$ = -64						; size = 8
_ret$ = -48						; size = 8
_num$ = -32						; size = 8
_nr$ = -16						; size = 8
__$ArrayPad$ = -4					; size = 4
_r$ = 8							; size = 4
_k$ = 12						; size = 8
_F	PROC						; COMDAT

; 451  : {

  00000	55		 push	 ebp
  00001	8b ec		 mov	 ebp, esp
  00003	81 ec 48 01 00
	00		 sub	 esp, 328		; 00000148H
  00009	53		 push	 ebx
  0000a	56		 push	 esi
  0000b	57		 push	 edi
  0000c	8d bd b8 fe ff
	ff		 lea	 edi, DWORD PTR [ebp-328]
  00012	b9 52 00 00 00	 mov	 ecx, 82			; 00000052H
  00017	b8 cc cc cc cc	 mov	 eax, -858993460		; ccccccccH
  0001c	f3 ab		 rep stosd
  0001e	a1 00 00 00 00	 mov	 eax, DWORD PTR ___security_cookie
  00023	33 c5		 xor	 eax, ebp
  00025	89 45 fc	 mov	 DWORD PTR __$ArrayPad$[ebp], eax

; 452  : 	INT64 nr,num,ret,s_ret;
; 453  : 	int i,row,col;
; 454  : 	BYTE box[8] = {0};//8个字节的BOX

  00028	c6 45 8c 00	 mov	 BYTE PTR _box$[ebp], 0
  0002c	33 c0		 xor	 eax, eax
  0002e	89 45 8d	 mov	 DWORD PTR _box$[ebp+1], eax
  00031	66 89 45 91	 mov	 WORD PTR _box$[ebp+5], ax
  00035	88 45 93	 mov	 BYTE PTR _box$[ebp+7], al

; 455  : 	BYTE r_box[8] = {0};//8个字节的S盒替换后的数据，可能不用

  00038	c6 85 7c ff ff
	ff 00		 mov	 BYTE PTR _r_box$[ebp], 0
  0003f	33 c0		 xor	 eax, eax
  00041	89 85 7d ff ff
	ff		 mov	 DWORD PTR _r_box$[ebp+1], eax
  00047	66 89 45 81	 mov	 WORD PTR _r_box$[ebp+5], ax
  0004b	88 45 83	 mov	 BYTE PTR _r_box$[ebp+7], al

; 456  : 	nr = BitSwap(((INT64)r) << 32,sp_box_ext,ARRAY_LEN(sp_box_ext));

  0004e	6a 30		 push	 48			; 00000030H
  00050	68 00 00 00 00	 push	 OFFSET _sp_box_ext
  00055	8b 45 08	 mov	 eax, DWORD PTR _r$[ebp]
  00058	99		 cdq
  00059	b1 20		 mov	 cl, 32			; 00000020H
  0005b	e8 00 00 00 00	 call	 __allshl
  00060	52		 push	 edx
  00061	50		 push	 eax
  00062	e8 00 00 00 00	 call	 _BitSwap
  00067	83 c4 10	 add	 esp, 16			; 00000010H
  0006a	89 45 f0	 mov	 DWORD PTR _nr$[ebp], eax
  0006d	89 55 f4	 mov	 DWORD PTR _nr$[ebp+4], edx

; 457  : 	num = nr ^ k;//异或运算

  00070	8b 45 f0	 mov	 eax, DWORD PTR _nr$[ebp]
  00073	33 45 0c	 xor	 eax, DWORD PTR _k$[ebp]
  00076	8b 4d f4	 mov	 ecx, DWORD PTR _nr$[ebp+4]
  00079	33 4d 10	 xor	 ecx, DWORD PTR _k$[ebp+4]
  0007c	89 45 e0	 mov	 DWORD PTR _num$[ebp], eax
  0007f	89 4d e4	 mov	 DWORD PTR _num$[ebp+4], ecx

; 458  : 	s_ret = 0;

  00082	c7 45 c0 00 00
	00 00		 mov	 DWORD PTR _s_ret$[ebp], 0
  00089	c7 45 c4 00 00
	00 00		 mov	 DWORD PTR _s_ret$[ebp+4], 0

; 459  : 	//48位分8组
; 460  : 	for (i=7; i>=0; i--)

  00090	c7 45 b4 07 00
	00 00		 mov	 DWORD PTR _i$[ebp], 7
  00097	eb 09		 jmp	 SHORT $LN6@F
$LN5@F:
  00099	8b 45 b4	 mov	 eax, DWORD PTR _i$[ebp]
  0009c	83 e8 01	 sub	 eax, 1
  0009f	89 45 b4	 mov	 DWORD PTR _i$[ebp], eax
$LN6@F:
  000a2	83 7d b4 00	 cmp	 DWORD PTR _i$[ebp], 0
  000a6	7c 28		 jl	 SHORT $LN4@F

; 461  : 	{
; 462  : 		box[i] = (BYTE)(num & 0x3f);

  000a8	8b 45 e0	 mov	 eax, DWORD PTR _num$[ebp]
  000ab	83 e0 3f	 and	 eax, 63			; 0000003fH
  000ae	8b 4d e4	 mov	 ecx, DWORD PTR _num$[ebp+4]
  000b1	83 e1 00	 and	 ecx, 0
  000b4	8b 55 b4	 mov	 edx, DWORD PTR _i$[ebp]
  000b7	88 44 15 8c	 mov	 BYTE PTR _box$[ebp+edx], al

; 463  : 		num >>= 6;

  000bb	8b 45 e0	 mov	 eax, DWORD PTR _num$[ebp]
  000be	8b 55 e4	 mov	 edx, DWORD PTR _num$[ebp+4]
  000c1	b1 06		 mov	 cl, 6
  000c3	e8 00 00 00 00	 call	 __allshr
  000c8	89 45 e0	 mov	 DWORD PTR _num$[ebp], eax
  000cb	89 55 e4	 mov	 DWORD PTR _num$[ebp+4], edx

; 464  : 	}

  000ce	eb c9		 jmp	 SHORT $LN5@F
$LN4@F:

; 465  : 
; 466  : 	//S盒替换
; 467  : 	for (i=0; i<8; i++)

  000d0	c7 45 b4 00 00
	00 00		 mov	 DWORD PTR _i$[ebp], 0
  000d7	eb 09		 jmp	 SHORT $LN3@F
$LN2@F:
  000d9	8b 45 b4	 mov	 eax, DWORD PTR _i$[ebp]
  000dc	83 c0 01	 add	 eax, 1
  000df	89 45 b4	 mov	 DWORD PTR _i$[ebp], eax
$LN3@F:
  000e2	83 7d b4 08	 cmp	 DWORD PTR _i$[ebp], 8
  000e6	7d 66		 jge	 SHORT $LN1@F

; 468  : 	{
; 469  : 		row = ((box[i] >> 4) & 0x2) | (box[i] & 0x1);//取第1位和6位

  000e8	8b 45 b4	 mov	 eax, DWORD PTR _i$[ebp]
  000eb	0f b6 4c 05 8c	 movzx	 ecx, BYTE PTR _box$[ebp+eax]
  000f0	c1 f9 04	 sar	 ecx, 4
  000f3	83 e1 02	 and	 ecx, 2
  000f6	8b 55 b4	 mov	 edx, DWORD PTR _i$[ebp]
  000f9	0f b6 44 15 8c	 movzx	 eax, BYTE PTR _box$[ebp+edx]
  000fe	83 e0 01	 and	 eax, 1
  00101	0b c8		 or	 ecx, eax
  00103	89 4d a8	 mov	 DWORD PTR _row$[ebp], ecx

; 470  : 		col = (box[i] >> 1) & 0x0f;//取2,3,4,5位

  00106	8b 45 b4	 mov	 eax, DWORD PTR _i$[ebp]
  00109	0f b6 4c 05 8c	 movzx	 ecx, BYTE PTR _box$[ebp+eax]
  0010e	d1 f9		 sar	 ecx, 1
  00110	83 e1 0f	 and	 ecx, 15			; 0000000fH
  00113	89 4d 9c	 mov	 DWORD PTR _col$[ebp], ecx

; 471  : 		s_ret <<= 4;

  00116	8b 45 c0	 mov	 eax, DWORD PTR _s_ret$[ebp]
  00119	8b 55 c4	 mov	 edx, DWORD PTR _s_ret$[ebp+4]
  0011c	b1 04		 mov	 cl, 4
  0011e	e8 00 00 00 00	 call	 __allshl
  00123	89 45 c0	 mov	 DWORD PTR _s_ret$[ebp], eax
  00126	89 55 c4	 mov	 DWORD PTR _s_ret$[ebp+4], edx

; 472  : 		s_ret |= (sbox[i][row * 16 + col]);

  00129	8b 45 b4	 mov	 eax, DWORD PTR _i$[ebp]
  0012c	c1 e0 08	 shl	 eax, 8
  0012f	8b 4d a8	 mov	 ecx, DWORD PTR _row$[ebp]
  00132	c1 e1 04	 shl	 ecx, 4
  00135	03 4d 9c	 add	 ecx, DWORD PTR _col$[ebp]
  00138	8b 84 88 00 00
	00 00		 mov	 eax, DWORD PTR _sbox[eax+ecx*4]
  0013f	99		 cdq
  00140	0b 45 c0	 or	 eax, DWORD PTR _s_ret$[ebp]
  00143	0b 55 c4	 or	 edx, DWORD PTR _s_ret$[ebp+4]
  00146	89 45 c0	 mov	 DWORD PTR _s_ret$[ebp], eax
  00149	89 55 c4	 mov	 DWORD PTR _s_ret$[ebp+4], edx

; 473  : 	}

  0014c	eb 8b		 jmp	 SHORT $LN2@F
$LN1@F:

; 474  : 	ret = BitSwap(s_ret << 32,sp_box_end,ARRAY_LEN(sp_box_end));

  0014e	6a 20		 push	 32			; 00000020H
  00150	68 00 00 00 00	 push	 OFFSET _sp_box_end
  00155	8b 45 c0	 mov	 eax, DWORD PTR _s_ret$[ebp]
  00158	8b 55 c4	 mov	 edx, DWORD PTR _s_ret$[ebp+4]
  0015b	b1 20		 mov	 cl, 32			; 00000020H
  0015d	e8 00 00 00 00	 call	 __allshl
  00162	52		 push	 edx
  00163	50		 push	 eax
  00164	e8 00 00 00 00	 call	 _BitSwap
  00169	83 c4 10	 add	 esp, 16			; 00000010H
  0016c	89 45 d0	 mov	 DWORD PTR _ret$[ebp], eax
  0016f	89 55 d4	 mov	 DWORD PTR _ret$[ebp+4], edx

; 475  : 	return (int)(ret & KEEPZERO32);

  00172	8b 45 d0	 mov	 eax, DWORD PTR _ret$[ebp]
  00175	8b 4d d4	 mov	 ecx, DWORD PTR _ret$[ebp+4]
  00178	83 e1 00	 and	 ecx, 0

; 476  : }

  0017b	52		 push	 edx
  0017c	8b cd		 mov	 ecx, ebp
  0017e	50		 push	 eax
  0017f	8d 15 00 00 00
	00		 lea	 edx, DWORD PTR $LN12@F
  00185	e8 00 00 00 00	 call	 @_RTC_CheckStackVars@8
  0018a	58		 pop	 eax
  0018b	5a		 pop	 edx
  0018c	5f		 pop	 edi
  0018d	5e		 pop	 esi
  0018e	5b		 pop	 ebx
  0018f	8b 4d fc	 mov	 ecx, DWORD PTR __$ArrayPad$[ebp]
  00192	33 cd		 xor	 ecx, ebp
  00194	e8 00 00 00 00	 call	 @__security_check_cookie@4
  00199	81 c4 48 01 00
	00		 add	 esp, 328		; 00000148H
  0019f	3b ec		 cmp	 ebp, esp
  001a1	e8 00 00 00 00	 call	 __RTC_CheckEsp
  001a6	8b e5		 mov	 esp, ebp
  001a8	5d		 pop	 ebp
  001a9	c3		 ret	 0
  001aa	8b ff		 npad	 2
$LN12@F:
  001ac	02 00 00 00	 DD	 2
  001b0	00 00 00 00	 DD	 $LN11@F
$LN11@F:
  001b4	8c ff ff ff	 DD	 -116			; ffffff8cH
  001b8	08 00 00 00	 DD	 8
  001bc	00 00 00 00	 DD	 $LN9@F
  001c0	7c ff ff ff	 DD	 -132			; ffffff7cH
  001c4	08 00 00 00	 DD	 8
  001c8	00 00 00 00	 DD	 $LN10@F
$LN10@F:
  001cc	72		 DB	 114			; 00000072H
  001cd	5f		 DB	 95			; 0000005fH
  001ce	62		 DB	 98			; 00000062H
  001cf	6f		 DB	 111			; 0000006fH
  001d0	78		 DB	 120			; 00000078H
  001d1	00		 DB	 0
$LN9@F:
  001d2	62		 DB	 98			; 00000062H
  001d3	6f		 DB	 111			; 0000006fH
  001d4	78		 DB	 120			; 00000078H
  001d5	00		 DB	 0
_F	ENDP
_TEXT	ENDS
PUBLIC	_DesDecrypt
; Function compile flags: /Odtp /RTCsu /ZI
;	COMDAT _DesDecrypt
_TEXT	SEGMENT
_pDesOut$ = -64						; size = 4
_cnv$ = -52						; size = 8
_nv$ = -36						; size = 8
_i$ = -20						; size = 4
_loop$ = -8						; size = 4
_context$ = 8						; size = 4
_pInput$ = 12						; size = 4
_srcLen$ = 16						; size = 4
_pOutput$ = 20						; size = 4
_DesDecrypt PROC					; COMDAT

; 625  : {

  00000	55		 push	 ebp
  00001	8b ec		 mov	 ebp, esp
  00003	81 ec 04 01 00
	00		 sub	 esp, 260		; 00000104H
  00009	53		 push	 ebx
  0000a	56		 push	 esi
  0000b	57		 push	 edi
  0000c	8d bd fc fe ff
	ff		 lea	 edi, DWORD PTR [ebp-260]
  00012	b9 41 00 00 00	 mov	 ecx, 65			; 00000041H
  00017	b8 cc cc cc cc	 mov	 eax, -858993460		; ccccccccH
  0001c	f3 ab		 rep stosd

; 626  : 	unsigned int loop,i;
; 627  : 	INT64 nv = 0,cnv = 0;

  0001e	c7 45 dc 00 00
	00 00		 mov	 DWORD PTR _nv$[ebp], 0
  00025	c7 45 e0 00 00
	00 00		 mov	 DWORD PTR _nv$[ebp+4], 0
  0002c	c7 45 cc 00 00
	00 00		 mov	 DWORD PTR _cnv$[ebp], 0
  00033	c7 45 d0 00 00
	00 00		 mov	 DWORD PTR _cnv$[ebp+4], 0

; 628  : 	INT64* pDesOut = (INT64*)pOutput;//结果

  0003a	8b 45 14	 mov	 eax, DWORD PTR _pOutput$[ebp]
  0003d	89 45 c0	 mov	 DWORD PTR _pDesOut$[ebp], eax

; 629  : 	if ((srcLen % 8) != 0)

  00040	8b 45 10	 mov	 eax, DWORD PTR _srcLen$[ebp]
  00043	33 d2		 xor	 edx, edx
  00045	b9 08 00 00 00	 mov	 ecx, 8
  0004a	f7 f1		 div	 ecx
  0004c	85 d2		 test	 edx, edx
  0004e	74 05		 je	 SHORT $LN5@DesDecrypt

; 630  : 	{
; 631  : 		return;

  00050	e9 eb 00 00 00	 jmp	 $LN6@DesDecrypt
$LN5@DesDecrypt:

; 632  : 	}
; 633  : 	//slen = CHECKDIV8(srcLen);
; 634  : 	memset(pOutput,0,srcLen);

  00055	8b 45 10	 mov	 eax, DWORD PTR _srcLen$[ebp]
  00058	50		 push	 eax
  00059	6a 00		 push	 0
  0005b	8b 4d 14	 mov	 ecx, DWORD PTR _pOutput$[ebp]
  0005e	51		 push	 ecx
  0005f	e8 00 00 00 00	 call	 _memset
  00064	83 c4 0c	 add	 esp, 12			; 0000000cH

; 635  : 	memcpy(pOutput,pInput,srcLen);//补0

  00067	8b 45 10	 mov	 eax, DWORD PTR _srcLen$[ebp]
  0006a	50		 push	 eax
  0006b	8b 4d 0c	 mov	 ecx, DWORD PTR _pInput$[ebp]
  0006e	51		 push	 ecx
  0006f	8b 55 14	 mov	 edx, DWORD PTR _pOutput$[ebp]
  00072	52		 push	 edx
  00073	e8 00 00 00 00	 call	 _memcpy
  00078	83 c4 0c	 add	 esp, 12			; 0000000cH

; 636  : 	//key的处理
; 637  : 	//实际的key应该是56位7个字节，这里超过7个字节将被截断
; 638  : 	//没有7个字节也将补0
; 639  : 	//memcpy(cKey,pKey,(keyLen>7)?7:keyLen);//最多取7个字节
; 640  : 	//key = ChooseKey(cKey);//获取KEY
; 641  : 	loop = srcLen / 8;//获取循环次数

  0007b	8b 45 10	 mov	 eax, DWORD PTR _srcLen$[ebp]
  0007e	c1 e8 03	 shr	 eax, 3
  00081	89 45 f8	 mov	 DWORD PTR _loop$[ebp], eax

; 642  : 	//BuildSubKey(key,pSubKey);
; 643  : 	for(i=0; i<loop; i++)

  00084	c7 45 ec 00 00
	00 00		 mov	 DWORD PTR _i$[ebp], 0
  0008b	eb 09		 jmp	 SHORT $LN4@DesDecrypt
$LN3@DesDecrypt:
  0008d	8b 45 ec	 mov	 eax, DWORD PTR _i$[ebp]
  00090	83 c0 01	 add	 eax, 1
  00093	89 45 ec	 mov	 DWORD PTR _i$[ebp], eax
$LN4@DesDecrypt:
  00096	8b 45 ec	 mov	 eax, DWORD PTR _i$[ebp]
  00099	3b 45 f8	 cmp	 eax, DWORD PTR _loop$[ebp]
  0009c	0f 83 9e 00 00
	00		 jae	 $LN6@DesDecrypt

; 644  : 	{
; 645  : 		nv = *(pDesOut + i);

  000a2	8b 45 ec	 mov	 eax, DWORD PTR _i$[ebp]
  000a5	8b 4d c0	 mov	 ecx, DWORD PTR _pDesOut$[ebp]
  000a8	8b 14 c1	 mov	 edx, DWORD PTR [ecx+eax*8]
  000ab	89 55 dc	 mov	 DWORD PTR _nv$[ebp], edx
  000ae	8b 44 c1 04	 mov	 eax, DWORD PTR [ecx+eax*8+4]
  000b2	89 45 e0	 mov	 DWORD PTR _nv$[ebp+4], eax

; 646  : 		if (Des_Mode_BCB == context->mode)

  000b5	8b 45 08	 mov	 eax, DWORD PTR _context$[ebp]
  000b8	83 b8 88 00 00
	00 01		 cmp	 DWORD PTR [eax+136], 1
  000bf	75 1e		 jne	 SHORT $LN1@DesDecrypt

; 647  : 		{
; 648  : 			nv = nv ^ cnv;

  000c1	8b 45 dc	 mov	 eax, DWORD PTR _nv$[ebp]
  000c4	33 45 cc	 xor	 eax, DWORD PTR _cnv$[ebp]
  000c7	8b 4d e0	 mov	 ecx, DWORD PTR _nv$[ebp+4]
  000ca	33 4d d0	 xor	 ecx, DWORD PTR _cnv$[ebp+4]
  000cd	89 45 dc	 mov	 DWORD PTR _nv$[ebp], eax
  000d0	89 4d e0	 mov	 DWORD PTR _nv$[ebp+4], ecx

; 649  : 			cnv = nv;

  000d3	8b 45 dc	 mov	 eax, DWORD PTR _nv$[ebp]
  000d6	89 45 cc	 mov	 DWORD PTR _cnv$[ebp], eax
  000d9	8b 4d e0	 mov	 ecx, DWORD PTR _nv$[ebp+4]
  000dc	89 4d d0	 mov	 DWORD PTR _cnv$[ebp+4], ecx
$LN1@DesDecrypt:

; 650  : 		}
; 651  : 		nv = InvInitSwap(nv);

  000df	8b 45 e0	 mov	 eax, DWORD PTR _nv$[ebp+4]
  000e2	50		 push	 eax
  000e3	8b 4d dc	 mov	 ecx, DWORD PTR _nv$[ebp]
  000e6	51		 push	 ecx
  000e7	e8 00 00 00 00	 call	 _InvInitSwap
  000ec	83 c4 08	 add	 esp, 8
  000ef	89 45 dc	 mov	 DWORD PTR _nv$[ebp], eax
  000f2	89 55 e0	 mov	 DWORD PTR _nv$[ebp+4], edx

; 652  : 		nv = DeCliper(nv,context->subkey);

  000f5	8b 45 08	 mov	 eax, DWORD PTR _context$[ebp]
  000f8	83 c0 08	 add	 eax, 8
  000fb	50		 push	 eax
  000fc	8b 4d e0	 mov	 ecx, DWORD PTR _nv$[ebp+4]
  000ff	51		 push	 ecx
  00100	8b 55 dc	 mov	 edx, DWORD PTR _nv$[ebp]
  00103	52		 push	 edx
  00104	e8 00 00 00 00	 call	 _DeCliper
  00109	83 c4 0c	 add	 esp, 12			; 0000000cH
  0010c	89 45 dc	 mov	 DWORD PTR _nv$[ebp], eax
  0010f	89 55 e0	 mov	 DWORD PTR _nv$[ebp+4], edx

; 653  : 		nv = InvLastSwap(nv);

  00112	8b 45 e0	 mov	 eax, DWORD PTR _nv$[ebp+4]
  00115	50		 push	 eax
  00116	8b 4d dc	 mov	 ecx, DWORD PTR _nv$[ebp]
  00119	51		 push	 ecx
  0011a	e8 00 00 00 00	 call	 _InvLastSwap
  0011f	83 c4 08	 add	 esp, 8
  00122	89 45 dc	 mov	 DWORD PTR _nv$[ebp], eax
  00125	89 55 e0	 mov	 DWORD PTR _nv$[ebp+4], edx

; 654  : 		*(pDesOut+i) = nv;

  00128	8b 45 ec	 mov	 eax, DWORD PTR _i$[ebp]
  0012b	8b 4d c0	 mov	 ecx, DWORD PTR _pDesOut$[ebp]
  0012e	8b 55 dc	 mov	 edx, DWORD PTR _nv$[ebp]
  00131	89 14 c1	 mov	 DWORD PTR [ecx+eax*8], edx
  00134	8b 55 e0	 mov	 edx, DWORD PTR _nv$[ebp+4]
  00137	89 54 c1 04	 mov	 DWORD PTR [ecx+eax*8+4], edx

; 655  : 	}

  0013b	e9 4d ff ff ff	 jmp	 $LN3@DesDecrypt
$LN6@DesDecrypt:

; 656  : 	return;
; 657  : }

  00140	5f		 pop	 edi
  00141	5e		 pop	 esi
  00142	5b		 pop	 ebx
  00143	81 c4 04 01 00
	00		 add	 esp, 260		; 00000104H
  00149	3b ec		 cmp	 ebp, esp
  0014b	e8 00 00 00 00	 call	 __RTC_CheckEsp
  00150	8b e5		 mov	 esp, ebp
  00152	5d		 pop	 ebp
  00153	c3		 ret	 0
_DesDecrypt ENDP
; Function compile flags: /Odtp /RTCsu /ZI
_TEXT	ENDS
;	COMDAT _InvInitSwap
_TEXT	SEGMENT
_num$ = 8						; size = 8
_InvInitSwap PROC					; COMDAT

; 361  : {

  00000	55		 push	 ebp
  00001	8b ec		 mov	 ebp, esp
  00003	81 ec c0 00 00
	00		 sub	 esp, 192		; 000000c0H
  00009	53		 push	 ebx
  0000a	56		 push	 esi
  0000b	57		 push	 edi
  0000c	8d bd 40 ff ff
	ff		 lea	 edi, DWORD PTR [ebp-192]
  00012	b9 30 00 00 00	 mov	 ecx, 48			; 00000030H
  00017	b8 cc cc cc cc	 mov	 eax, -858993460		; ccccccccH
  0001c	f3 ab		 rep stosd

; 362  : 	return InvBitSwap(num,sp_last,ARRAY_LEN(sp_last));

  0001e	6a 40		 push	 64			; 00000040H
  00020	68 00 00 00 00	 push	 OFFSET _sp_last
  00025	8b 45 0c	 mov	 eax, DWORD PTR _num$[ebp+4]
  00028	50		 push	 eax
  00029	8b 4d 08	 mov	 ecx, DWORD PTR _num$[ebp]
  0002c	51		 push	 ecx
  0002d	e8 00 00 00 00	 call	 _InvBitSwap
  00032	83 c4 10	 add	 esp, 16			; 00000010H

; 363  : }

  00035	5f		 pop	 edi
  00036	5e		 pop	 esi
  00037	5b		 pop	 ebx
  00038	81 c4 c0 00 00
	00		 add	 esp, 192		; 000000c0H
  0003e	3b ec		 cmp	 ebp, esp
  00040	e8 00 00 00 00	 call	 __RTC_CheckEsp
  00045	8b e5		 mov	 esp, ebp
  00047	5d		 pop	 ebp
  00048	c3		 ret	 0
_InvInitSwap ENDP
; Function compile flags: /Odtp /RTCsu /ZI
_TEXT	ENDS
;	COMDAT _InvLastSwap
_TEXT	SEGMENT
_num$ = 8						; size = 8
_InvLastSwap PROC					; COMDAT

; 366  : {

  00000	55		 push	 ebp
  00001	8b ec		 mov	 ebp, esp
  00003	81 ec c0 00 00
	00		 sub	 esp, 192		; 000000c0H
  00009	53		 push	 ebx
  0000a	56		 push	 esi
  0000b	57		 push	 edi
  0000c	8d bd 40 ff ff
	ff		 lea	 edi, DWORD PTR [ebp-192]
  00012	b9 30 00 00 00	 mov	 ecx, 48			; 00000030H
  00017	b8 cc cc cc cc	 mov	 eax, -858993460		; ccccccccH
  0001c	f3 ab		 rep stosd

; 367  : 	return InvBitSwap(num,sp_init,ARRAY_LEN(sp_init));

  0001e	6a 40		 push	 64			; 00000040H
  00020	68 00 00 00 00	 push	 OFFSET _sp_init
  00025	8b 45 0c	 mov	 eax, DWORD PTR _num$[ebp+4]
  00028	50		 push	 eax
  00029	8b 4d 08	 mov	 ecx, DWORD PTR _num$[ebp]
  0002c	51		 push	 ecx
  0002d	e8 00 00 00 00	 call	 _InvBitSwap
  00032	83 c4 10	 add	 esp, 16			; 00000010H

; 368  : }

  00035	5f		 pop	 edi
  00036	5e		 pop	 esi
  00037	5b		 pop	 ebx
  00038	81 c4 c0 00 00
	00		 add	 esp, 192		; 000000c0H
  0003e	3b ec		 cmp	 ebp, esp
  00040	e8 00 00 00 00	 call	 __RTC_CheckEsp
  00045	8b e5		 mov	 esp, ebp
  00047	5d		 pop	 ebp
  00048	c3		 ret	 0
_InvLastSwap ENDP
; Function compile flags: /Odtp /RTCsu /ZI
_TEXT	ENDS
;	COMDAT _DeCliper
_TEXT	SEGMENT
_nv$ = -72						; size = 8
_tmp$ = -56						; size = 4
_l$ = -44						; size = 4
_r$ = -32						; size = 4
_f$ = -20						; size = 4
_i$ = -8						; size = 4
_num$ = 8						; size = 8
_pSubKey$ = 16						; size = 4
_DeCliper PROC						; COMDAT

; 498  : {

  00000	55		 push	 ebp
  00001	8b ec		 mov	 ebp, esp
  00003	81 ec 0c 01 00
	00		 sub	 esp, 268		; 0000010cH
  00009	53		 push	 ebx
  0000a	56		 push	 esi
  0000b	57		 push	 edi
  0000c	8d bd f4 fe ff
	ff		 lea	 edi, DWORD PTR [ebp-268]
  00012	b9 43 00 00 00	 mov	 ecx, 67			; 00000043H
  00017	b8 cc cc cc cc	 mov	 eax, -858993460		; ccccccccH
  0001c	f3 ab		 rep stosd

; 499  : 	int i,f,r,l,tmp;
; 500  : 	INT64 nv = 0;

  0001e	c7 45 b8 00 00
	00 00		 mov	 DWORD PTR _nv$[ebp], 0
  00025	c7 45 bc 00 00
	00 00		 mov	 DWORD PTR _nv$[ebp+4], 0

; 501  : 	l = (int)(num & KEEPZERO32);//加密时的l

  0002c	8b 45 08	 mov	 eax, DWORD PTR _num$[ebp]
  0002f	8b 4d 0c	 mov	 ecx, DWORD PTR _num$[ebp+4]
  00032	83 e1 00	 and	 ecx, 0
  00035	89 45 d4	 mov	 DWORD PTR _l$[ebp], eax

; 502  : 	r = (int)((num >> 32) & KEEPZERO32);//加密时的r

  00038	8b 45 08	 mov	 eax, DWORD PTR _num$[ebp]
  0003b	8b 55 0c	 mov	 edx, DWORD PTR _num$[ebp+4]
  0003e	b1 20		 mov	 cl, 32			; 00000020H
  00040	e8 00 00 00 00	 call	 __allshr
  00045	83 e2 00	 and	 edx, 0
  00048	89 45 e0	 mov	 DWORD PTR _r$[ebp], eax

; 503  : 	for (i=15; i>=0; i--)

  0004b	c7 45 f8 0f 00
	00 00		 mov	 DWORD PTR _i$[ebp], 15	; 0000000fH
  00052	eb 09		 jmp	 SHORT $LN3@DeCliper
$LN2@DeCliper:
  00054	8b 45 f8	 mov	 eax, DWORD PTR _i$[ebp]
  00057	83 e8 01	 sub	 eax, 1
  0005a	89 45 f8	 mov	 DWORD PTR _i$[ebp], eax
$LN3@DeCliper:
  0005d	83 7d f8 00	 cmp	 DWORD PTR _i$[ebp], 0
  00061	7c 35		 jl	 SHORT $LN1@DeCliper

; 504  : 	{
; 505  : 		tmp = l;

  00063	8b 45 d4	 mov	 eax, DWORD PTR _l$[ebp]
  00066	89 45 c8	 mov	 DWORD PTR _tmp$[ebp], eax

; 506  : 		f = F(l,pSubKey[i]);

  00069	8b 45 f8	 mov	 eax, DWORD PTR _i$[ebp]
  0006c	8b 4d 10	 mov	 ecx, DWORD PTR _pSubKey$[ebp]
  0006f	8b 54 c1 04	 mov	 edx, DWORD PTR [ecx+eax*8+4]
  00073	52		 push	 edx
  00074	8b 04 c1	 mov	 eax, DWORD PTR [ecx+eax*8]
  00077	50		 push	 eax
  00078	8b 4d d4	 mov	 ecx, DWORD PTR _l$[ebp]
  0007b	51		 push	 ecx
  0007c	e8 00 00 00 00	 call	 _F
  00081	83 c4 0c	 add	 esp, 12			; 0000000cH
  00084	89 45 ec	 mov	 DWORD PTR _f$[ebp], eax

; 507  : 		l = r ^ f;

  00087	8b 45 e0	 mov	 eax, DWORD PTR _r$[ebp]
  0008a	33 45 ec	 xor	 eax, DWORD PTR _f$[ebp]
  0008d	89 45 d4	 mov	 DWORD PTR _l$[ebp], eax

; 508  : 		r = tmp;

  00090	8b 45 c8	 mov	 eax, DWORD PTR _tmp$[ebp]
  00093	89 45 e0	 mov	 DWORD PTR _r$[ebp], eax

; 509  : 	}

  00096	eb bc		 jmp	 SHORT $LN2@DeCliper
$LN1@DeCliper:

; 510  : 	nv |= l;

  00098	8b 45 d4	 mov	 eax, DWORD PTR _l$[ebp]
  0009b	99		 cdq
  0009c	0b 45 b8	 or	 eax, DWORD PTR _nv$[ebp]
  0009f	0b 55 bc	 or	 edx, DWORD PTR _nv$[ebp+4]
  000a2	89 45 b8	 mov	 DWORD PTR _nv$[ebp], eax
  000a5	89 55 bc	 mov	 DWORD PTR _nv$[ebp+4], edx

; 511  : 	nv <<= 32;

  000a8	8b 45 b8	 mov	 eax, DWORD PTR _nv$[ebp]
  000ab	8b 55 bc	 mov	 edx, DWORD PTR _nv$[ebp+4]
  000ae	b1 20		 mov	 cl, 32			; 00000020H
  000b0	e8 00 00 00 00	 call	 __allshl
  000b5	89 45 b8	 mov	 DWORD PTR _nv$[ebp], eax
  000b8	89 55 bc	 mov	 DWORD PTR _nv$[ebp+4], edx

; 512  : 	nv |= (r & KEEPZERO32);

  000bb	8b 45 e0	 mov	 eax, DWORD PTR _r$[ebp]
  000be	33 c9		 xor	 ecx, ecx
  000c0	0b 45 b8	 or	 eax, DWORD PTR _nv$[ebp]
  000c3	0b 4d bc	 or	 ecx, DWORD PTR _nv$[ebp+4]
  000c6	89 45 b8	 mov	 DWORD PTR _nv$[ebp], eax
  000c9	89 4d bc	 mov	 DWORD PTR _nv$[ebp+4], ecx

; 513  : 	return nv;

  000cc	8b 45 b8	 mov	 eax, DWORD PTR _nv$[ebp]
  000cf	8b 55 bc	 mov	 edx, DWORD PTR _nv$[ebp+4]

; 514  : }

  000d2	5f		 pop	 edi
  000d3	5e		 pop	 esi
  000d4	5b		 pop	 ebx
  000d5	81 c4 0c 01 00
	00		 add	 esp, 268		; 0000010cH
  000db	3b ec		 cmp	 ebp, esp
  000dd	e8 00 00 00 00	 call	 __RTC_CheckEsp
  000e2	8b e5		 mov	 esp, ebp
  000e4	5d		 pop	 ebp
  000e5	c3		 ret	 0
_DeCliper ENDP
_TEXT	ENDS
END
