; Listing generated by Microsoft (R) Optimizing Compiler Version 16.00.30319.01 

	TITLE	D:\windows\belial\crypt\Primes.c
	.686P
	.XMM
	include listing.inc
	.model	flat

INCLUDELIB MSVCRTD
INCLUDELIB OLDNAMES

_DATA	SEGMENT
_mill_primes DD	02H
	DD	03H
	DD	05H
	DD	07H
	DD	0bH
	DD	0dH
	DD	011H
	DD	013H
	DD	017H
	DD	01dH
	DD	01fH
	DD	025H
	DD	029H
	DD	02bH
	DD	02fH
	DD	035H
	DD	03bH
	DD	03dH
	DD	043H
	DD	047H
	DD	049H
	DD	04fH
	DD	053H
	DD	059H
	DD	061H
	DD	065H
	DD	067H
	DD	06bH
	DD	06dH
	DD	071H
	DD	07fH
	DD	083H
	DD	089H
	DD	08bH
	DD	095H
	DD	097H
	DD	09dH
	DD	0a3H
	DD	0a7H
	DD	0adH
	DD	0b3H
	DD	0b5H
	DD	0bfH
	DD	0c1H
	DD	0c5H
	DD	0c7H
	DD	0d3H
	DD	0dfH
	DD	0e3H
	DD	0e5H
	DD	0e9H
	DD	0efH
	DD	0f1H
	DD	0fbH
	DD	0101H
	DD	0107H
	DD	010dH
	DD	010fH
	DD	0115H
	DD	0119H
	DD	011bH
	DD	0125H
	DD	0133H
	DD	0137H
	DD	0139H
	DD	013dH
	DD	014bH
	DD	0151H
	DD	015bH
	DD	015dH
	DD	0161H
	DD	0167H
	DD	016fH
	DD	0175H
	DD	017bH
	DD	017fH
	DD	0185H
	DD	018dH
	DD	0191H
	DD	0199H
	DD	01a3H
	DD	01a5H
	DD	01afH
	DD	01b1H
	DD	01b7H
	DD	01bbH
	DD	01c1H
	DD	01c9H
	DD	01cdH
	DD	01cfH
	DD	01d3H
	DD	01dfH
	DD	01e7H
	DD	01ebH
	DD	01f3H
	DD	01f7H
	DD	01fdH
	DD	0209H
	DD	020bH
	DD	021dH
	DD	0223H
	DD	022dH
	DD	0233H
	DD	0239H
	DD	023bH
	DD	0241H
	DD	024bH
	DD	0251H
	DD	0257H
	DD	0259H
	DD	025fH
	DD	0265H
	DD	0269H
	DD	026bH
	DD	0277H
	DD	0281H
	DD	0283H
	DD	0287H
	DD	028dH
	DD	0293H
	DD	0295H
	DD	02a1H
	DD	02a5H
	DD	02abH
	DD	02b3H
	DD	02bdH
	DD	02c5H
	DD	02cfH
	DD	02d7H
	DD	02ddH
	DD	02e3H
	DD	02e7H
	DD	02efH
	DD	02f5H
	DD	02f9H
	DD	0301H
	DD	0305H
	DD	0313H
	DD	031dH
	DD	0329H
	DD	032bH
	DD	0335H
	DD	0337H
	DD	033bH
	DD	033dH
	DD	0347H
	DD	0355H
	DD	0359H
	DD	035bH
	DD	035fH
	DD	036dH
	DD	0371H
	DD	0373H
	DD	0377H
	DD	038bH
	DD	038fH
	DD	0397H
	DD	03a1H
	DD	03a9H
	DD	03adH
	DD	03b3H
	DD	03b9H
	DD	03c7H
	DD	03cbH
	DD	03d1H
	DD	03d7H
	DD	03dfH
	DD	03e5H
	DD	03f1H
	DD	03f5H
	DD	03fbH
	DD	03fdH
	DD	0407H
	DD	0409H
	DD	040fH
	DD	0419H
	DD	041bH
	DD	0425H
	DD	0427H
	DD	042dH
	DD	043fH
	DD	0443H
	DD	0445H
	DD	0449H
	DD	044fH
	DD	0455H
	DD	045dH
	DD	0463H
	DD	0469H
	DD	047fH
	DD	0481H
	DD	048bH
	DD	0493H
	DD	049dH
	DD	04a3H
	DD	04a9H
	DD	04b1H
	DD	04bdH
	DD	04c1H
	DD	04c7H
	DD	04cdH
	DD	04cfH
	DD	04d5H
	DD	04e1H
	DD	04ebH
	DD	04fdH
	DD	04ffH
	DD	0503H
	DD	0509H
	DD	050bH
	DD	0511H
	DD	0515H
	DD	0517H
	DD	051bH
	DD	0527H
	DD	0529H
	DD	052fH
	DD	0551H
	DD	0557H
	DD	055dH
	DD	0565H
	DD	0577H
	DD	0581H
	DD	058fH
	DD	0593H
	DD	0595H
	DD	0599H
	DD	059fH
	DD	05a7H
	DD	05abH
	DD	05adH
	DD	05b3H
	DD	05bfH
	DD	05c9H
	DD	05cbH
	DD	05cfH
	DD	05d1H
	DD	05d5H
	DD	05dbH
	DD	05e7H
	DD	05f3H
	DD	05fbH
	DD	0607H
	DD	060dH
	DD	0611H
	DD	0617H
	DD	061fH
	DD	0623H
	DD	062bH
	DD	062fH
	DD	063dH
	DD	0641H
	DD	0647H
	DD	0649H
	DD	064dH
	DD	0653H
	DD	0655H
	DD	065bH
	DD	0665H
	DD	0679H
	DD	067fH
	DD	0683H
	DD	0685H
	DD	069dH
	DD	06a1H
	DD	06a3H
	DD	06adH
	DD	06b9H
	DD	06bbH
	DD	06c5H
	DD	06cdH
	DD	06d3H
	DD	06d9H
	DD	06dfH
	DD	06f1H
	DD	06f7H
	DD	06fbH
	DD	06fdH
	DD	0709H
	DD	0713H
	DD	071fH
	DD	0727H
	DD	0737H
	DD	0745H
	DD	074bH
	DD	074fH
	DD	0751H
	DD	0755H
	DD	0757H
	DD	0761H
	DD	076dH
	DD	0773H
	DD	0779H
	DD	078bH
	DD	078dH
	DD	079dH
	DD	079fH
	DD	07b5H
	DD	07bbH
	DD	07c3H
	DD	07c9H
	DD	07cdH
	DD	07cfH
	DD	07d3H
	DD	07dbH
	DD	07e1H
	DD	07ebH
	DD	07edH
	DD	07f7H
	DD	0805H
	DD	080fH
	DD	0815H
	DD	0821H
	DD	0823H
	DD	0827H
	DD	0829H
	DD	0833H
	DD	083fH
	DD	0841H
	DD	0851H
	DD	0853H
	DD	0859H
	DD	085dH
	DD	085fH
	DD	0869H
	DD	0871H
	DD	0883H
	DD	089bH
	DD	089fH
	DD	08a5H
	DD	08adH
	DD	08bdH
	DD	08bfH
	DD	08c3H
	DD	08cbH
	DD	08dbH
	DD	08ddH
	DD	08e1H
	DD	08e9H
	DD	08efH
	DD	08f5H
	DD	08f9H
	DD	0905H
	DD	0907H
	DD	091dH
	DD	0923H
	DD	0925H
	DD	092bH
	DD	092fH
	DD	0935H
	DD	0943H
	DD	0949H
	DD	094dH
	DD	094fH
	DD	0955H
	DD	0959H
	DD	095fH
	DD	096bH
	DD	0971H
	DD	0977H
	DD	0985H
	DD	0989H
	DD	098fH
	DD	099bH
	DD	09a3H
	DD	09a9H
	DD	09adH
	DD	09c7H
	DD	09d9H
	DD	09e3H
	DD	09ebH
	DD	09efH
	DD	09f5H
	DD	09f7H
	DD	09fdH
	DD	0a13H
	DD	0a1fH
	DD	0a21H
	DD	0a31H
	DD	0a39H
	DD	0a3dH
	DD	0a49H
	DD	0a57H
	DD	0a61H
	DD	0a63H
	DD	0a67H
	DD	0a6fH
	DD	0a75H
	DD	0a7bH
	DD	0a7fH
	DD	0a81H
	DD	0a85H
	DD	0a8bH
	DD	0a93H
	DD	0a97H
	DD	0a99H
	DD	0a9fH
	DD	0aa9H
	DD	0aabH
	DD	0ab5H
	DD	0abdH
	DD	0ac1H
	DD	0acfH
	DD	0ad9H
	DD	0ae5H
	DD	0ae7H
	DD	0aedH
	DD	0af1H
	DD	0af3H
	DD	0b03H
	DD	0b11H
	DD	0b15H
	DD	0b1bH
	DD	0b23H
	DD	0b29H
	DD	0b2dH
	DD	0b3fH
	DD	0b47H
	DD	0b51H
	DD	0b57H
	DD	0b5dH
	DD	0b65H
	DD	0b6fH
	DD	0b7bH
	DD	0b89H
	DD	0b8dH
	DD	0b93H
	DD	0b99H
	DD	0b9bH
	DD	0bb7H
	DD	0bb9H
	DD	0bc3H
	DD	0bcbH
	DD	0bcfH
	DD	0bddH
	DD	0be1H
	DD	0be9H
	DD	0bf5H
	DD	0bfbH
	DD	0c07H
	DD	0c0bH
	DD	0c11H
	DD	0c25H
	DD	0c2fH
	DD	0c31H
	DD	0c41H
	DD	0c5bH
	DD	0c5fH
	DD	0c61H
	DD	0c6dH
	DD	0c73H
	DD	0c77H
	DD	0c83H
	DD	0c89H
	DD	0c91H
	DD	0c95H
	DD	0c9dH
	DD	0cb3H
	DD	0cb5H
	DD	0cb9H
	DD	0cbbH
	DD	0cc7H
	DD	0ce3H
	DD	0ce5H
	DD	0cebH
	DD	0cf1H
	DD	0cf7H
	DD	0cfbH
	DD	0d01H
	DD	0d03H
	DD	0d0fH
	DD	0d13H
	DD	0d1fH
	DD	0d21H
	DD	0d2bH
	DD	0d2dH
	DD	0d3dH
	DD	0d3fH
	DD	0d4fH
	DD	0d55H
	DD	0d69H
	DD	0d79H
	DD	0d81H
	DD	0d85H
	DD	0d87H
	DD	0d8bH
	DD	0d8dH
	DD	0da3H
	DD	0dabH
	DD	0db7H
	DD	0dbdH
	DD	0dc7H
	DD	0dc9H
	DD	0dcdH
	DD	0dd3H
	DD	0dd5H
	DD	0ddbH
	DD	0de5H
	DD	0de7H
	DD	0df3H
	DD	0dfdH
	DD	0dffH
	DD	0e09H
	DD	0e17H
	DD	0e1dH
	DD	0e21H
	DD	0e27H
	DD	0e2fH
	DD	0e35H
	DD	0e3bH
	DD	0e4bH
	DD	0e57H
	DD	0e59H
	DD	0e5dH
	DD	0e6bH
	DD	0e71H
	DD	0e75H
	DD	0e7dH
	DD	0e87H
	DD	0e8fH
	DD	0e95H
	DD	0e9bH
	DD	0eb1H
	DD	0eb7H
	DD	0eb9H
	DD	0ec3H
	DD	0ed1H
	DD	0ed5H
	DD	0edbH
	DD	0eedH
	DD	0eefH
	DD	0ef9H
	DD	0f07H
	DD	0f0bH
	DD	0f0dH
	DD	0f17H
	DD	0f25H
	DD	0f29H
	DD	0f31H
	DD	0f43H
	DD	0f47H
	DD	0f4dH
	DD	0f4fH
	DD	0f53H
	DD	0f59H
	DD	0f5bH
	DD	0f67H
	DD	0f6bH
	DD	0f7fH
	DD	0f95H
	DD	0fa1H
	DD	0fa3H
	DD	0fa7H
	DD	0fadH
	DD	0fb3H
	DD	0fb5H
	DD	0fbbH
	DD	0fd1H
	DD	0fd3H
	DD	0fd9H
	DD	0fe9H
	DD	0fefH
	DD	0ffbH
	DD	0ffdH
	DD	01003H
	DD	0100fH
	DD	0101fH
	DD	01021H
	DD	01025H
	DD	0102bH
	DD	01039H
	DD	0103dH
	DD	0103fH
	DD	01051H
	DD	01069H
	DD	01073H
	DD	01079H
	DD	0107bH
	DD	01085H
	DD	01087H
	DD	01091H
	DD	01093H
	DD	0109dH
	DD	010a3H
	DD	010a5H
	DD	010afH
	DD	010b1H
	DD	010bbH
	DD	010c1H
	DD	010c9H
	DD	010e7H
	DD	010f1H
	DD	010f3H
	DD	010fdH
	DD	01105H
	DD	0110bH
	DD	01115H
	DD	01127H
	DD	0112dH
	DD	01139H
	DD	01145H
	DD	01147H
	DD	01159H
	DD	0115fH
	DD	01163H
	DD	01169H
	DD	0116fH
	DD	01181H
	DD	01183H
	DD	0118dH
	DD	0119bH
	DD	011a1H
	DD	011a5H
	DD	011a7H
	DD	011abH
	DD	011c3H
	DD	011c5H
	DD	011d1H
	DD	011d7H
	DD	011e7H
	DD	011efH
	DD	011f5H
	DD	011fbH
	DD	0120dH
	DD	0121dH
	DD	0121fH
	DD	01223H
	DD	01229H
	DD	0122bH
	DD	01231H
	DD	01237H
	DD	01241H
	DD	01247H
	DD	01253H
	DD	0125fH
	DD	01271H
	DD	01273H
	DD	01279H
	DD	0127dH
	DD	0128fH
	DD	01297H
	DD	012afH
	DD	012b3H
	DD	012b5H
	DD	012b9H
	DD	012bfH
	DD	012c1H
	DD	012cdH
	DD	012d1H
	DD	012dfH
	DD	012fdH
	DD	01307H
	DD	0130dH
	DD	01319H
	DD	01327H
	DD	0132dH
	DD	01337H
	DD	01343H
	DD	01345H
	DD	01349H
	DD	0134fH
	DD	01357H
	DD	0135dH
	DD	01367H
	DD	01369H
	DD	0136dH
	DD	0137bH
	DD	01381H
	DD	01387H
	DD	0138bH
	DD	01391H
	DD	01393H
	DD	0139dH
	DD	0139fH
	DD	013afH
	DD	013bbH
	DD	013c3H
	DD	013d5H
	DD	013d9H
	DD	013dfH
	DD	013ebH
	DD	013edH
	DD	013f3H
	DD	013f9H
	DD	013ffH
	DD	0141bH
	DD	01421H
	DD	0142fH
	DD	01433H
	DD	0143bH
	DD	01445H
	DD	0144dH
	DD	01459H
	DD	0146bH
	DD	0146fH
	DD	01471H
	DD	01475H
	DD	0148dH
	DD	01499H
	DD	0149fH
	DD	014a1H
	DD	014b1H
	DD	014b7H
	DD	014bdH
	DD	014cbH
	DD	014d5H
	DD	014e3H
	DD	014e7H
	DD	01505H
	DD	0150bH
	DD	01511H
	DD	01517H
	DD	0151fH
	DD	01525H
	DD	01529H
	DD	0152bH
	DD	01537H
	DD	0153dH
	DD	01541H
	DD	01543H
	DD	01549H
	DD	0155fH
	DD	01565H
	DD	01567H
	DD	0156bH
	DD	0157dH
	DD	0157fH
	DD	01583H
	DD	0158fH
	DD	01591H
	DD	01597H
	DD	0159bH
	DD	015b5H
	DD	015bbH
	DD	015c1H
	DD	015c5H
	DD	015cdH
	DD	015d7H
	DD	015f7H
	DD	01607H
	DD	01609H
	DD	0160fH
	DD	01613H
	DD	01615H
	DD	01619H
	DD	0161bH
	DD	01625H
	DD	01633H
	DD	01639H
	DD	0163dH
	DD	01645H
	DD	0164fH
	DD	01655H
	DD	01669H
	DD	0166dH
	DD	0166fH
	DD	01675H
	DD	01693H
	DD	01697H
	DD	0169fH
	DD	016a9H
	DD	016afH
	DD	016b5H
	DD	016bdH
	DD	016c3H
	DD	016cfH
	DD	016d3H
	DD	016d9H
	DD	016dbH
	DD	016e1H
	DD	016e5H
	DD	016ebH
	DD	016edH
	DD	016f7H
	DD	016f9H
	DD	01709H
	DD	0170fH
	DD	01723H
	DD	01727H
	DD	01733H
	DD	01741H
	DD	0175dH
	DD	01763H
	DD	01777H
	DD	0177bH
	DD	0178dH
	DD	01795H
	DD	0179bH
	DD	0179fH
	DD	017a5H
	DD	017b3H
	DD	017b9H
	DD	017bfH
	DD	017c9H
	DD	017cbH
	DD	017d5H
	DD	017e1H
	DD	017e9H
	DD	017f3H
	DD	017f5H
	DD	017ffH
	DD	01807H
	DD	01813H
	DD	0181dH
	DD	01835H
	DD	01837H
	DD	0183bH
	DD	01843H
	DD	01849H
	DD	0184dH
	DD	01855H
	DD	01867H
	DD	01871H
	DD	01877H
	DD	0187dH
	DD	0187fH
	DD	01885H
	DD	0188fH
	DD	0189bH
	DD	0189dH
	DD	018a7H
	DD	018adH
	DD	018b3H
	DD	018b9H
	DD	018c1H
	DD	018c7H
	DD	018d1H
	DD	018d7H
	DD	018d9H
	DD	018dfH
	DD	018e5H
	DD	018ebH
	DD	018f5H
	DD	018fdH
	DD	01915H
	DD	0191bH
	DD	01931H
	DD	01933H
	DD	01945H
	DD	01949H
	DD	01951H
	DD	0195bH
	DD	01979H
	DD	01981H
	DD	01993H
	DD	01997H
	DD	01999H
	DD	019a3H
	DD	019a9H
	DD	019abH
	DD	019b1H
	DD	019b5H
	DD	019c7H
	DD	019cfH
	DD	019dbH
	DD	019edH
	DD	019fdH
	DD	01a03H
	DD	01a05H
	DD	01a11H
	DD	01a17H
	DD	01a21H
	DD	01a23H
	DD	01a2dH
	DD	01a2fH
	DD	01a35H
	DD	01a3fH
	DD	01a4dH
	DD	01a51H
	DD	01a69H
	DD	01a6bH
	DD	01a7bH
	DD	01a7dH
	DD	01a87H
	DD	01a89H
	DD	01a93H
	DD	01aa7H
	DD	01aabH
	DD	01aadH
	DD	01ab1H
	DD	01ab9H
	DD	01ac9H
	DD	01acfH
	DD	01ad5H
	DD	01ad7H
	DD	01ae3H
	DD	01af3H
	DD	01afbH
	DD	01affH
	DD	01b05H
	DD	01b23H
	DD	01b25H
	DD	01b2fH
	DD	01b31H
	DD	01b37H
	DD	01b3bH
	DD	01b41H
	DD	01b47H
	DD	01b4fH
	DD	01b55H
	DD	01b59H
	DD	01b65H
	DD	01b6bH
	DD	01b73H
	DD	01b7fH
	DD	01b83H
	DD	01b91H
	DD	01b9dH
	DD	01ba7H
	DD	01bbfH
	DD	01bc5H
	DD	01bd1H
	DD	01bd7H
	DD	01bd9H
	DD	01befH
	DD	01bf7H
	DD	01c09H
	DD	01c13H
	DD	01c19H
	DD	01c27H
	DD	01c2bH
	DD	01c2dH
	DD	01c33H
	DD	01c3dH
	DD	01c45H
	DD	01c4bH
	DD	01c4fH
	DD	01c55H
	DD	01c73H
	DD	01c81H
	DD	01c8bH
	DD	01c8dH
	DD	01c99H
	DD	01ca3H
	DD	01ca5H
	DD	01cb5H
	DD	01cb7H
	DD	01cc9H
	DD	01ce1H
	DD	01cf3H
	DD	01cf9H
	DD	01d09H
	DD	01d1bH
	DD	01d21H
	DD	01d23H
	DD	01d35H
	DD	01d39H
	DD	01d3fH
	DD	01d41H
	DD	01d4bH
	DD	01d53H
	DD	01d5dH
	DD	01d63H
	DD	01d69H
	DD	01d71H
	DD	01d75H
	DD	01d7bH
	DD	01d7dH
	DD	01d87H
	DD	01d89H
	DD	01d95H
	DD	01d99H
	DD	01d9fH
	DD	01da5H
	DD	01da7H
	DD	01db3H
	DD	01db7H
	DD	01dc5H
	DD	01dd7H
	DD	01ddbH
	DD	01de1H
	DD	01df5H
	DD	01df9H
	DD	01e01H
	DD	01e07H
	DD	01e0bH
	DD	01e13H
	DD	01e17H
	DD	01e25H
	DD	01e2bH
	DD	01e2fH
	DD	01e3dH
	DD	01e49H
	DD	01e4dH
	DD	01e4fH
	DD	01e6dH
	DD	01e71H
	DD	01e89H
	DD	01e8fH
	DD	01e95H
	DD	01ea1H
	DD	01eadH
	DD	01ebbH
	DD	01ec1H
	DD	01ec5H
	DD	01ec7H
	DD	01ecbH
	DD	01eddH
	DD	01ee3H
	DD	01eefH
	DD	01ef7H
	DD	01efdH
	DD	01f01H
	DD	01f0dH
	DD	01f0fH
	DD	01f1bH
	DD	01f39H
	DD	01f49H
	DD	01f4bH
	DD	01f51H
	DD	01f67H
	DD	01f75H
	DD	01f7bH
	DD	01f85H
	DD	01f91H
	DD	01f97H
	DD	01f99H
	DD	01f9dH
	DD	01fa5H
	DD	01fafH
	DD	01fb5H
	DD	01fbbH
	DD	01fd3H
	DD	01fe1H
	DD	01fe7H
	DD	01febH
	DD	01ff3H
	DD	01fffH
	DD	02011H
	DD	0201bH
	DD	0201dH
	DD	02027H
	DD	02029H
	DD	0202dH
	DD	02033H
	DD	02047H
	DD	0204dH
	DD	02051H
	DD	0205fH
	DD	02063H
	DD	02065H
	DD	02069H
	DD	02077H
	DD	0207dH
	DD	02089H
	DD	020a1H
	DD	020abH
	DD	020b1H
	DD	020b9H
	DD	020c3H
	DD	020c5H
	DD	020e3H
	DD	020e7H
	DD	020edH
	DD	020efH
	DD	020fbH
	DD	020ffH
	DD	0210dH
	DD	02113H
	DD	02135H
	DD	02141H
	DD	02149H
	DD	0214fH
	DD	02159H
	DD	0215bH
	DD	0215fH
	DD	02173H
	DD	0217dH
	DD	02185H
	DD	02195H
	DD	02197H
	DD	021a1H
	DD	021afH
	DD	021b3H
	DD	021b5H
	DD	021c1H
	DD	021c7H
	DD	021d7H
	DD	021ddH
	DD	021e5H
	DD	021e9H
	DD	021f1H
	DD	021f5H
	DD	021fbH
	DD	02203H
	DD	02209H
	DD	0220fH
	DD	0221bH
	DD	02221H
	DD	02225H
	DD	0222bH
	DD	02231H
	DD	02239H
	DD	0224bH
	DD	0224fH
	DD	02263H
	DD	02267H
	DD	02273H
	DD	02275H
	DD	0227fH
	DD	02285H
	DD	02287H
	DD	02291H
	DD	0229dH
	DD	0229fH
	DD	022a3H
	DD	022b7H
	DD	022bdH
	DD	022dbH
	DD	022e1H
	DD	022e5H
	DD	022edH
	DD	022f7H
	DD	02303H
	DD	02309H
	DD	0230bH
	DD	02327H
	DD	02329H
	DD	0232fH
	DD	02333H
	DD	02335H
	DD	02345H
	DD	02351H
	DD	02353H
	DD	02359H
	DD	02363H
	DD	0236bH
	DD	02383H
	DD	0238fH
	DD	02395H
	DD	023a7H
	DD	023adH
	DD	023b1H
	DD	023bfH
	DD	023c5H
	DD	023c9H
	DD	023d5H
	DD	023ddH
	DD	023e3H
	DD	023efH
	DD	023f3H
	DD	023f9H
	DD	02405H
	DD	0240bH
	DD	02417H
	DD	02419H
	DD	02429H
	DD	0243dH
	DD	02441H
	DD	02443H
	DD	0244dH
	DD	0245fH
	DD	02467H
	DD	0246bH
	DD	02479H
	DD	0247dH
	DD	0247fH
	DD	02485H
	DD	0249bH
	DD	024a1H
	DD	024afH
	DD	024b5H
	DD	024bbH
	DD	024c5H
	DD	024cbH
	DD	024cdH
	DD	024d7H
	DD	024d9H
	DD	024ddH
	DD	024dfH
	DD	024f5H
	DD	024f7H
	DD	024fbH
	DD	02501H
	DD	02507H
	DD	02513H
	DD	02519H
	DD	02527H
	DD	02531H
	DD	0253dH
	DD	02543H
	DD	0254bH
	DD	0254fH
	DD	02573H
	DD	02581H
	DD	0258dH
	DD	02593H
	DD	02597H
	DD	0259dH
	DD	0259fH
	DD	025abH
	DD	025b1H
	DD	025bdH
	DD	025cdH
	DD	025cfH
	DD	025d9H
	DD	025e1H
	DD	025f7H
	DD	025f9H
	DD	02605H
	DD	0260bH
	DD	0260fH
	DD	02615H
	DD	02627H
	DD	02629H
	DD	02635H
	DD	0263bH
	DD	0263fH
	DD	0264bH
	DD	02653H
	DD	02659H
	DD	02665H
	DD	02669H
	DD	0266fH
	DD	0267bH
	DD	02681H
	DD	02683H
	DD	0268fH
	DD	0269bH
	DD	0269fH
	DD	026adH
	DD	026b3H
	DD	026c3H
	DD	026c9H
	DD	026cbH
	DD	026d5H
	DD	026ddH
	DD	026efH
	DD	026f5H
	DD	02717H
	DD	02719H
	DD	02735H
	DD	02737H
	DD	0274dH
	DD	02753H
	DD	02755H
	DD	0275fH
	DD	0276bH
	DD	0276dH
	DD	02773H
	DD	02777H
	DD	0277fH
	DD	02795H
	DD	0279bH
	DD	0279dH
	DD	027a7H
	DD	027afH
	DD	027b3H
	DD	027b9H
	DD	027c1H
	DD	027c5H
	DD	027d1H
	DD	027e3H
	DD	027efH
	DD	02803H
	DD	02807H
	DD	0280dH
	DD	02813H
	DD	0281bH
	DD	0281fH
	DD	02821H
	DD	02831H
	DD	0283dH
	DD	0283fH
	DD	02849H
	DD	02851H
	DD	0285bH
	DD	0285dH
	DD	02861H
	DD	02867H
	DD	02875H
	DD	02881H
	DD	02897H
	DD	0289fH
	DD	028bbH
	DD	028bdH
	DD	028c1H
	DD	028d5H
	DD	028d9H
	DD	028dbH
	DD	028dfH
	DD	028edH
	DD	028f7H
	DD	02903H
	DD	02905H
	DD	02911H
	DD	02921H
	DD	02923H
	DD	0293fH
	DD	02947H
	DD	0295dH
	DD	02965H
	DD	02969H
	DD	0296fH
	DD	02975H
	DD	02983H
	DD	02987H
	DD	0298fH
	DD	0299bH
	DD	029a1H
	DD	029a7H
	DD	029abH
	DD	029bfH
	DD	029c3H
	DD	029d5H
	DD	029d7H
	DD	029e3H
	DD	029e9H
	DD	029edH
	DD	029f3H
	DD	02a01H
	DD	02a13H
	DD	02a1dH
	DD	02a25H
	DD	02a2fH
	DD	02a4fH
	DD	02a55H
	DD	02a5fH
	DD	02a65H
	DD	02a6bH
	DD	02a6dH
	DD	02a73H
	DD	02a83H
	DD	02a89H
	DD	02a8bH
	DD	02a97H
	DD	02a9dH
	DD	02ab9H
	DD	02abbH
	DD	02ac5H
	DD	02acdH
	DD	02addH
	DD	02ae3H
	DD	02aebH
	DD	02af1H
	DD	02afbH
	DD	02b13H
	DD	02b27H
	DD	02b31H
	DD	02b33H
	DD	02b3dH
	DD	02b3fH
	DD	02b4bH
	DD	02b4fH
	DD	02b55H
	DD	02b69H
	DD	02b6dH
	DD	02b6fH
	DD	02b7bH
	DD	02b8dH
	DD	02b97H
	DD	02b99H
	DD	02ba3H
	DD	02ba5H
	DD	02ba9H
	DD	02bbdH
	DD	02bcdH
	DD	02be7H
	DD	02bebH
	DD	02bf3H
	DD	02bf9H
	DD	02bfdH
	DD	02c09H
	DD	02c0fH
	DD	02c17H
	DD	02c23H
	DD	02c2fH
	DD	02c35H
	DD	02c39H
	DD	02c41H
	DD	02c57H
	DD	02c59H
	DD	02c69H
	DD	02c77H
	DD	02c81H
	DD	02c87H
	DD	02c93H
	DD	02c9fH
	DD	02cadH
	DD	02cb3H
	DD	02cb7H
	DD	02ccbH
	DD	02ccfH
	DD	02cdbH
	DD	02ce1H
	DD	02ce3H
	DD	02ce9H
	DD	02cefH
	DD	02cffH
	DD	02d07H
	DD	02d1dH
	DD	02d1fH
	DD	02d3bH
	DD	02d43H
	DD	02d49H
	DD	02d4dH
	DD	02d61H
	DD	02d65H
	DD	02d71H
	DD	02d89H
	DD	02d9dH
	DD	02da1H
	DD	02da9H
	DD	02db3H
	DD	02db5H
	DD	02dc5H
	DD	02dc7H
	DD	02dd3H
	DD	02ddfH
	DD	02e01H
	DD	02e03H
	DD	02e07H
	DD	02e0dH
	DD	02e19H
	DD	02e1fH
	DD	02e25H
	DD	02e2dH
	DD	02e33H
	DD	02e37H
	DD	02e39H
	DD	02e3fH
	DD	02e57H
	DD	02e5bH
	DD	02e6fH
	DD	02e79H
	DD	02e7fH
	DD	02e85H
	DD	02e93H
	DD	02e97H
	DD	02e9dH
	DD	02ea3H
	DD	02ea5H
	DD	02eb1H
	DD	02eb7H
	DD	02ec1H
	DD	02ec3H
	DD	02ecdH
	DD	02ed3H
	DD	02ee7H
	DD	02eebH
	DD	02f05H
	DD	02f09H
	DD	02f0bH
	DD	02f11H
	DD	02f27H
	DD	02f29H
	DD	02f41H
	DD	02f45H
	DD	02f4bH
	DD	02f4dH
	DD	02f51H
	DD	02f57H
	DD	02f6fH
	DD	02f75H
	DD	02f7dH
	DD	02f81H
	DD	02f83H
	DD	02fa5H
	DD	02fabH
	DD	02fb3H
	DD	02fc3H
	DD	02fcfH
	DD	02fd1H
	DD	02fdbH
	DD	02fddH
	DD	02fe7H
	DD	02fedH
	DD	02ff5H
	DD	02ff9H
	DD	03001H
	DD	0300dH
	DD	03023H
	DD	03029H
	DD	03037H
	DD	0303bH
	DD	03055H
	DD	03059H
	DD	0305bH
	DD	03067H
	DD	03071H
	DD	03079H
	DD	0307dH
	DD	03085H
	DD	03091H
	DD	03095H
	DD	030a3H
	DD	030a9H
	DD	030b9H
	DD	030bfH
	DD	030c7H
	DD	030cbH
	DD	030d1H
	DD	030d7H
	DD	030dfH
	DD	030e5H
	DD	030efH
	DD	030fbH
	DD	030fdH
	DD	03103H
	DD	03109H
	DD	03119H
	DD	03121H
	DD	03127H
	DD	0312dH
	DD	03139H
	DD	03143H
	DD	03145H
	DD	0314bH
	DD	0315dH
	DD	03161H
	DD	03167H
	DD	0316dH
	DD	03173H
	DD	0317fH
	DD	03191H
	DD	03199H
	DD	0319fH
	DD	031a9H
	DD	031b1H
	DD	031c3H
	DD	031c7H
	DD	031d5H
	DD	031dbH
	DD	031edH
	DD	031f7H
	DD	031ffH
	DD	03209H
	DD	03215H
	DD	03217H
	DD	0321dH
	DD	03229H
	DD	03235H
	DD	03259H
	DD	0325dH
	DD	03263H
	DD	0326bH
	DD	0326fH
	DD	03275H
	DD	03277H
	DD	0327bH
	DD	0328dH
	DD	03299H
	DD	0329fH
	DD	032a7H
	DD	032adH
	DD	032b3H
	DD	032b7H
	DD	032c9H
	DD	032cbH
	DD	032cfH
	DD	032d1H
	DD	032e9H
	DD	032edH
	DD	032f3H
	DD	032f9H
	DD	03307H
	DD	03325H
	DD	0332bH
	DD	0332fH
	DD	03335H
	DD	03341H
	DD	03347H
	DD	0335bH
	DD	0335fH
	DD	03367H
	DD	0336bH
	DD	03373H
	DD	03379H
	DD	0337fH
	DD	03383H
	DD	033a1H
	DD	033a3H
	DD	033adH
	DD	033b9H
	DD	033c1H
	DD	033cbH
	DD	033d3H
	DD	033ebH
	DD	033f1H
	DD	033fdH
	DD	03401H
	DD	0340fH
	DD	03413H
	DD	03419H
	DD	0341bH
	DD	03437H
	DD	03445H
	DD	03455H
	DD	03457H
	DD	03463H
	DD	03469H
	DD	0346dH
	DD	03481H
	DD	0348bH
	DD	03491H
	DD	03497H
	DD	0349dH
	DD	034a5H
	DD	034afH
	DD	034bbH
	DD	034c9H
	DD	034d3H
	DD	034e1H
	DD	034f1H
	DD	034ffH
	DD	03509H
	DD	03517H
	DD	0351dH
	DD	0352dH
	DD	03533H
	DD	0353bH
	DD	03541H
	DD	03551H
	DD	03565H
	DD	0356fH
	DD	03571H
	DD	03577H
	DD	0357bH
	DD	0357dH
	DD	03581H
	DD	0358dH
	DD	0358fH
	DD	03599H
	DD	0359bH
	DD	035a1H
	DD	035b7H
	DD	035bdH
	DD	035bfH
	DD	035c3H
	DD	035d5H
	DD	035ddH
	DD	035e7H
	DD	035efH
	DD	03605H
	DD	03607H
	DD	03611H
	DD	03623H
	DD	03631H
	DD	03635H
	DD	03637H
	DD	0363bH
	DD	0364dH
	DD	0364fH
	DD	03653H
	DD	03659H
	DD	03661H
	DD	0366bH
	DD	0366dH
	DD	0368bH
	DD	0368fH
	DD	036adH
	DD	036afH
	DD	036b9H
	DD	036bbH
	DD	036cdH
	DD	036d1H
	DD	036e3H
	DD	036e9H
	DD	036f7H
	DD	03701H
	DD	03703H
	DD	03707H
	DD	0371bH
	DD	0373fH
	DD	03745H
	DD	03749H
	DD	0374fH
	DD	0375dH
	DD	03761H
	DD	03775H
	DD	0377fH
	DD	0378dH
	DD	037a3H
	DD	037a9H
	DD	037abH
	DD	037c9H
	DD	037d5H
	DD	037dfH
	DD	037f1H
	DD	037f3H
	DD	037f7H
	DD	03805H
	DD	0380bH
	DD	03821H
	DD	03833H
	DD	03835H
	DD	03841H
	DD	03847H
	DD	0384bH
	DD	03853H
	DD	03857H
	DD	0385fH
	DD	03865H
	DD	0386fH
	DD	03871H
	DD	0387dH
	DD	0388fH
	DD	03899H
	DD	038a7H
	DD	038b7H
	DD	038c5H
	DD	038c9H
	DD	038cfH
	DD	038d5H
	DD	038d7H
	DD	038ddH
	DD	038e1H
	DD	038e3H
	DD	038ffH
	DD	03901H
	DD	0391dH
	DD	03923H
	DD	03925H
	DD	03929H
	DD	0392fH
	DD	0393dH
	DD	03941H
	DD	0394dH
	DD	0395bH
	DD	0396bH
	DD	03979H
	DD	0397dH
	DD	03983H
	DD	0398bH
	DD	03991H
	DD	03995H
	DD	0399bH
	DD	039a1H
	DD	039a7H
	DD	039afH
	DD	039b3H
	DD	039bbH
	DD	039bfH
	DD	039cdH
	DD	039ddH
	DD	039e5H
	DD	039ebH
	DD	039efH
	DD	039fbH
	DD	03a03H
	DD	03a13H
	DD	03a15H
	DD	03a1fH
	DD	03a27H
	DD	03a2bH
	DD	03a31H
	DD	03a4bH
	DD	03a51H
	DD	03a5bH
	DD	03a63H
	DD	03a67H
	DD	03a6dH
	DD	03a79H
	DD	03a87H
	DD	03aa5H
	DD	03aa9H
	DD	03ab7H
	DD	03acdH
	DD	03ad5H
	DD	03ae1H
	DD	03ae5H
	DD	03aebH
	DD	03af3H
	DD	03afdH
	DD	03b03H
	DD	03b11H
	DD	03b1bH
	DD	03b21H
	DD	03b23H
	DD	03b2dH
	DD	03b39H
	DD	03b45H
	DD	03b53H
	DD	03b59H
	DD	03b5fH
	DD	03b71H
	DD	03b7bH
	DD	03b81H
	DD	03b89H
	DD	03b9bH
	DD	03b9fH
	DD	03ba5H
	DD	03ba7H
	DD	03badH
	DD	03bb7H
	DD	03bb9H
	DD	03bc3H
	DD	03bcbH
	DD	03bd1H
	DD	03bd7H
	DD	03be1H
	DD	03be3H
	DD	03bf5H
	DD	03bffH
	DD	03c01H
	DD	03c0dH
	DD	03c11H
	DD	03c17H
	DD	03c1fH
	DD	03c29H
	DD	03c35H
	DD	03c43H
	DD	03c4fH
	DD	03c53H
	DD	03c5bH
	DD	03c65H
	DD	03c6bH
	DD	03c71H
	DD	03c85H
	DD	03c89H
	DD	03c97H
	DD	03ca7H
	DD	03cb5H
	DD	03cbfH
	DD	03cc7H
	DD	03cd1H
	DD	03cddH
	DD	03cdfH
	DD	03cf1H
	DD	03cf7H
	DD	03d03H
	DD	03d0dH
	DD	03d19H
	DD	03d1bH
	DD	03d1fH
	DD	03d21H
	DD	03d2dH
	DD	03d33H
	DD	03d37H
	DD	03d3fH
	DD	03d43H
	DD	03d6fH
	DD	03d73H
	DD	03d75H
	DD	03d79H
	DD	03d7bH
	DD	03d85H
	DD	03d91H
	DD	03d97H
	DD	03d9dH
	DD	03dabH
	DD	03dafH
	DD	03db5H
	DD	03dbbH
	DD	03dc1H
	DD	03dc9H
	DD	03dcfH
	DD	03df3H
	DD	03e05H
	DD	03e09H
	DD	03e0fH
	DD	03e11H
	DD	03e1dH
	DD	03e23H
	DD	03e29H
	DD	03e2fH
	DD	03e33H
	DD	03e41H
	DD	03e57H
	DD	03e63H
	DD	03e65H
	DD	03e77H
	DD	03e81H
	DD	03e87H
	DD	03ea1H
	DD	03eb9H
	DD	03ebdH
	DD	03ebfH
	DD	03ec3H
	DD	03ec5H
	DD	03ec9H
	DD	03ed7H
	DD	03edbH
	DD	03ee1H
	DD	03ee7H
	DD	03eefH
	DD	03effH
	DD	03f0bH
	DD	03f0dH
	DD	03f37H
	DD	03f3bH
	DD	03f3dH
	DD	03f41H
	DD	03f59H
	DD	03f5fH
	DD	03f65H
	DD	03f67H
	DD	03f79H
	DD	03f7dH
	DD	03f8bH
	DD	03f91H
	DD	03fadH
	DD	03fbfH
	DD	03fcdH
	DD	03fd3H
	DD	03fddH
	DD	03fe9H
	DD	03febH
	DD	03ff1H
	DD	03ffdH
	DD	0401bH
	DD	04021H
	DD	04025H
	DD	0402bH
	DD	04031H
	DD	0403fH
	DD	04043H
	DD	04045H
	DD	0405dH
	DD	04061H
	DD	04067H
	DD	0406dH
	DD	04087H
	DD	04091H
	DD	040a3H
	DD	040a9H
	DD	040b1H
	DD	040b7H
	DD	040bdH
	DD	040dbH
	DD	040dfH
	DD	040ebH
	DD	040f7H
	DD	040f9H
	DD	04109H
	DD	0410bH
	DD	04111H
	DD	04115H
	DD	04121H
	DD	04133H
	DD	04135H
	DD	0413bH
	DD	0413fH
	DD	04159H
	DD	04165H
	DD	0416bH
	DD	04177H
	DD	0417bH
	DD	04193H
	DD	041abH
	DD	041b7H
	DD	041bdH
	DD	041bfH
	DD	041cbH
	DD	041e7H
	DD	041efH
	DD	041f3H
	DD	041f9H
	DD	04205H
	DD	04207H
	DD	04219H
	DD	0421fH
	DD	04223H
	DD	04229H
	DD	0422fH
	DD	04243H
	DD	04253H
	DD	04255H
	DD	0425bH
	DD	04261H
	DD	04273H
	DD	0427dH
	DD	04283H
	DD	04285H
	DD	04289H
	DD	04291H
	DD	04297H
	DD	0429dH
	DD	042b5H
	DD	042c5H
	DD	042cbH
	DD	042d3H
	DD	042ddH
	DD	042e3H
	DD	042f1H
	DD	04307H
	DD	0430fH
	DD	0431fH
	DD	04325H
	DD	04327H
	DD	04333H
	DD	04337H
	DD	04339H
	DD	0434fH
	DD	04357H
	DD	04369H
	DD	0438bH
	DD	0438dH
	DD	04393H
	DD	043a5H
	DD	043a9H
	DD	043afH
	DD	043b5H
	DD	043bdH
	DD	043c7H
	DD	043cfH
	DD	043e1H
	DD	043e7H
	DD	043ebH
	DD	043edH
	DD	043f1H
	DD	043f9H
	DD	04409H
	DD	0440bH
	DD	04417H
	DD	04423H
	DD	04429H
	DD	0443bH
	DD	0443fH
	DD	04445H
	DD	0444bH
	DD	04451H
	DD	04453H
	DD	04459H
	DD	04465H
	DD	0446fH
	DD	04483H
	DD	0448fH
	DD	044a1H
	DD	044a5H
	DD	044abH
	DD	044adH
	DD	044bdH
	DD	044bfH
	DD	044c9H
	DD	044d7H
	DD	044dbH
	DD	044f9H
	DD	044fbH
	DD	04505H
	DD	04511H
	DD	04513H
	DD	0452bH
	DD	04531H
	DD	04541H
	DD	04549H
	DD	04553H
	DD	04555H
	DD	04561H
	DD	04577H
	DD	0457dH
	DD	0457fH
	DD	0458fH
	DD	045a3H
	DD	045adH
	DD	045afH
	DD	045bbH
	DD	045c7H
	DD	045d9H
	DD	045e3H
	DD	045efH
	DD	045f5H
	DD	045f7H
	DD	04601H
	DD	04603H
	DD	04609H
	DD	04613H
	DD	04625H
	DD	04627H
	DD	04633H
	DD	04639H
	DD	0463dH
	DD	04643H
	DD	04645H
	DD	0465dH
	DD	04679H
	DD	0467bH
	DD	0467fH
	DD	04681H
	DD	0468bH
	DD	0468dH
	DD	0469dH
	DD	046a9H
	DD	046b1H
	DD	046c7H
	DD	046c9H
	DD	046cfH
	DD	046d3H
	DD	046d5H
	DD	046dfH
	DD	046e5H
	DD	046f9H
	DD	04705H
	DD	0470fH
	DD	04717H
	DD	04723H
	DD	04729H
	DD	0472fH
	DD	04735H
	DD	04739H
	DD	0474bH
	DD	0474dH
	DD	04751H
	DD	0475dH
	DD	0476fH
	DD	04771H
	DD	0477dH
	DD	04783H
	DD	04787H
	DD	04789H
	DD	04799H
	DD	047a5H
	DD	047b1H
	DD	047bfH
	DD	047c3H
	DD	047cbH
	DD	047ddH
	DD	047e1H
	DD	047edH
	DD	047fbH
	DD	04801H
	DD	04807H
	DD	0480bH
	DD	04813H
	DD	04819H
	DD	0481dH
	DD	04831H
	DD	0483dH
	DD	04847H
	DD	04855H
	DD	04859H
	DD	0485bH
	DD	0486bH
	DD	0486dH
	DD	04879H
	DD	04897H
	DD	0489bH
	DD	048a1H
	DD	048b9H
	DD	048cdH
	DD	048e5H
	DD	048efH
	DD	048f7H
	DD	04903H
	DD	0490dH
	DD	04919H
	DD	0491fH
	DD	0492bH
	DD	04937H
	DD	0493dH
	DD	04945H
	DD	04955H
	DD	04963H
	DD	04969H
	DD	0496dH
	DD	04973H
	DD	04997H
	DD	049abH
	DD	049b5H
	DD	049d3H
	DD	049dfH
	DD	049e1H
	DD	049e5H
	DD	049e7H
	DD	04a03H
	DD	04a0fH
	DD	04a1dH
	DD	04a23H
	DD	04a39H
	DD	04a41H
	DD	04a45H
	DD	04a57H
	DD	04a5dH
	DD	04a6bH
	DD	04a7dH
	DD	04a81H
	DD	04a87H
	DD	04a89H
	DD	04a8fH
	DD	04ab1H
	DD	04ac3H
	DD	04ac5H
	DD	04ad5H
	DD	04adbH
	DD	04aedH
	DD	04aefH
	DD	04b07H
	DD	04b0bH
	DD	04b0dH
	DD	04b13H
	DD	04b1fH
	DD	04b25H
	DD	04b31H
	DD	04b3bH
	DD	04b43H
	DD	04b49H
	DD	04b59H
	DD	04b65H
	DD	04b6dH
	DD	04b77H
	DD	04b85H
	DD	04badH
	DD	04bb3H
	DD	04bb5H
	DD	04bbbH
	DD	04bbfH
	DD	04bcbH
	DD	04bd9H
	DD	04bddH
	DD	04bdfH
	DD	04be3H
	DD	04be5H
	DD	04be9H
	DD	04bf1H
	DD	04bf7H
	DD	04c01H
	DD	04c07H
	DD	04c0dH
	DD	04c0fH
	DD	04c15H
	DD	04c1bH
	DD	04c21H
	DD	04c2dH
	DD	04c33H
	DD	04c4bH
	DD	04c55H
	DD	04c57H
	DD	04c61H
	DD	04c67H
	DD	04c73H
	DD	04c79H
	DD	04c7fH
	DD	04c8dH
	DD	04c93H
	DD	04c99H
	DD	04ccdH
	DD	04ce1H
	DD	04ce7H
	DD	04cf1H
	DD	04cf3H
	DD	04cfdH
	DD	04d05H
	DD	04d0fH
	DD	04d1bH
	DD	04d27H
	DD	04d29H
	DD	04d2fH
	DD	04d33H
	DD	04d41H
	DD	04d51H
	DD	04d59H
	DD	04d65H
	DD	04d6bH
	DD	04d81H
	DD	04d83H
	DD	04d8dH
	DD	04d95H
	DD	04d9bH
	DD	04db1H
	DD	04db3H
	DD	04dc9H
	DD	04dcfH
	DD	04dd7H
	DD	04de1H
	DD	04dedH
	DD	04df9H
	DD	04dfbH
	DD	04e05H
	DD	04e0bH
	DD	04e17H
	DD	04e19H
	DD	04e1dH
	DD	04e2bH
	DD	04e35H
	DD	04e37H
	DD	04e3dH
	DD	04e4fH
	DD	04e53H
	DD	04e5fH
	DD	04e67H
	DD	04e79H
	DD	04e85H
	DD	04e8bH
	DD	04e91H
	DD	04e95H
	DD	04e9bH
	DD	04ea1H
	DD	04eafH
	DD	04eb3H
	DD	04eb5H
	DD	04ec1H
	DD	04ecdH
	DD	04ed1H
	DD	04ed7H
	DD	04ee9H
	DD	04efbH
	DD	04f07H
	DD	04f09H
	DD	04f19H
	DD	04f25H
	DD	04f2dH
	DD	04f3fH
	DD	04f49H
	DD	04f63H
	DD	04f67H
	DD	04f6dH
	DD	04f75H
	DD	04f7bH
	DD	04f81H
	DD	04f85H
	DD	04f87H
	DD	04f91H
	DD	04fa5H
	DD	04fa9H
	DD	04fafH
	DD	04fb7H
	DD	04fbbH
	DD	04fcfH
	DD	04fd9H
	DD	04fdbH
	DD	04ffdH
	DD	04fffH
	DD	05003H
	DD	0501bH
	DD	0501dH
	DD	05029H
	DD	05035H
	DD	0503fH
	DD	05045H
	DD	05047H
	DD	05053H
	DD	05071H
	DD	05077H
	DD	05083H
	DD	05093H
	DD	0509fH
	DD	050a1H
	DD	050b7H
	DD	050c9H
	DD	050d5H
	DD	050e3H
	DD	050edH
	DD	050efH
	DD	050fbH
	DD	05107H
	DD	0510bH
	DD	0510dH
	DD	05111H
	DD	05117H
	DD	05123H
	DD	05125H
	DD	05135H
	DD	05147H
	DD	05149H
	DD	05171H
	DD	05179H
	DD	05189H
	DD	0518fH
	DD	05197H
	DD	051a1H
	DD	051a3H
	DD	051a7H
	DD	051b9H
	DD	051c1H
	DD	051cbH
	DD	051d3H
	DD	051dfH
	DD	051e3H
	DD	051f5H
	DD	051f7H
	DD	05209H
	DD	05213H
	DD	05215H
	DD	05219H
	DD	0521bH
	DD	0521fH
	DD	05227H
	DD	05243H
	DD	05245H
	DD	0524bH
	DD	05261H
	DD	0526dH
	DD	05273H
	DD	05281H
	DD	05293H
	DD	05297H
	DD	0529dH
	DD	052a5H
	DD	052abH
	DD	052b1H
	DD	052bbH
	DD	052c3H
	DD	052c7H
	DD	052c9H
	DD	052dbH
	DD	052e5H
	DD	052ebH
	DD	052ffH
	DD	05315H
	DD	0531dH
	DD	05323H
	DD	05341H
	DD	05345H
	DD	05347H
	DD	0534bH
	DD	0535dH
	DD	05363H
	DD	05381H
	DD	05383H
	DD	05387H
	DD	0538fH
	DD	05395H
	DD	05399H
	DD	0539fH
	DD	053abH
	DD	053b9H
	DD	053dbH
	DD	053e9H
	DD	053efH
	DD	053f3H
	DD	053f5H
	DD	053fbH
	DD	053ffH
	DD	0540dH
	DD	05411H
	DD	05413H
	DD	05419H
	DD	05435H
	DD	05437H
	DD	0543bH
	DD	05441H
	DD	05449H
	DD	05453H
	DD	05455H
	DD	0545fH
	DD	05461H
	DD	0546bH
	DD	0546dH
	DD	05471H
	DD	0548fH
	DD	05491H
	DD	0549dH
	DD	054a9H
	DD	054b3H
	DD	054c5H
	DD	054d1H
	DD	054dfH
	DD	054e9H
	DD	054ebH
	DD	054f7H
	DD	054fdH
	DD	05507H
	DD	0550dH
	DD	0551bH
	DD	05527H
	DD	0552bH
	DD	05539H
	DD	0553dH
	DD	0554fH
	DD	05551H
	DD	0555bH
	DD	05563H
	DD	05567H
	DD	0556fH
	DD	05579H
	DD	05585H
	DD	05597H
	DD	055a9H
	DD	055b1H
	DD	055b7H
	DD	055c9H
	DD	055d9H
	DD	055e7H
	DD	055edH
	DD	055f3H
	DD	055fdH
	DD	0560bH
	DD	0560fH
	DD	05615H
	DD	05617H
	DD	05623H
	DD	0562fH
	DD	05633H
	DD	05639H
	DD	0563fH
	DD	0564bH
	DD	0564dH
	DD	0565dH
	DD	0565fH
	DD	0566bH
	DD	05671H
	DD	05675H
	DD	05683H
	DD	05689H
	DD	0568dH
	DD	0568fH
	DD	0569bH
	DD	056adH
	DD	056b1H
	DD	056d5H
	DD	056e7H
	DD	056f3H
	DD	056ffH
	DD	05701H
	DD	05705H
	DD	05707H
	DD	0570bH
	DD	05713H
	DD	0571fH
	DD	05723H
	DD	05747H
	DD	0574dH
	DD	0575fH
	DD	05761H
	DD	0576dH
	DD	05777H
	DD	0577dH
	DD	05789H
	DD	057a1H
	DD	057a9H
	DD	057afH
	DD	057b5H
	DD	057c5H
	DD	057d1H
	DD	057d3H
	DD	057e5H
	DD	057efH
	DD	05803H
	DD	0580dH
	DD	0580fH
	DD	05815H
	DD	05827H
	DD	0582bH
	DD	0582dH
	DD	05855H
	DD	0585bH
	DD	0585dH
	DD	0586dH
	DD	0586fH
	DD	05873H
	DD	0587bH
	DD	0588dH
	DD	05897H
	DD	058a3H
	DD	058a9H
	DD	058abH
	DD	058b5H
	DD	058bdH
	DD	058c1H
	DD	058c7H
	DD	058d3H
	DD	058d5H
	DD	058dfH
	DD	058f1H
	DD	058f9H
	DD	058ffH
	DD	05903H
	DD	05917H
	DD	0591bH
	DD	05921H
	DD	05945H
	DD	0594bH
	DD	0594dH
	DD	05957H
	DD	0595dH
	DD	05975H
	DD	0597bH
	DD	05989H
	DD	05999H
	DD	0599fH
	DD	059b1H
	DD	059b3H
	DD	059bdH
	DD	059d1H
	DD	059dbH
	DD	059e3H
	DD	059e9H
	DD	059edH
	DD	059f3H
	DD	059f5H
	DD	059ffH
	DD	05a01H
	DD	05a0dH
	DD	05a11H
	DD	05a13H
	DD	05a17H
	DD	05a1fH
	DD	05a29H
	DD	05a2fH
	DD	05a3bH
	DD	05a4dH
	DD	05a5bH
	DD	05a67H
	DD	05a77H
	DD	05a7fH
	DD	05a85H
	DD	05a95H
	DD	05a9dH
	DD	05aa1H
	DD	05aa3H
	DD	05aa9H
	DD	05abbH
	DD	05ad3H
	DD	05ae5H
	DD	05aefH
	DD	05afbH
	DD	05afdH
	DD	05b01H
	DD	05b0fH
	DD	05b19H
	DD	05b1fH
	DD	05b25H
	DD	05b2bH
	DD	05b3dH
	DD	05b49H
	DD	05b4bH
	DD	05b67H
	DD	05b79H
	DD	05b87H
	DD	05b97H
	DD	05ba3H
	DD	05bb1H
	DD	05bc9H
	DD	05bd5H
	DD	05bebH
	DD	05bf1H
	DD	05bf3H
	DD	05bfdH
	DD	05c05H
	DD	05c09H
	DD	05c0bH
	DD	05c0fH
	DD	05c1dH
	DD	05c29H
	DD	05c2fH
	DD	05c33H
	DD	05c39H
	DD	05c47H
	DD	05c4bH
	DD	05c4dH
	DD	05c51H
	DD	05c6fH
	DD	05c75H
	DD	05c77H
	DD	05c7dH
	DD	05c87H
	DD	05c89H
	DD	05ca7H
	DD	05cbdH
	DD	05cbfH
	DD	05cc3H
	DD	05cc9H
	DD	05cd1H
	DD	05cd7H
	DD	05cddH
	DD	05cedH
	DD	05cf9H
	DD	05d05H
	DD	05d0bH
	DD	05d13H
	DD	05d17H
	DD	05d19H
	DD	05d31H
	DD	05d3dH
	DD	05d41H
	DD	05d47H
	DD	05d4fH
	DD	05d55H
	DD	05d5bH
	DD	05d65H
	DD	05d67H
	DD	05d6dH
	DD	05d79H
	DD	05d95H
	DD	05da3H
	DD	05da9H
	DD	05dadH
	DD	05db9H
	DD	05dc1H
	DD	05dc7H
	DD	05dd3H
	DD	05dd7H
	DD	05dddH
	DD	05debH
	DD	05df1H
	DD	05dfdH
	DD	05e07H
	DD	05e0dH
	DD	05e13H
	DD	05e1bH
	DD	05e21H
	DD	05e27H
	DD	05e2bH
	DD	05e2dH
	DD	05e31H
	DD	05e39H
	DD	05e45H
	DD	05e49H
	DD	05e57H
	DD	05e69H
	DD	05e73H
	DD	05e75H
	DD	05e85H
	DD	05e8bH
	DD	05e9fH
	DD	05ea5H
	DD	05eafH
	DD	05eb7H
	DD	05ebbH
	DD	05ed9H
	DD	05efdH
	DD	05f09H
	DD	05f11H
	DD	05f27H
	DD	05f33H
	DD	05f35H
	DD	05f3bH
	DD	05f47H
	DD	05f57H
	DD	05f5dH
	DD	05f63H
	DD	05f65H
	DD	05f77H
	DD	05f7bH
	DD	05f95H
	DD	05f99H
	DD	05fa1H
	DD	05fb3H
	DD	05fbdH
	DD	05fc5H
	DD	05fcfH
	DD	05fd5H
	DD	05fe3H
	DD	05fe7H
	DD	05ffbH
	DD	06011H
	DD	06023H
	DD	0602fH
	DD	06037H
	DD	06053H
	DD	0605fH
	DD	06065H
	DD	0606bH
	DD	06073H
	DD	06079H
	DD	06085H
	DD	0609dH
	DD	060adH
	DD	060bbH
	DD	060bfH
	DD	060cdH
	DD	060d9H
	DD	060dfH
	DD	060e9H
	DD	060f5H
	DD	06109H
	DD	0610fH
	DD	06113H
	DD	0611bH
	DD	0612dH
	DD	06139H
	DD	0614bH
	DD	06155H
	DD	06157H
	DD	0615bH
	DD	0616fH
	DD	06179H
	DD	06187H
	DD	0618bH
	DD	06191H
	DD	06193H
	DD	0619dH
	DD	061b5H
	DD	061c7H
	DD	061c9H
	DD	061cdH
	DD	061e1H
	DD	061f1H
	DD	061ffH
	DD	06209H
	DD	06217H
	DD	0621dH
	DD	06221H
	DD	06227H
	DD	0623bH
	DD	06241H
	DD	0624bH
	DD	06251H
	DD	06253H
	DD	0625fH
	DD	06265H
	DD	06283H
	DD	0628dH
	DD	06295H
	DD	0629bH
	DD	0629fH
	DD	062a5H
	DD	062adH
	DD	062d5H
	DD	062d7H
	DD	062dbH
	DD	062ddH
	DD	062e9H
	DD	062fbH
	DD	062ffH
	DD	06305H
	DD	0630dH
	DD	06317H
	DD	0631dH
	DD	0632fH
	DD	06341H
	DD	06343H
	DD	0634fH
	DD	0635fH
	DD	06367H
	DD	0636dH
	DD	06371H
	DD	06377H
	DD	0637dH
	DD	0637fH
	DD	063b3H
	DD	063c1H
	DD	063c5H
	DD	063d9H
	DD	063e9H
	DD	063ebH
	DD	063efH
	DD	063f5H
	DD	06401H
	DD	06403H
	DD	06409H
	DD	06415H
	DD	06421H
	DD	06427H
	DD	0642bH
	DD	06439H
	DD	06443H
	DD	06449H
	DD	0644fH
	DD	0645dH
	DD	06467H
	DD	06475H
	DD	06485H
	DD	0648dH
	DD	06493H
	DD	0649fH
	DD	064a3H
	DD	064abH
	DD	064c1H
	DD	064c7H
	DD	064c9H
	DD	064dbH
	DD	064f1H
	DD	064f7H
	DD	064f9H
	DD	0650bH
	DD	06511H
	DD	06521H
	DD	0652fH
	DD	06539H
	DD	0653fH
	DD	0654bH
	DD	0654dH
	DD	06553H
	DD	06557H
	DD	0655fH
	DD	06571H
	DD	0657dH
	DD	0658dH
	DD	0658fH
	DD	06593H
	DD	065a1H
	DD	065a5H
	DD	065adH
	DD	065b9H
	DD	065c5H
	DD	065e3H
	DD	065f3H
	DD	065fbH
	DD	065ffH
	DD	06601H
	DD	06607H
	DD	0661dH
	DD	06629H
	DD	06631H
	DD	0663bH
	DD	06641H
	DD	06647H
	DD	0664dH
	DD	0665bH
	DD	06661H
	DD	06673H
	DD	0667dH
	DD	06689H
	DD	0668bH
	DD	06695H
	DD	06697H
	DD	0669bH
	DD	066b5H
	DD	066b9H
	DD	066c5H
	DD	066cdH
	DD	066d1H
	DD	066e3H
	DD	066ebH
	DD	066f5H
	DD	06703H
	DD	06713H
	DD	06719H
	DD	0671fH
	DD	06727H
	DD	06731H
	DD	06737H
	DD	0673fH
	DD	06745H
	DD	06751H
	DD	0675bH
	DD	0676fH
	DD	06779H
	DD	06781H
	DD	06785H
	DD	06791H
	DD	067abH
	DD	067bdH
	DD	067c1H
	DD	067cdH
	DD	067dfH
	DD	067e5H
	DD	06803H
	DD	06809H
	DD	06811H
	DD	06817H
	DD	0682dH
	DD	06839H
	DD	0683bH
	DD	0683fH
	DD	06845H
	DD	0684bH
	DD	0684dH
	DD	06857H
	DD	06859H
	DD	0685dH
	DD	06863H
	DD	06869H
	DD	0686bH
	DD	06871H
	DD	06887H
	DD	06899H
	DD	0689fH
	DD	068b1H
	DD	068bdH
	DD	068c5H
	DD	068d1H
	DD	068d7H
	DD	068e1H
	DD	068edH
	DD	068efH
	DD	068ffH
	DD	06901H
	DD	0690bH
	DD	0690dH
	DD	06917H
	DD	06929H
	DD	0692fH
	DD	06943H
	DD	06947H
	DD	06949H
	DD	0694fH
	DD	06965H
	DD	0696bH
	DD	06971H
	DD	06983H
	DD	06989H
	DD	06997H
	DD	069a3H
	DD	069b3H
	DD	069b5H
	DD	069bbH
	DD	069c1H
	DD	069c5H
	DD	069d3H
	DD	069dfH
	DD	069e3H
	DD	069e5H
	DD	069f7H
	DD	06a07H
	DD	06a2bH
	DD	06a37H
	DD	06a3dH
	DD	06a4bH
	DD	06a67H
	DD	06a69H
	DD	06a75H
	DD	06a7bH
	DD	06a87H
	DD	06a8dH
	DD	06a91H
	DD	06a93H
	DD	06aa3H
	DD	06ac1H
	DD	06ac9H
	DD	06ae1H
	DD	06ae7H
	DD	06b05H
	DD	06b0fH
	DD	06b11H
	DD	06b23H
	DD	06b27H
	DD	06b2dH
	DD	06b39H
	DD	06b41H
	DD	06b57H
	DD	06b59H
	DD	06b5fH
	DD	06b75H
	DD	06b87H
	DD	06b89H
	DD	06b93H
	DD	06b95H
	DD	06b9fH
	DD	06bbdH
	DD	06bbfH
	DD	06bdbH
	DD	06be1H
	DD	06befH
	DD	06bffH
	DD	06c05H
	DD	06c19H
	DD	06c29H
	DD	06c2bH
	DD	06c31H
	DD	06c35H
	DD	06c55H
	DD	06c59H
	DD	06c5bH
	DD	06c5fH
	DD	06c65H
	DD	06c67H
	DD	06c73H
	DD	06c77H
	DD	06c7dH
	DD	06c83H
	DD	06c8fH
	DD	06c91H
	DD	06c97H
	DD	06c9bH
	DD	06ca1H
	DD	06ca9H
	DD	06cafH
	DD	06cb3H
	DD	06cc7H
	DD	06ccbH
	DD	06cebH
	DD	06cf5H
	DD	06cfdH
	DD	06d0dH
	DD	06d0fH
	DD	06d25H
	DD	06d27H
	DD	06d2bH
	DD	06d31H
	DD	06d39H
	DD	06d3fH
	DD	06d4fH
	DD	06d5dH
	DD	06d61H
	DD	06d73H
	DD	06d7bH
	DD	06d7fH
	DD	06d93H
	DD	06d99H
	DD	06da5H
	DD	06db1H
	DD	06db7H
	DD	06dc1H
	DD	06dc3H
	DD	06dcdH
	DD	06dcfH
	DD	06ddbH
	DD	06df7H
	DD	06e03H
	DD	06e15H
	DD	06e17H
	DD	06e29H
	DD	06e33H
	DD	06e3bH
	DD	06e45H
	DD	06e75H
	DD	06e77H
	DD	06e7bH
	DD	06e81H
	DD	06e89H
	DD	06e93H
	DD	06e95H
	DD	06e9fH
	DD	06ebdH
	DD	06ebfH
	DD	06ee3H
	DD	06ee9H
	DD	06ef3H
	DD	06ef9H
	DD	06efbH
	DD	06f0dH
	DD	06f11H
	DD	06f17H
	DD	06f1fH
	DD	06f2fH
	DD	06f3dH
	DD	06f4dH
	DD	06f53H
	DD	06f61H
	DD	06f65H
	DD	06f79H
	DD	06f7dH
	DD	06f83H
	DD	06f85H
	DD	06f8fH
	DD	06f9bH
	DD	06f9dH
	DD	06fa3H
	DD	06fafH
	DD	06fb5H
	DD	06fbbH
	DD	06fbfH
	DD	06fcbH
	DD	06fcdH
	DD	06fd3H
	DD	06fd7H
	DD	06fe3H
	DD	06fe9H
	DD	06ff1H
	DD	06ff5H
	DD	06ff7H
	DD	06ffdH
	DD	0700fH
	DD	07019H
	DD	0701fH
	DD	07027H
	DD	07033H
	DD	07039H
	DD	0704fH
	DD	07051H
	DD	07057H
	DD	07063H
	DD	07075H
	DD	07079H
	DD	07087H
	DD	0708dH
	DD	07091H
	DD	070a5H
	DD	070abH
	DD	070bbH
	DD	070c3H
	DD	070c7H
	DD	070cfH
	DD	070e5H
	DD	070edH
	DD	070f9H
	DD	070ffH
	DD	07105H
	DD	07115H
	DD	07121H
	DD	07133H
	DD	07151H
	DD	07159H
	DD	0715dH
	DD	0715fH
	DD	07163H
	DD	07169H
	DD	07183H
	DD	07187H
	DD	07195H
	DD	071adH
	DD	071c3H
	DD	071c9H
	DD	071cbH
	DD	071d1H
	DD	071dbH
	DD	071e1H
	DD	071efH
	DD	071f5H
	DD	071fbH
	DD	07207H
	DD	07211H
	DD	07217H
	DD	07219H
	DD	07225H
	DD	0722fH
	DD	0723bH
	DD	07243H
	DD	07255H
	DD	07267H
	DD	07271H
	DD	07277H
	DD	0727fH
	DD	0728fH
	DD	07295H
	DD	0729bH
	DD	072a3H
	DD	072b3H
	DD	072c7H
	DD	072cbH
	DD	072cdH
	DD	072d7H
	DD	072d9H
	DD	072e3H
	DD	072efH
	DD	072f5H
	DD	072fdH
	DD	07303H
	DD	0730dH
	DD	07321H
	DD	0732bH
	DD	0733dH
	DD	07357H
	DD	0735bH
	DD	07361H
	DD	0737fH
	DD	07381H
	DD	07385H
	DD	0738dH
	DD	07393H
	DD	0739fH
	DD	073abH
	DD	073bdH
	DD	073c1H
	DD	073c9H
	DD	073dfH
	DD	073e5H
	DD	073e7H
	DD	073f3H
	DD	07415H
	DD	0741bH
	DD	0742dH
	DD	07439H
	DD	0743fH
	DD	07441H
	DD	0745dH
	DD	0746bH
	DD	0747bH
	DD	07489H
	DD	0748dH
	DD	0749bH
	DD	074a7H
	DD	074abH
	DD	074b1H
	DD	074b7H
	DD	074b9H
	DD	074ddH
	DD	074e1H
	DD	074e7H
	DD	074fbH
	DD	07507H
	DD	0751fH
	DD	07525H
	DD	0753bH
	DD	0753dH
	DD	0754dH
	DD	0755fH
	DD	0756bH
	DD	07577H
	DD	07589H
	DD	0758bH
	DD	07591H
	DD	07597H
	DD	0759dH
	DD	075a1H
	DD	075a7H
	DD	075b5H
	DD	075b9H
	DD	075bbH
	DD	075d1H
	DD	075d9H
	DD	075e5H
	DD	075ebH
	DD	075f5H
	DD	075fbH
	DD	07603H
	DD	0760fH
	DD	07621H
	DD	0762dH
	DD	07633H
	DD	0763dH
	DD	0763fH
	DD	07655H
	DD	07663H
	DD	07669H
	DD	0766fH
	DD	07673H
	DD	07685H
	DD	0768bH
	DD	0769fH
	DD	076b5H
	DD	076b7H
	DD	076c3H
	DD	076dbH
	DD	076dfH
	DD	076f1H
	DD	07703H
	DD	07705H
	DD	0771bH
	DD	0771dH
	DD	07721H
	DD	0772dH
	DD	07735H
	DD	07741H
	DD	0774bH
	DD	07759H
	DD	0775dH
	DD	0775fH
	DD	07771H
	DD	07781H
	DD	077a7H
	DD	077adH
	DD	077b3H
	DD	077b9H
	DD	077c5H
	DD	077cfH
	DD	077d5H
	DD	077e1H
	DD	077e9H
	DD	077efH
	DD	077f3H
	DD	077f9H
	DD	07807H
	DD	07825H
	DD	0782bH
	DD	07835H
	DD	0783dH
	DD	07853H
	DD	07859H
	DD	07861H
	DD	0786dH
	DD	07877H
	DD	07879H
	DD	07883H
	DD	07885H
	DD	0788bH
	DD	07895H
	DD	07897H
	DD	078a1H
	DD	078adH
	DD	078bfH
	DD	078d3H
	DD	078d9H
	DD	078ddH
	DD	078e5H
	DD	078fbH
	DD	07901H
	DD	07907H
	DD	07925H
	DD	0792bH
	DD	07939H
	DD	0793fH
	DD	0794bH
	DD	07957H
	DD	0795dH
	DD	07967H
	DD	07969H
	DD	07973H
	DD	07991H
	DD	07993H
	DD	079a3H
	DD	079abH
	DD	079afH
	DD	079b1H
	DD	079b7H
	DD	079c9H
	DD	079cdH
	DD	079cfH
	DD	079d5H
	DD	079d9H
	DD	079f3H
	DD	079f7H
	DD	079ffH
	DD	07a05H
	DD	07a0fH
	DD	07a11H
	DD	07a15H
	DD	07a1bH
	DD	07a23H
	DD	07a27H
	DD	07a2dH
	DD	07a4bH
	DD	07a57H
	DD	07a59H
	DD	07a5fH
	DD	07a65H
	DD	07a69H
	DD	07a7dH
	DD	07a93H
	DD	07a9bH
	DD	07a9fH
	DD	07aa1H
	DD	07aa5H
	DD	07aedH
	DD	07af5H
	DD	07af9H
	DD	07b01H
	DD	07b17H
	DD	07b19H
	DD	07b1dH
	DD	07b2bH
	DD	07b35H
	DD	07b37H
	DD	07b3bH
	DD	07b4fH
	DD	07b55H
	DD	07b5fH
	DD	07b71H
	DD	07b77H
	DD	07b8bH
	DD	07b9bH
	DD	07ba1H
	DD	07ba9H
	DD	07bafH
	DD	07bb3H
	DD	07bc7H
	DD	07bd3H
	DD	07be9H
	DD	07bebH
	DD	07befH
	DD	07bf1H
	DD	07bfdH
	DD	07c07H
	DD	07c19H
	DD	07c1bH
	DD	07c31H
	DD	07c37H
	DD	07c49H
	DD	07c67H
	DD	07c69H
	DD	07c73H
	DD	07c81H
	DD	07c8bH
	DD	07c93H
	DD	07ca3H
	DD	07cd5H
	DD	07cdbH
	DD	07ce5H
	DD	07cedH
	DD	07cf7H
	DD	07d03H
	DD	07d09H
	DD	07d1bH
	DD	07d1dH
	DD	07d33H
	DD	07d39H
	DD	07d3bH
	DD	07d3fH
	DD	07d45H
	DD	07d4dH
	DD	07d53H
	DD	07d59H
	DD	07d63H
	DD	07d75H
	DD	07d77H
	DD	07d8dH
	DD	07d8fH
	DD	07d9fH
	DD	07dadH
	DD	07db7H
	DD	07dbdH
	DD	07dbfH
	DD	07dcbH
	DD	07dd5H
	DD	07de9H
	DD	07dedH
	DD	07dfbH
	DD	07e01H
	DD	07e05H
	DD	07e29H
	DD	07e2bH
	DD	07e2fH
	DD	07e35H
	DD	07e41H
	DD	07e43H
	DD	07e47H
	DD	07e55H
	DD	07e61H
	DD	07e67H
	DD	07e6bH
	DD	07e71H
	DD	07e73H
	DD	07e79H
	DD	07e7dH
	DD	07e91H
	DD	07e9bH
	DD	07e9dH
	DD	07ea7H
	DD	07eadH
	DD	07eb9H
	DD	07ebbH
	DD	07ed3H
	DD	07edfH
	DD	07eebH
	DD	07ef1H
	DD	07ef7H
	DD	07efbH
	DD	07f13H
	DD	07f15H
	DD	07f19H
	DD	07f31H
	DD	07f33H
	DD	07f39H
	DD	07f3dH
	DD	07f43H
	DD	07f4bH
	DD	07f5bH
	DD	07f61H
	DD	07f63H
	DD	07f6dH
	DD	07f79H
	DD	07f87H
	DD	07f8dH
	DD	07fafH
	DD	07fb5H
	DD	07fc3H
	DD	07fc9H
	DD	07fcdH
	DD	07fcfH
	DD	07fedH
	DD	08003H
	DD	0800bH
	DD	0800fH
	DD	08015H
	DD	0801dH
	DD	08021H
	DD	08023H
	DD	0803fH
	DD	08041H
	DD	08047H
	DD	0804bH
	DD	08065H
	DD	08077H
	DD	0808dH
	DD	0808fH
	DD	08095H
	DD	080a5H
	DD	080abH
	DD	080adH
	DD	080bdH
	DD	080c9H
	DD	080cbH
	DD	080d7H
	DD	080dbH
	DD	080e1H
	DD	080e7H
	DD	080f5H
	DD	080ffH
	DD	08105H
	DD	0810dH
	DD	08119H
	DD	0811dH
	DD	0812fH
	DD	08131H
	DD	0813bH
	DD	08143H
	DD	08153H
	DD	08159H
	DD	0815fH
	DD	0817dH
	DD	0817fH
	DD	08189H
	DD	0819bH
	DD	0819dH
	DD	081a7H
	DD	081afH
	DD	081b3H
	DD	081bbH
	DD	081c7H
	DD	081dfH
	DD	08207H
	DD	08209H
	DD	08215H
	DD	0821fH
	DD	08225H
	DD	08231H
	DD	08233H
	DD	0823fH
	DD	08243H
	DD	08245H
	DD	08249H
	DD	0824fH
	DD	08261H
	DD	0826fH
	DD	0827bH
	DD	08281H
	DD	08285H
	DD	08293H
	DD	082b1H
	DD	082b5H
	DD	082bdH
	DD	082c7H
	DD	082cfH
	DD	082d5H
	DD	082dfH
	DD	082f1H
	DD	082f9H
	DD	082fdH
	DD	0830bH
	DD	0831bH
	DD	08321H
	DD	08329H
	DD	0832dH
	DD	08333H
	DD	08335H
	DD	0833fH
	DD	08341H
	DD	0834dH
	DD	08351H
	DD	08353H
	DD	08357H
	DD	0835dH
	DD	08365H
	DD	08369H
	DD	0836fH
	DD	0838fH
	DD	083a7H
	DD	083b1H
	DD	083b9H
	DD	083cbH
	DD	083d5H
	DD	083d7H
	DD	083ddH
	DD	083e7H
	DD	083e9H
	DD	083edH
	DD	083ffH
	DD	08405H
	DD	08411H
	DD	08413H
	DD	08423H
	DD	08425H
	DD	0843bH
	DD	08441H
	DD	08447H
	DD	0844fH
	DD	08461H
	DD	08465H
	DD	08477H
	DD	08483H
	DD	0848bH
	DD	08491H
	DD	08495H
	DD	084a9H
	DD	084afH
	DD	084cdH
	DD	084e3H
	DD	084efH
	DD	084f1H
	DD	084f7H
	DD	08509H
	DD	0850dH
	DD	0854bH
	DD	0854fH
	DD	08551H
	DD	0855dH
	DD	08563H
	DD	0856dH
	DD	0856fH
	DD	0857bH
	DD	08587H
	DD	085a3H
	DD	085a5H
	DD	085a9H
	DD	085b7H
	DD	085cdH
	DD	085d3H
	DD	085d5H
	DD	085dbH
	DD	085e1H
	DD	085ebH
	DD	085f9H
	DD	085fdH
	DD	085ffH
	DD	08609H
	DD	0860fH
	DD	08617H
	DD	08621H
	DD	0862fH
	DD	08639H
	DD	0863fH
	DD	08641H
	DD	0864dH
	DD	08663H
	DD	08675H
	DD	0867dH
	DD	08687H
	DD	08699H
	DD	086a5H
	DD	086a7H
	DD	086b3H
	DD	086b7H
	DD	086c3H
	DD	086c5H
	DD	086cfH
	DD	086d1H
	DD	086d7H
	DD	086e9H
	DD	086efH
	DD	086f5H
	DD	08717H
	DD	0871dH
	DD	0871fH
	DD	0872bH
	DD	0872fH
	DD	08735H
	DD	08747H
	DD	08759H
	DD	0875bH
	DD	0876bH
	DD	08771H
	DD	08777H
	DD	0877fH
	DD	08785H
	DD	0878fH
	DD	087a1H
	DD	087a9H
	DD	087b3H
	DD	087bbH
	DD	087c5H
	DD	087c7H
	DD	087cbH
	DD	087ddH
	DD	087f7H
	DD	08803H
	DD	08819H
	DD	0881bH
	DD	0881fH
	DD	08821H
	DD	08837H
	DD	0883dH
	DD	08843H
	DD	08851H
	DD	08861H
	DD	08867H
	DD	0887bH
	DD	08885H
	DD	08891H
	DD	08893H
	DD	088a5H
	DD	088cfH
	DD	088d3H
	DD	088ebH
	DD	088edH
	DD	088f3H
	DD	088fdH
	DD	08909H
	DD	0890bH
	DD	08911H
	DD	0891bH
	DD	08923H
	DD	08927H
	DD	0892dH
	DD	08939H
	DD	08945H
	DD	0894dH
	DD	08951H
	DD	08957H
	DD	08963H
	DD	08981H
	DD	08995H
	DD	0899bH
	DD	089b3H
	DD	089b9H
	DD	089c3H
	DD	089cfH
	DD	089d1H
	DD	089dbH
	DD	089efH
	DD	089f5H
	DD	089fbH
	DD	089ffH
	DD	08a0bH
	DD	08a19H
	DD	08a23H
	DD	08a35H
	DD	08a41H
	DD	08a49H
	DD	08a4fH
	DD	08a5bH
	DD	08a5fH
	DD	08a6dH
	DD	08a77H
	DD	08a79H
	DD	08a85H
	DD	08aa3H
	DD	08ab3H
	DD	08ab5H
	DD	08ac1H
	DD	08ac7H
	DD	08acbH
	DD	08acdH
	DD	08ad1H
	DD	08ad7H
	DD	08af1H
	DD	08af5H
	DD	08b07H
	DD	08b09H
	DD	08b0dH
	DD	08b13H
	DD	08b21H
	DD	08b57H
	DD	08b5dH
	DD	08b91H
	DD	08b93H
	DD	08ba3H
	DD	08ba9H
	DD	08bafH
	DD	08bbbH
	DD	08bd5H
	DD	08bd9H
	DD	08bdbH
	DD	08be1H
	DD	08bf7H
	DD	08bfdH
	DD	08bffH
	DD	08c0bH
	DD	08c17H
	DD	08c1dH
	DD	08c27H
	DD	08c39H
	DD	08c3bH
	DD	08c47H
	DD	08c53H
	DD	08c5dH
	DD	08c6fH
	DD	08c7bH
	DD	08c81H
	DD	08c89H
	DD	08c8fH
	DD	08c99H
	DD	08c9fH
	DD	08ca7H
	DD	08cabH
	DD	08cadH
	DD	08cb1H
	DD	08cc5H
	DD	08cddH
	DD	08ce3H
	DD	08ce9H
	DD	08cf3H
	DD	08d01H
	DD	08d0bH
	DD	08d0dH
	DD	08d23H
	DD	08d29H
	DD	08d37H
	DD	08d41H
	DD	08d5bH
	DD	08d5fH
	DD	08d71H
	DD	08d79H
	DD	08d85H
	DD	08d91H
	DD	08d9bH
	DD	08da7H
	DD	08dadH
	DD	08db5H
	DD	08dc5H
	DD	08dcbH
	DD	08dd3H
	DD	08dd9H
	DD	08ddfH
	DD	08df5H
	DD	08df7H
	DD	08e01H
	DD	08e15H
	DD	08e1fH
	DD	08e25H
	DD	08e51H
	DD	08e63H
	DD	08e69H
	DD	08e73H
	DD	08e75H
	DD	08e79H
	DD	08e7fH
	DD	08e8dH
	DD	08e91H
	DD	08eabH
	DD	08eafH
	DD	08eb1H
	DD	08ebdH
	DD	08ec7H
	DD	08ecfH
	DD	08ed3H
	DD	08edbH
	DD	08ee7H
	DD	08eebH
	DD	08ef7H
	DD	08effH
	DD	08f15H
	DD	08f1dH
	DD	08f23H
	DD	08f2dH
	DD	08f3fH
	DD	08f45H
	DD	08f4bH
	DD	08f53H
	DD	08f59H
	DD	08f65H
	DD	08f69H
	DD	08f71H
	DD	08f83H
	DD	08f8dH
	DD	08f99H
	DD	08f9fH
	DD	08fabH
	DD	08fadH
	DD	08fb3H
	DD	08fb7H
	DD	08fb9H
	DD	08fc9H
	DD	08fd5H
	DD	08fe1H
	DD	08fefH
	DD	08ff9H
	DD	09007H
	DD	0900dH
	DD	09017H
	DD	09023H
	DD	09025H
	DD	09031H
	DD	09037H
	DD	0903bH
	DD	09041H
	DD	09043H
	DD	0904fH
	DD	09053H
	DD	0906dH
	DD	09073H
	DD	09085H
	DD	0908bH
	DD	09095H
	DD	0909bH
	DD	0909dH
	DD	090afH
	DD	090b9H
	DD	090c1H
	DD	090c5H
	DD	090dfH
	DD	090e9H
	DD	090fdH
	DD	09103H
	DD	09113H
	DD	09127H
	DD	09133H
	DD	0913dH
	DD	09145H
	DD	0914fH
	DD	09151H
	DD	09161H
	DD	09167H
	DD	0917bH
	DD	09185H
	DD	09199H
	DD	0919dH
	DD	091bbH
	DD	091bdH
	DD	091c1H
	DD	091c9H
	DD	091d9H
	DD	091dbH
	DD	091edH
	DD	091f1H
	DD	091f3H
	DD	091f9H
	DD	09203H
	DD	09215H
	DD	09221H
	DD	0922fH
	DD	09241H
	DD	09247H
	DD	09257H
	DD	0926bH
	DD	09271H
	DD	09275H
	DD	0927dH
	DD	09283H
	DD	09287H
	DD	0928dH
	DD	09299H
	DD	092a1H
	DD	092abH
	DD	092adH
	DD	092b9H
	DD	092bfH
	DD	092c3H
	DD	092c5H
	DD	092cbH
	DD	092d5H
	DD	092d7H
	DD	092e7H
	DD	092f3H
	DD	09301H
	DD	0930bH
	DD	09311H
	DD	09319H
	DD	0931fH
	DD	0933bH
	DD	0933dH
	DD	09343H
	DD	09355H
	DD	09373H
	DD	09395H
	DD	09397H
	DD	093a7H
	DD	093b3H
	DD	093b5H
	DD	093c7H
	DD	093d7H
	DD	093ddH
	DD	093e5H
	DD	093efH
	DD	093f7H
	DD	09401H
	DD	09409H
	DD	09413H
	DD	0943fH
	DD	09445H
	DD	0944bH
	DD	0944fH
	DD	09463H
	DD	09467H
	DD	09469H
	DD	0946dH
	DD	0947bH
	DD	09497H
	DD	0949fH
	DD	094a5H
	DD	094b5H
	DD	094c3H
	DD	094e1H
	DD	094e7H
	DD	09505H
	DD	09509H
	DD	09517H
	DD	09521H
	DD	09527H
	DD	0952dH
	DD	09535H
	DD	09539H
	DD	0954bH
	DD	09557H
	DD	0955dH
	DD	0955fH
	DD	09575H
	DD	09581H
	DD	09589H
	DD	0958fH
	DD	0959bH
	DD	0959fH
	DD	095adH
	DD	095b1H
	DD	095b7H
	DD	095b9H
	DD	095bdH
	DD	095cfH
	DD	095e3H
	DD	095e9H
	DD	095f9H
	DD	0961fH
	DD	0962fH
	DD	09631H
	DD	09635H
	DD	0963bH
	DD	0963dH
	DD	09665H
	DD	0968fH
	DD	0969dH
	DD	096a1H
	DD	096a7H
	DD	096a9H
	DD	096c1H
	DD	096cbH
	DD	096d1H
	DD	096d3H
	DD	096e5H
	DD	096efH
	DD	096fbH
	DD	096fdH
	DD	0970dH
	DD	0970fH
	DD	09715H
	DD	09725H
	DD	0972bH
	DD	09733H
	DD	09737H
	DD	09739H
	DD	09743H
	DD	09749H
	DD	09751H
	DD	0975bH
	DD	0975dH
	DD	0976fH
	DD	0977fH
	DD	09787H
	DD	09793H
	DD	097a5H
	DD	097b1H
	DD	097b7H
	DD	097c3H
	DD	097cdH
	DD	097d3H
	DD	097d9H
	DD	097ebH
	DD	097f7H
	DD	09805H
	DD	09809H
	DD	0980bH
	DD	09815H
	DD	09829H
	DD	0982fH
	DD	0983bH
	DD	09841H
	DD	09851H
	DD	0986bH
	DD	0986fH
	DD	09881H
	DD	09883H
	DD	09887H
	DD	098a7H
	DD	098b1H
	DD	098b9H
	DD	098bfH
	DD	098c3H
	DD	098c9H
	DD	098cfH
	DD	098ddH
	DD	098e3H
	DD	098f5H
	DD	098f9H
	DD	098fbH
	DD	0990dH
	DD	09917H
	DD	0991fH
	DD	09929H
	DD	09931H
	DD	0993bH
	DD	0993dH
	DD	09941H
	DD	09947H
	DD	09949H
	DD	09953H
	DD	0997dH
	DD	09985H
	DD	09991H
	DD	09995H
	DD	0999bH
	DD	099adH
	DD	099afH
	DD	099bfH
	DD	099c7H
	DD	099cbH
	DD	099cdH
	DD	099d7H
	DD	099e5H
	DD	099f1H
	DD	099fbH
	DD	09a0fH
	DD	09a13H
	DD	09a1bH
	DD	09a25H
	DD	09a4bH
	DD	09a4fH
	DD	09a55H
	DD	09a57H
	DD	09a61H
	DD	09a75H
	DD	09a7fH
	DD	09a8bH
	DD	09a91H
	DD	09a9dH
	DD	09ab7H
	DD	09ac3H
	DD	09ac7H
	DD	09acfH
	DD	09aebH
	DD	09af3H
	DD	09af7H
	DD	09affH
	DD	09b17H
	DD	09b1dH
	DD	09b27H
	DD	09b2fH
	DD	09b35H
	DD	09b45H
	DD	09b51H
	DD	09b59H
	DD	09b63H
	DD	09b6fH
	DD	09b77H
	DD	09b8dH
	DD	09b93H
	DD	09b95H
	DD	09b9fH
	DD	09ba1H
	DD	09ba7H
	DD	09bb1H
	DD	09bb7H
	DD	09bbdH
	DD	09bc5H
	DD	09bcbH
	DD	09bcfH
	DD	09bddH
	DD	09bf9H
	DD	09c01H
	DD	09c11H
	DD	09c23H
	DD	09c2bH
	DD	09c2fH
	DD	09c35H
	DD	09c49H
	DD	09c4dH
	DD	09c5fH
	DD	09c65H
	DD	09c67H
	DD	09c7fH
	DD	09c97H
	DD	09c9dH
	DD	09ca3H
	DD	09cafH
	DD	09cbbH
	DD	09cbfH
	DD	09cc1H
	DD	09cd7H
	DD	09cd9H
	DD	09ce3H
	DD	09ce9H
	DD	09cf1H
	DD	09cfdH
	DD	09d01H
	DD	09d15H
	DD	09d27H
	DD	09d2dH
	DD	09d31H
	DD	09d3dH
	DD	09d55H
	DD	09d5bH
	DD	09d61H
	DD	09d97H
	DD	09d9fH
	DD	09da5H
	DD	09da9H
	DD	09dc3H
	DD	09de7H
	DD	09debH
	DD	09dedH
	DD	09df1H
	DD	09e0bH
	DD	09e17H
	DD	09e23H
	DD	09e27H
	DD	09e2dH
	DD	09e33H
	DD	09e3bH
	DD	09e47H
	DD	09e51H
	DD	09e53H
	DD	09e5fH
	DD	09e6fH
	DD	09e81H
	DD	09e87H
	DD	09e8fH
	DD	09e95H
	DD	09ea1H
	DD	09eb3H
	DD	09ebdH
	DD	09ebfH
	DD	09ef5H
	DD	09ef9H
	DD	09efbH
	DD	09f05H
	DD	09f23H
	DD	09f2fH
	DD	09f37H
	DD	09f3bH
	DD	09f43H
	DD	09f53H
	DD	09f61H
	DD	09f6dH
	DD	09f73H
	DD	09f77H
	DD	09f7dH
	DD	09f89H
	DD	09f8fH
	DD	09f91H
	DD	09f95H
	DD	09fa3H
	DD	09fafH
	DD	09fb3H
	DD	09fc1H
	DD	09fc7H
	DD	09fdfH
	DD	09fe5H
	DD	09febH
	DD	09ff5H
	DD	0a001H
	DD	0a00dH
	DD	0a021H
	DD	0a033H
	DD	0a039H
	DD	0a03fH
	DD	0a04fH
	DD	0a057H
	DD	0a05bH
	DD	0a061H
	DD	0a075H
	DD	0a079H
	DD	0a099H
	DD	0a09dH
	DD	0a0abH
	DD	0a0b5H
	DD	0a0b7H
	DD	0a0bdH
	DD	0a0c9H
	DD	0a0d9H
	DD	0a0dbH
	DD	0a0dfH
	DD	0a0e5H
	DD	0a0f1H
	DD	0a0f3H
	DD	0a0fdH
	DD	0a105H
	DD	0a10bH
	DD	0a10fH
	DD	0a111H
	DD	0a11bH
	DD	0a129H
	DD	0a12fH
	DD	0a135H
	DD	0a141H
	DD	0a153H
	DD	0a175H
	DD	0a17dH
	DD	0a187H
	DD	0a18dH
	DD	0a1a5H
	DD	0a1abH
	DD	0a1adH
	DD	0a1b7H
	DD	0a1c3H
	DD	0a1c5H
	DD	0a1e3H
	DD	0a1edH
	DD	0a1fbH
	DD	0a207H
	DD	0a213H
	DD	0a223H
	DD	0a229H
	DD	0a22fH
	DD	0a231H
	DD	0a243H
	DD	0a247H
	DD	0a24dH
	DD	0a26bH
	DD	0a279H
	DD	0a27dH
	DD	0a283H
	DD	0a289H
	DD	0a28bH
	DD	0a291H
	DD	0a295H
	DD	0a29bH
	DD	0a2a9H
	DD	0a2afH
	DD	0a2b3H
	DD	0a2bbH
	DD	0a2c5H
	DD	0a2d1H
	DD	0a2d7H
	DD	0a2f7H
	DD	0a301H
	DD	0a309H
	DD	0a31fH
	DD	0a321H
	DD	0a32bH
	DD	0a331H
	DD	0a349H
	DD	0a351H
	DD	0a355H
	DD	0a373H
	DD	0a379H
	DD	0a37bH
	DD	0a387H
	DD	0a397H
	DD	0a39fH
	DD	0a3a5H
	DD	0a3a9H
	DD	0a3afH
	DD	0a3b7H
	DD	0a3c7H
	DD	0a3d5H
	DD	0a3dbH
	DD	0a3e1H
	DD	0a3e5H
	DD	0a3e7H
	DD	0a3f1H
	DD	0a3fdH
	DD	0a3ffH
	DD	0a40fH
	DD	0a41dH
	DD	0a421H
	DD	0a423H
	DD	0a427H
	DD	0a43bH
	DD	0a44dH
	DD	0a457H
	DD	0a459H
	DD	0a463H
	DD	0a469H
	DD	0a475H
	DD	0a493H
	DD	0a49bH
	DD	0a4adH
	DD	0a4b9H
	DD	0a4c3H
	DD	0a4c5H
	DD	0a4cbH
	DD	0a4d1H
	DD	0a4d5H
	DD	0a4e1H
	DD	0a4edH
	DD	0a4efH
	DD	0a4f3H
	DD	0a4ffH
	DD	0a511H
	DD	0a529H
	DD	0a52bH
	DD	0a535H
	DD	0a53bH
	DD	0a543H
	DD	0a553H
	DD	0a55bH
	DD	0a561H
	DD	0a56dH
	DD	0a577H
	DD	0a585H
	DD	0a58bH
	DD	0a597H
	DD	0a59dH
	DD	0a5a3H
	DD	0a5a7H
	DD	0a5a9H
	DD	0a5c1H
	DD	0a5c5H
	DD	0a5cbH
	DD	0a5d3H
	DD	0a5d9H
	DD	0a5ddH
	DD	0a5dfH
	DD	0a5e3H
	DD	0a5e9H
	DD	0a5f7H
	DD	0a5fbH
	DD	0a603H
	DD	0a60dH
	DD	0a625H
	DD	0a63dH
	DD	0a649H
	DD	0a64bH
	DD	0a651H
	DD	0a65dH
	DD	0a673H
	DD	0a691H
	DD	0a693H
	DD	0a699H
	DD	0a6abH
	DD	0a6b5H
	DD	0a6bbH
	DD	0a6c1H
	DD	0a6c9H
	DD	0a6cdH
	DD	0a6cfH
	DD	0a6d5H
	DD	0a6dfH
	DD	0a6e7H
	DD	0a6f1H
	DD	0a6f7H
	DD	0a6ffH
	DD	0a70fH
	DD	0a715H
	DD	0a723H
	DD	0a729H
	DD	0a72dH
	DD	0a745H
	DD	0a74dH
	DD	0a757H
	DD	0a759H
	DD	0a765H
	DD	0a76bH
	DD	0a76fH
	DD	0a793H
	DD	0a795H
	DD	0a7abH
	DD	0a7b1H
	DD	0a7b9H
	DD	0a7bfH
	DD	0a7c9H
	DD	0a7d1H
	DD	0a7d7H
	DD	0a7e3H
	DD	0a7edH
	DD	0a7fbH
	DD	0a805H
	DD	0a80bH
	DD	0a81dH
	DD	0a829H
	DD	0a82bH
	DD	0a837H
	DD	0a83bH
	DD	0a855H
	DD	0a85fH
	DD	0a86dH
	DD	0a87dH
	DD	0a88fH
	DD	0a897H
	DD	0a8a9H
	DD	0a8b5H
	DD	0a8c1H
	DD	0a8c7H
	DD	0a8d7H
	DD	0a8e5H
	DD	0a8fdH
	DD	0a907H
	DD	0a913H
	DD	0a91bH
	DD	0a931H
	DD	0a937H
	DD	0a939H
	DD	0a943H
	DD	0a97fH
	DD	0a985H
	DD	0a987H
	DD	0a98bH
	DD	0a993H
	DD	0a9a3H
	DD	0a9b1H
	DD	0a9bbH
	DD	0a9c1H
	DD	0a9d9H
	DD	0a9dfH
	DD	0a9ebH
	DD	0a9fdH
	DD	0aa15H
	DD	0aa17H
	DD	0aa35H
	DD	0aa39H
	DD	0aa3bH
	DD	0aa47H
	DD	0aa4dH
	DD	0aa57H
	DD	0aa59H
	DD	0aa5dH
	DD	0aa6bH
	DD	0aa71H
	DD	0aa81H
	DD	0aa83H
	DD	0aa8dH
	DD	0aa95H
	DD	0aaabH
	DD	0aabfH
	DD	0aac5H
	DD	0aac9H
	DD	0aae9H
	DD	0aaefH
	DD	0ab01H
	DD	0ab05H
	DD	0ab07H
	DD	0ab0bH
	DD	0ab0dH
	DD	0ab11H
	DD	0ab19H
	DD	0ab4dH
	DD	0ab5bH
	DD	0ab71H
	DD	0ab73H
	DD	0ab89H
	DD	0ab9dH
	DD	0aba7H
	DD	0abafH
	DD	0abb9H
	DD	0abbbH
	DD	0abc1H
	DD	0abc5H
	DD	0abd3H
	DD	0abd7H
	DD	0abddH
	DD	0abf1H
	DD	0abf5H
	DD	0abfbH
	DD	0abfdH
	DD	0ac09H
	DD	0ac15H
	DD	0ac1bH
	DD	0ac27H
	DD	0ac37H
	DD	0ac39H
	DD	0ac45H
	DD	0ac4fH
	DD	0ac57H
	DD	0ac5bH
	DD	0ac61H
	DD	0ac63H
	DD	0ac7fH
	DD	0ac8bH
	DD	0ac93H
	DD	0ac9dH
	DD	0aca9H
	DD	0acabH
	DD	0acafH
	DD	0acbdH
	DD	0acd9H
	DD	0ace1H
	DD	0ace7H
	DD	0acebH
	DD	0acedH
	DD	0acf1H
	DD	0acf7H
	DD	0acf9H
	DD	0ad05H
	DD	0ad3fH
	DD	0ad45H
	DD	0ad53H
	DD	0ad5dH
	DD	0ad5fH
	DD	0ad65H
	DD	0ad81H
	DD	0ada1H
	DD	0ada5H
	DD	0adc3H
	DD	0adcbH
	DD	0add1H
	DD	0add5H
	DD	0addbH
	DD	0ade7H
	DD	0adf3H
	DD	0adf5H
	DD	0adf9H
	DD	0adffH
	DD	0ae05H
	DD	0ae13H
	DD	0ae23H
	DD	0ae2bH
	DD	0ae49H
	DD	0ae4dH
	DD	0ae4fH
	DD	0ae59H
	DD	0ae61H
	DD	0ae67H
	DD	0ae6bH
	DD	0ae71H
	DD	0ae8bH
	DD	0ae8fH
	DD	0ae9bH
	DD	0ae9dH
	DD	0aea7H
	DD	0aeb9H
	DD	0aec5H
	DD	0aed1H
	DD	0aee3H
	DD	0aee5H
	DD	0aee9H
	DD	0aef5H
	DD	0aefdH
	DD	0af09H
	DD	0af13H
	DD	0af27H
	DD	0af2bH
	DD	0af33H
	DD	0af43H
	DD	0af4fH
	DD	0af57H
	DD	0af5dH
	DD	0af6dH
	DD	0af75H
	DD	0af7fH
	DD	0af8bH
	DD	0af99H
	DD	0af9fH
	DD	0afa3H
	DD	0afabH
	DD	0afb7H
	DD	0afbbH
	DD	0afcfH
	DD	0afd5H
	DD	0affdH
	DD	0b005H
	DD	0b015H
	DD	0b01bH
	DD	0b03fH
	DD	0b041H
	DD	0b047H
	DD	0b04bH
	DD	0b051H
	DD	0b053H
	DD	0b069H
	DD	0b07bH
	DD	0b07dH
	DD	0b087H
	DD	0b08dH
	DD	0b0b1H
	DD	0b0bfH
	DD	0b0cbH
	DD	0b0cfH
	DD	0b0e1H
	DD	0b0e9H
	DD	0b0edH
	DD	0b0fbH
	DD	0b105H
	DD	0b107H
	DD	0b111H
	DD	0b119H
	DD	0b11dH
	DD	0b11fH
	DD	0b131H
	DD	0b141H
	DD	0b14dH
	DD	0b15bH
	DD	0b165H
	DD	0b173H
	DD	0b179H
	DD	0b17fH
	DD	0b1a9H
	DD	0b1b3H
	DD	0b1b9H
	DD	0b1bfH
	DD	0b1d3H
	DD	0b1ddH
	DD	0b1e5H
	DD	0b1f1H
	DD	0b1f5H
	DD	0b201H
	DD	0b213H
	DD	0b215H
	DD	0b21fH
	DD	0b22dH
	DD	0b23fH
	DD	0b249H
	DD	0b25bH
	DD	0b263H
	DD	0b269H
	DD	0b26dH
	DD	0b27bH
	DD	0b281H
	DD	0b28bH
	DD	0b2a9H
	DD	0b2b7H
	DD	0b2bdH
	DD	0b2c3H
	DD	0b2c7H
	DD	0b2d3H
	DD	0b2f9H
	DD	0b2fdH
	DD	0b2ffH
	DD	0b303H
	DD	0b309H
	DD	0b311H
	DD	0b31dH
	DD	0b327H
	DD	0b32dH
	DD	0b33fH
	DD	0b345H
	DD	0b377H
	DD	0b37dH
	DD	0b381H
	DD	0b387H
	DD	0b393H
	DD	0b39bH
	DD	0b3a5H
	DD	0b3c5H
	DD	0b3cbH
	DD	0b3e1H
	DD	0b3e3H
	DD	0b3edH
	DD	0b3f9H
	DD	0b40bH
	DD	0b40dH
	DD	0b413H
	DD	0b417H
	DD	0b435H
	DD	0b43dH
	DD	0b443H
	DD	0b449H
	DD	0b45bH
	DD	0b465H
	DD	0b467H
	DD	0b46bH
	DD	0b477H
	DD	0b48bH
	DD	0b495H
	DD	0b49dH
	DD	0b4b5H
	DD	0b4bfH
	DD	0b4c1H
	DD	0b4c7H
	DD	0b4ddH
	DD	0b4e3H
	DD	0b4e5H
	DD	0b4f7H
	DD	0b501H
	DD	0b50dH
	DD	0b50fH
	DD	0b52dH
	DD	0b53fH
	DD	0b54bH
	DD	0b567H
	DD	0b569H
	DD	0b56fH
	DD	0b573H
	DD	0b579H
	DD	0b587H
	DD	0b58dH
	DD	0b599H
	DD	0b5a3H
	DD	0b5abH
	DD	0b5afH
	DD	0b5bbH
	DD	0b5d5H
	DD	0b5dfH
	DD	0b5e7H
	DD	0b5edH
	DD	0b5fdH
	DD	0b5ffH
	DD	0b609H
	DD	0b61bH
	DD	0b629H
	DD	0b62fH
	DD	0b633H
	DD	0b639H
	DD	0b647H
	DD	0b657H
	DD	0b659H
	DD	0b65fH
	DD	0b663H
	DD	0b66fH
	DD	0b683H
	DD	0b687H
	DD	0b69bH
	DD	0b69fH
	DD	0b6a5H
	DD	0b6b1H
	DD	0b6b3H
	DD	0b6d7H
	DD	0b6dbH
	DD	0b6e1H
	DD	0b6e3H
	DD	0b6edH
	DD	0b6efH
	DD	0b705H
	DD	0b70dH
	DD	0b713H
	DD	0b71dH
	DD	0b729H
	DD	0b735H
	DD	0b747H
	DD	0b755H
	DD	0b76dH
	DD	0b791H
	DD	0b795H
	DD	0b7a9H
	DD	0b7c1H
	DD	0b7cbH
	DD	0b7d1H
	DD	0b7d3H
	DD	0b7efH
	DD	0b7f5H
	DD	0b807H
	DD	0b80fH
	DD	0b813H
	DD	0b819H
	DD	0b821H
	DD	0b827H
	DD	0b82bH
	DD	0b82dH
	DD	0b839H
	DD	0b855H
	DD	0b867H
	DD	0b875H
	DD	0b885H
	DD	0b893H
	DD	0b8a5H
	DD	0b8afH
	DD	0b8b7H
	DD	0b8bdH
	DD	0b8c1H
	DD	0b8c7H
	DD	0b8cdH
	DD	0b8d5H
	DD	0b8ebH
	DD	0b8f7H
	DD	0b8f9H
	DD	0b903H
	DD	0b915H
	DD	0b91bH
	DD	0b91dH
	DD	0b92fH
	DD	0b939H
	DD	0b93bH
	DD	0b947H
	DD	0b951H
	DD	0b963H
	DD	0b983H
	DD	0b989H
	DD	0b98dH
	DD	0b993H
	DD	0b999H
	DD	0b9a1H
	DD	0b9a7H
	DD	0b9adH
	DD	0b9b7H
	DD	0b9cbH
	DD	0b9d1H
	DD	0b9ddH
	DD	0b9e7H
	DD	0b9efH
	DD	0b9f9H
	DD	0ba07H
	DD	0ba0dH
	DD	0ba17H
	DD	0ba25H
	DD	0ba29H
	DD	0ba2bH
	DD	0ba41H
	DD	0ba53H
	DD	0ba55H
	DD	0ba5fH
	DD	0ba61H
	DD	0ba65H
	DD	0ba79H
	DD	0ba7dH
	DD	0ba7fH
	DD	0baa1H
	DD	0baa3H
	DD	0baafH
	DD	0bab5H
	DD	0babfH
	DD	0bac1H
	DD	0bacbH
	DD	0baddH
	DD	0bae3H
	DD	0baf1H
	DD	0bafdH
	DD	0bb09H
	DD	0bb1fH
	DD	0bb27H
	DD	0bb2dH
	DD	0bb3dH
	DD	0bb43H
	DD	0bb4bH
	DD	0bb4fH
	DD	0bb5bH
	DD	0bb61H
	DD	0bb69H
	DD	0bb6dH
	DD	0bb91H
	DD	0bb97H
	DD	0bb9dH
	DD	0bbb1H
	DD	0bbc9H
	DD	0bbcfH
	DD	0bbdbH
	DD	0bbedH
	DD	0bbf7H
	DD	0bbf9H
	DD	0bc03H
	DD	0bc1dH
	DD	0bc23H
	DD	0bc33H
	DD	0bc3bH
	DD	0bc41H
	DD	0bc45H
	DD	0bc5dH
	DD	0bc6fH
	DD	0bc77H
	DD	0bc83H
	DD	0bc8fH
	DD	0bc99H
	DD	0bcabH
	DD	0bcb7H
	DD	0bcb9H
	DD	0bcd1H
	DD	0bcd5H
	DD	0bce1H
	DD	0bcf3H
	DD	0bcffH
	DD	0bd0dH
	DD	0bd17H
	DD	0bd19H
	DD	0bd1dH
	DD	0bd35H
	DD	0bd41H
	DD	0bd4fH
	DD	0bd59H
	DD	0bd5fH
	DD	0bd61H
	DD	0bd67H
	DD	0bd6bH
	DD	0bd71H
	DD	0bd8bH
	DD	0bd8fH
	DD	0bd95H
	DD	0bd9bH
	DD	0bd9dH
	DD	0bdb3H
	DD	0bdbbH
	DD	0bdcdH
	DD	0bdd1H
	DD	0bde3H
	DD	0bdebH
	DD	0bdefH
	DD	0be07H
	DD	0be09H
	DD	0be15H
	DD	0be21H
	DD	0be25H
	DD	0be27H
	DD	0be5bH
	DD	0be5dH
	DD	0be6fH
	DD	0be75H
	DD	0be79H
	DD	0be7fH
	DD	0be8bH
	DD	0be8dH
	DD	0be93H
	DD	0be9fH
	DD	0bea9H
	DD	0beb1H
	DD	0beb5H
	DD	0beb7H
	DD	0becfH
	DD	0bed9H
	DD	0bedbH
	DD	0bee5H
	DD	0bee7H
	DD	0bef3H
	DD	0bef9H
	DD	0bf0bH
	DD	0bf33H
	DD	0bf39H
	DD	0bf4dH
	DD	0bf5dH
	DD	0bf5fH
	DD	0bf6bH
	DD	0bf71H
	DD	0bf7bH
	DD	0bf87H
	DD	0bf89H
	DD	0bf8dH
	DD	0bf93H
	DD	0bfa1H
	DD	0bfadH
	DD	0bfb9H
	DD	0bfcfH
	DD	0bfd5H
	DD	0bfddH
	DD	0bfe1H
	DD	0bfe3H
	DD	0bff3H
	DD	0c005H
	DD	0c011H
	DD	0c013H
	DD	0c019H
	DD	0c029H
	DD	0c02fH
	DD	0c031H
	DD	0c037H
	DD	0c03bH
	DD	0c047H
	DD	0c065H
	DD	0c06dH
	DD	0c07dH
	DD	0c07fH
	DD	0c091H
	DD	0c09bH
	DD	0c0b3H
	DD	0c0b5H
	DD	0c0bbH
	DD	0c0d3H
	DD	0c0d7H
	DD	0c0d9H
	DD	0c0efH
	DD	0c0f1H
	DD	0c101H
	DD	0c103H
	DD	0c109H
	DD	0c115H
	DD	0c119H
	DD	0c12bH
	DD	0c133H
	DD	0c137H
	DD	0c145H
	DD	0c149H
	DD	0c15bH
	DD	0c173H
	DD	0c179H
	DD	0c17bH
	DD	0c181H
	DD	0c18bH
	DD	0c18dH
	DD	0c197H
	DD	0c1bdH
	DD	0c1c3H
	DD	0c1cdH
	DD	0c1dbH
	DD	0c1e1H
	DD	0c1e7H
	DD	0c1ffH
	DD	0c203H
	DD	0c205H
	DD	0c211H
	DD	0c221H
	DD	0c22fH
	DD	0c23fH
	DD	0c24bH
	DD	0c24dH
	DD	0c253H
	DD	0c25dH
	DD	0c277H
	DD	0c27bH
	DD	0c27dH
	DD	0c289H
	DD	0c28fH
	DD	0c293H
	DD	0c29fH
	DD	0c2a7H
	DD	0c2b3H
	DD	0c2bdH
	DD	0c2cfH
	DD	0c2d5H
	DD	0c2e3H
	DD	0c2ffH
	DD	0c301H
	DD	0c307H
	DD	0c311H
	DD	0c313H
	DD	0c317H
	DD	0c325H
	DD	0c347H
	DD	0c349H
	DD	0c34fH
	DD	0c365H
	DD	0c367H
	DD	0c371H
	DD	0c37fH
	DD	0c383H
	DD	0c385H
	DD	0c395H
	DD	0c39dH
	DD	0c3a7H
	DD	0c3adH
	DD	0c3b5H
	DD	0c3bfH
	DD	0c3c7H
	DD	0c3cbH
	DD	0c3d1H
	DD	0c3d3H
	DD	0c3e3H
	DD	0c3e9H
	DD	0c3efH
	DD	0c401H
	DD	0c41fH
	DD	0c42dH
	DD	0c433H
	DD	0c437H
	DD	0c455H
	DD	0c457H
	DD	0c461H
	DD	0c46fH
	DD	0c473H
	DD	0c487H
	DD	0c491H
	DD	0c499H
	DD	0c49dH
	DD	0c4a5H
	DD	0c4b7H
	DD	0c4bbH
	DD	0c4c9H
	DD	0c4cfH
	DD	0c4d3H
	DD	0c4ebH
	DD	0c4f1H
	DD	0c4f7H
	DD	0c509H
	DD	0c51bH
	DD	0c51dH
	DD	0c541H
	DD	0c547H
	DD	0c551H
	DD	0c55fH
	DD	0c56bH
	DD	0c56fH
	DD	0c575H
	DD	0c577H
	DD	0c595H
	DD	0c59bH
	DD	0c59fH
	DD	0c5a1H
	DD	0c5a7H
	DD	0c5c3H
	DD	0c5d7H
	DD	0c5dbH
	DD	0c5efH
	DD	0c5fbH
	DD	0c613H
	DD	0c623H
	DD	0c635H
	DD	0c641H
	DD	0c64fH
	DD	0c655H
	DD	0c659H
	DD	0c665H
	DD	0c685H
	DD	0c691H
	DD	0c697H
	DD	0c6a1H
	DD	0c6a9H
	DD	0c6b3H
	DD	0c6b9H
	DD	0c6cbH
	DD	0c6cdH
	DD	0c6ddH
	DD	0c6ebH
	DD	0c6f1H
	DD	0c707H
	DD	0c70dH
	DD	0c719H
	DD	0c71bH
	DD	0c72dH
	DD	0c731H
	DD	0c739H
	DD	0c757H
	DD	0c763H
	DD	0c767H
	DD	0c773H
	DD	0c775H
	DD	0c77fH
	DD	0c7a5H
	DD	0c7bbH
	DD	0c7bdH
	DD	0c7c1H
	DD	0c7cfH
	DD	0c7d5H
	DD	0c7e1H
	DD	0c7f9H
	DD	0c7fdH
	DD	0c7ffH
	DD	0c803H
	DD	0c811H
	DD	0c81dH
	DD	0c827H
	DD	0c829H
	DD	0c839H
	DD	0c83fH
	DD	0c853H
	DD	0c857H
	DD	0c86bH
	DD	0c881H
	DD	0c88dH
	DD	0c88fH
	DD	0c893H
	DD	0c895H
	DD	0c8a1H
	DD	0c8b7H
	DD	0c8cfH
	DD	0c8d5H
	DD	0c8dbH
	DD	0c8ddH
	DD	0c8e3H
	DD	0c8e7H
	DD	0c8edH
	DD	0c8efH
	DD	0c8f9H
	DD	0c905H
	DD	0c911H
	DD	0c917H
	DD	0c919H
	DD	0c91fH
	DD	0c92fH
	DD	0c937H
	DD	0c93dH
	DD	0c941H
	DD	0c953H
	DD	0c95fH
	DD	0c96bH
	DD	0c979H
	DD	0c97dH
	DD	0c989H
	DD	0c98fH
	DD	0c997H
	DD	0c99dH
	DD	0c9afH
	DD	0c9b5H
	DD	0c9bfH
	DD	0c9cbH
	DD	0c9d9H
	DD	0c9dfH
	DD	0c9e3H
	DD	0c9ebH
	DD	0ca01H
	DD	0ca07H
	DD	0ca09H
	DD	0ca25H
	DD	0ca37H
	DD	0ca39H
	DD	0ca4bH
	DD	0ca55H
	DD	0ca5bH
	DD	0ca69H
	DD	0ca73H
	DD	0ca75H
	DD	0ca7fH
	DD	0ca8dH
	DD	0ca93H
	DD	0ca9dH
	DD	0ca9fH
	DD	0cab5H
	DD	0cabbH
	DD	0cac3H
	DD	0cac9H
	DD	0cad9H
	DD	0cae5H
	DD	0caedH
	DD	0cb03H
	DD	0cb05H
	DD	0cb09H
	DD	0cb17H
	DD	0cb29H
	DD	0cb35H
	DD	0cb3bH
	DD	0cb53H
	DD	0cb59H
	DD	0cb63H
	DD	0cb65H
	DD	0cb71H
	DD	0cb87H
	DD	0cb99H
	DD	0cb9fH
	DD	0cbb3H
	DD	0cbb9H
	DD	0cbc3H
	DD	0cbd1H
	DD	0cbd5H
	DD	0cbd7H
	DD	0cbddH
	DD	0cbe9H
	DD	0cbffH
	DD	0cc0dH
	DD	0cc19H
	DD	0cc1dH
	DD	0cc23H
	DD	0cc2bH
	DD	0cc41H
	DD	0cc43H
	DD	0cc4dH
	DD	0cc59H
	DD	0cc61H
	DD	0cc89H
	DD	0cc8bH
	DD	0cc91H
	DD	0cc9bH
	DD	0cca3H
	DD	0cca7H
	DD	0ccd1H
	DD	0cce5H
	DD	0cce9H
	DD	0cd09H
	DD	0cd15H
	DD	0cd1fH
	DD	0cd25H
	DD	0cd31H
	DD	0cd3dH
	DD	0cd3fH
	DD	0cd49H
	DD	0cd51H
	DD	0cd57H
	DD	0cd5bH
	DD	0cd63H
	DD	0cd67H
	DD	0cd81H
	DD	0cd93H
	DD	0cd97H
	DD	0cd9fH
	DD	0cdbbH
	DD	0cdc1H
	DD	0cdd3H
	DD	0cdd9H
	DD	0cde5H
	DD	0cde7H
	DD	0cdf1H
	DD	0cdf7H
	DD	0cdfdH
	DD	0ce0bH
	DD	0ce15H
	DD	0ce21H
	DD	0ce2fH
	DD	0ce47H
	DD	0ce4dH
	DD	0ce51H
	DD	0ce65H
	DD	0ce7bH
	DD	0ce7dH
	DD	0ce8fH
	DD	0ce93H
	DD	0ce99H
	DD	0cea5H
	DD	0cea7H
	DD	0ceb7H
	DD	0cec9H
	DD	0ced7H
	DD	0ceddH
	DD	0cee3H
	DD	0cee7H
	DD	0ceedH
	DD	0cef5H
	DD	0cf07H
	DD	0cf0bH
	DD	0cf19H
	DD	0cf37H
	DD	0cf3bH
	DD	0cf4dH
	DD	0cf55H
	DD	0cf5fH
	DD	0cf61H
	DD	0cf65H
	DD	0cf6dH
	DD	0cf79H
	DD	0cf7dH
	DD	0cf89H
	DD	0cf9bH
	DD	0cf9dH
	DD	0cfa9H
	DD	0cfb3H
	DD	0cfb5H
	DD	0cfc5H
	DD	0cfcdH
	DD	0cfd1H
	DD	0cfefH
	DD	0cff1H
	DD	0cff7H
	DD	0d013H
	DD	0d015H
	DD	0d01fH
	DD	0d021H
	DD	0d033H
	DD	0d03dH
	DD	0d04bH
	DD	0d04fH
	DD	0d069H
	DD	0d06fH
	DD	0d081H
	DD	0d085H
	DD	0d099H
	DD	0d09fH
	DD	0d0a3H
	DD	0d0abH
	DD	0d0bdH
	DD	0d0c1H
	DD	0d0cdH
	DD	0d0e7H
	DD	0d0ffH
	DD	0d103H
	DD	0d117H
	DD	0d12dH
	DD	0d12fH
	DD	0d141H
	DD	0d157H
	DD	0d159H
	DD	0d15dH
	DD	0d169H
	DD	0d16bH
	DD	0d171H
	DD	0d177H
	DD	0d17dH
	DD	0d181H
	DD	0d187H
	DD	0d195H
	DD	0d199H
	DD	0d1b1H
	DD	0d1bdH
	DD	0d1c3H
	DD	0d1d5H
	DD	0d1d7H
	DD	0d1e3H
	DD	0d1ffH
	DD	0d20dH
	DD	0d211H
	DD	0d217H
	DD	0d21fH
	DD	0d235H
	DD	0d23bH
	DD	0d247H
	DD	0d259H
	DD	0d261H
	DD	0d265H
	DD	0d279H
	DD	0d27fH
	DD	0d283H
	DD	0d289H
	DD	0d28bH
	DD	0d29dH
	DD	0d2a3H
	DD	0d2a7H
	DD	0d2b3H
	DD	0d2bfH
	DD	0d2c7H
	DD	0d2e3H
	DD	0d2e9H
	DD	0d2f1H
	DD	0d2fbH
	DD	0d2fdH
	DD	0d315H
	DD	0d321H
	DD	0d32bH
	DD	0d343H
	DD	0d34bH
	DD	0d355H
	DD	0d369H
	DD	0d375H
	DD	0d37bH
	DD	0d387H
	DD	0d393H
	DD	0d397H
	DD	0d3a5H
	DD	0d3b1H
	DD	0d3c9H
	DD	0d3ebH
	DD	0d3fdH
	DD	0d405H
	DD	0d40fH
	DD	0d415H
	DD	0d427H
	DD	0d42fH
	DD	0d433H
	DD	0d43bH
	DD	0d44bH
	DD	0d459H
	DD	0d45fH
	DD	0d463H
	DD	0d469H
	DD	0d481H
	DD	0d483H
	DD	0d489H
	DD	0d48dH
	DD	0d493H
	DD	0d495H
	DD	0d4a5H
	DD	0d4abH
	DD	0d4b1H
	DD	0d4c5H
	DD	0d4ddH
	DD	0d4e1H
	DD	0d4e3H
	DD	0d4e7H
	DD	0d4f5H
	DD	0d4f9H
	DD	0d50bH
	DD	0d50dH
	DD	0d513H
	DD	0d51fH
	DD	0d523H
	DD	0d531H
	DD	0d535H
	DD	0d537H
	DD	0d549H
	DD	0d559H
	DD	0d55fH
	DD	0d565H
	DD	0d567H
	DD	0d577H
	DD	0d58bH
	DD	0d591H
	DD	0d597H
	DD	0d5b5H
	DD	0d5b9H
	DD	0d5c1H
	DD	0d5c7H
	DD	0d5dfH
	DD	0d5efH
	DD	0d5f5H
	DD	0d5fbH
	DD	0d603H
	DD	0d60fH
	DD	0d62dH
	DD	0d631H
	DD	0d643H
	DD	0d655H
	DD	0d65dH
	DD	0d661H
	DD	0d67bH
	DD	0d685H
	DD	0d687H
	DD	0d69dH
	DD	0d6a5H
	DD	0d6afH
	DD	0d6bdH
	DD	0d6c3H
	DD	0d6c7H
	DD	0d6d9H
	DD	0d6e1H
	DD	0d6edH
	DD	0d709H
	DD	0d70bH
	DD	0d711H
	DD	0d715H
	DD	0d721H
	DD	0d727H
	DD	0d73fH
	DD	0d745H
	DD	0d74dH
	DD	0d757H
	DD	0d76bH
	DD	0d77bH
	DD	0d783H
	DD	0d7a1H
	DD	0d7a7H
	DD	0d7adH
	DD	0d7b1H
	DD	0d7b3H
	DD	0d7bdH
	DD	0d7cbH
	DD	0d7d1H
	DD	0d7dbH
	DD	0d7fbH
	DD	0d811H
	DD	0d823H
	DD	0d825H
	DD	0d829H
	DD	0d82bH
	DD	0d82fH
	DD	0d837H
	DD	0d84dH
	DD	0d855H
	DD	0d867H
	DD	0d873H
	DD	0d88fH
	DD	0d891H
	DD	0d8a1H
	DD	0d8adH
	DD	0d8bfH
	DD	0d8cdH
	DD	0d8d7H
	DD	0d8e9H
	DD	0d8f5H
	DD	0d8fbH
	DD	0d91bH
	DD	0d925H
	DD	0d933H
	DD	0d939H
	DD	0d943H
	DD	0d945H
	DD	0d94fH
	DD	0d951H
	DD	0d957H
	DD	0d96dH
	DD	0d96fH
	DD	0d973H
	DD	0d979H
	DD	0d981H
	DD	0d98bH
	DD	0d991H
	DD	0d99fH
	DD	0d9a5H
	DD	0d9a9H
	DD	0d9b5H
	DD	0d9d3H
	DD	0d9ebH
	DD	0d9f1H
	DD	0d9f7H
	DD	0d9ffH
	DD	0da05H
	DD	0da09H
	DD	0da0bH
	DD	0da0fH
	DD	0da15H
	DD	0da1dH
	DD	0da23H
	DD	0da29H
	DD	0da3fH
	DD	0da51H
	DD	0da59H
	DD	0da5dH
	DD	0da5fH
	DD	0da71H
	DD	0da77H
	DD	0da7bH
	DD	0da7dH
	DD	0da8dH
	DD	0da9fH
	DD	0dab3H
	DD	0dabdH
	DD	0dac3H
	DD	0dac9H
	DD	0dae7H
	DD	0dae9H
	DD	0daf5H
	DD	0db11H
	DD	0db17H
	DD	0db1dH
	DD	0db23H
	DD	0db25H
	DD	0db31H
	DD	0db3bH
	DD	0db43H
	DD	0db55H
	DD	0db67H
	DD	0db6bH
	DD	0db73H
	DD	0db85H
	DD	0db8fH
	DD	0db91H
	DD	0dbadH
	DD	0dbafH
	DD	0dbb9H
	DD	0dbc7H
	DD	0dbcbH
	DD	0dbcdH
	DD	0dbebH
	DD	0dbf7H
	DD	0dc0dH
	DD	0dc27H
	DD	0dc31H
	DD	0dc39H
	DD	0dc3fH
	DD	0dc49H
	DD	0dc51H
	DD	0dc61H
	DD	0dc6fH
	DD	0dc75H
	DD	0dc7bH
	DD	0dc85H
	DD	0dc93H
	DD	0dc99H
	DD	0dc9dH
	DD	0dc9fH
	DD	0dca9H
	DD	0dcb5H
	DD	0dcb7H
	DD	0dcbdH
	DD	0dcc7H
	DD	0dccfH
	DD	0dcd3H
	DD	0dcd5H
	DD	0dcdfH
	DD	0dcf9H
	DD	0dd0fH
	DD	0dd15H
	DD	0dd17H
	DD	0dd23H
	DD	0dd35H
	DD	0dd39H
	DD	0dd53H
	DD	0dd57H
	DD	0dd5fH
	DD	0dd69H
	DD	0dd6fH
	DD	0dd7dH
	DD	0dd87H
	DD	0dd89H
	DD	0dd9bH
	DD	0dda1H
	DD	0ddabH
	DD	0ddbfH
	DD	0ddc5H
	DD	0ddcbH
	DD	0ddcfH
	DD	0dde7H
	DD	0dde9H
	DD	0ddedH
	DD	0ddf5H
	DD	0ddfbH
	DD	0de0bH
	DD	0de19H
	DD	0de29H
	DD	0de3bH
	DD	0de3dH
	DD	0de41H
	DD	0de4dH
	DD	0de4fH
	DD	0de59H
	DD	0de5bH
	DD	0de61H
	DD	0de6dH
	DD	0de77H
	DD	0de7dH
	DD	0de83H
	DD	0de97H
	DD	0de9dH
	DD	0dea1H
	DD	0dea7H
	DD	0decdH
	DD	0ded1H
	DD	0ded7H
	DD	0dee3H
	DD	0def1H
	DD	0def5H
	DD	0df01H
	DD	0df09H
	DD	0df13H
	DD	0df1fH
	DD	0df2bH
	DD	0df33H
	DD	0df37H
	DD	0df3dH
	DD	0df4bH
	DD	0df55H
	DD	0df5bH
	DD	0df67H
	DD	0df69H
	DD	0df73H
	DD	0df85H
	DD	0df87H
	DD	0df99H
	DD	0dfa3H
	DD	0dfabH
	DD	0dfb5H
	DD	0dfb7H
	DD	0dfc3H
	DD	0dfc7H
	DD	0dfd5H
	DD	0dff1H
	DD	0dff3H
	DD	0e003H
	DD	0e005H
	DD	0e017H
	DD	0e01dH
	DD	0e027H
	DD	0e02dH
	DD	0e035H
	DD	0e045H
	DD	0e053H
	DD	0e071H
	DD	0e07bH
	DD	0e08fH
	DD	0e095H
	DD	0e09fH
	DD	0e0b7H
	DD	0e0b9H
	DD	0e0d5H
	DD	0e0d7H
	DD	0e0e3H
	DD	0e0f3H
	DD	0e0f9H
	DD	0e101H
	DD	0e125H
	DD	0e129H
	DD	0e131H
	DD	0e135H
	DD	0e143H
	DD	0e14fH
	DD	0e159H
	DD	0e161H
	DD	0e16dH
	DD	0e171H
	DD	0e177H
	DD	0e17fH
	DD	0e183H
	DD	0e189H
	DD	0e197H
	DD	0e1adH
	DD	0e1b5H
	DD	0e1bbH
	DD	0e1bfH
	DD	0e1c1H
	DD	0e1cbH
	DD	0e1d1H
	DD	0e1e5H
	DD	0e1efH
	DD	0e1f7H
	DD	0e1fdH
	DD	0e203H
	DD	0e219H
	DD	0e22bH
	DD	0e22dH
	DD	0e23dH
	DD	0e243H
	DD	0e257H
	DD	0e25bH
	DD	0e275H
	DD	0e279H
	DD	0e287H
	DD	0e29dH
	DD	0e2abH
	DD	0e2afH
	DD	0e2bbH
	DD	0e2c1H
	DD	0e2c9H
	DD	0e2cdH
	DD	0e2d3H
	DD	0e2d9H
	DD	0e2f3H
	DD	0e2fdH
	DD	0e2ffH
	DD	0e311H
	DD	0e323H
	DD	0e327H
	DD	0e329H
	DD	0e339H
	DD	0e33bH
	DD	0e34dH
	DD	0e351H
	DD	0e357H
	DD	0e35fH
	DD	0e363H
	DD	0e369H
	DD	0e375H
	DD	0e377H
	DD	0e37dH
	DD	0e383H
	DD	0e39fH
	DD	0e3c5H
	DD	0e3c9H
	DD	0e3d1H
	DD	0e3e1H
	DD	0e3fbH
	DD	0e3ffH
	DD	0e401H
	DD	0e40bH
	DD	0e417H
	DD	0e419H
	DD	0e423H
	DD	0e42bH
	DD	0e431H
	DD	0e43bH
	DD	0e447H
	DD	0e449H
	DD	0e453H
	DD	0e455H
	DD	0e46dH
	DD	0e471H
	DD	0e48fH
	DD	0e4a9H
	DD	0e4afH
	DD	0e4b5H
	DD	0e4c7H
	DD	0e4cdH
	DD	0e4d3H
	DD	0e4e9H
	DD	0e4ebH
	DD	0e4f5H
	DD	0e507H
	DD	0e521H
	DD	0e525H
	DD	0e537H
	DD	0e53fH
	DD	0e545H
	DD	0e54bH
	DD	0e557H
	DD	0e567H
	DD	0e56dH
	DD	0e575H
	DD	0e585H
	DD	0e58bH
	DD	0e593H
	DD	0e5a3H
	DD	0e5a5H
	DD	0e5cfH
	DD	0e609H
	DD	0e611H
	DD	0e615H
	DD	0e61bH
	DD	0e61dH
	DD	0e621H
	DD	0e629H
	DD	0e639H
	DD	0e63fH
	DD	0e653H
	DD	0e657H
	DD	0e663H
	DD	0e66fH
	DD	0e675H
	DD	0e681H
	DD	0e683H
	DD	0e68dH
	DD	0e68fH
	DD	0e695H
	DD	0e6abH
	DD	0e6adH
	DD	0e6b7H
	DD	0e6bdH
	DD	0e6c5H
	DD	0e6cbH
	DD	0e6d5H
	DD	0e6e3H
	DD	0e6e9H
	DD	0e6efH
	DD	0e6f3H
	DD	0e705H
	DD	0e70dH
	DD	0e717H
	DD	0e71fH
	DD	0e72fH
	DD	0e73dH
	DD	0e747H
	DD	0e749H
	DD	0e753H
	DD	0e755H
	DD	0e761H
	DD	0e767H
	DD	0e76bH
	DD	0e77fH
	DD	0e789H
	DD	0e791H
	DD	0e7c5H
	DD	0e7cdH
	DD	0e7d7H
	DD	0e7ddH
	DD	0e7dfH
	DD	0e7e9H
	DD	0e7f1H
	DD	0e7fbH
	DD	0e801H
	DD	0e807H
	DD	0e80fH
	DD	0e819H
	DD	0e81bH
	DD	0e831H
	DD	0e833H
	DD	0e837H
	DD	0e83dH
	DD	0e84bH
	DD	0e84fH
	DD	0e851H
	DD	0e869H
	DD	0e875H
	DD	0e879H
	DD	0e893H
	DD	0e8a5H
	DD	0e8a9H
	DD	0e8afH
	DD	0e8bdH
	DD	0e8dbH
	DD	0e8e1H
	DD	0e8e5H
	DD	0e8ebH
	DD	0e8edH
	DD	0e903H
	DD	0e90bH
	DD	0e90fH
	DD	0e915H
	DD	0e917H
	DD	0e92dH
	DD	0e933H
	DD	0e93bH
	DD	0e94bH
	DD	0e951H
	DD	0e95fH
	DD	0e963H
	DD	0e969H
	DD	0e97bH
	DD	0e983H
	DD	0e98fH
	DD	0e995H
	DD	0e9a1H
	DD	0e9b9H
	DD	0e9d7H
	DD	0e9e7H
	DD	0e9efH
	DD	0ea11H
	DD	0ea19H
	DD	0ea2fH
	DD	0ea35H
	DD	0ea43H
	DD	0ea4dH
	DD	0ea5fH
	DD	0ea6dH
	DD	0ea71H
	DD	0ea7dH
	DD	0ea85H
	DD	0ea89H
	DD	0eaadH
	DD	0eab3H
	DD	0eab9H
	DD	0eabbH
	DD	0eac5H
	DD	0eac7H
	DD	0eacbH
	DD	0eadfH
	DD	0eae5H
	DD	0eaebH
	DD	0eaf5H
	DD	0eb01H
	DD	0eb07H
	DD	0eb09H
	DD	0eb31H
	DD	0eb39H
	DD	0eb3fH
	DD	0eb5bH
	DD	0eb61H
	DD	0eb63H
	DD	0eb6fH
	DD	0eb81H
	DD	0eb85H
	DD	0eb9dH
	DD	0ebabH
	DD	0ebb1H
	DD	0ebb7H
	DD	0ebc1H
	DD	0ebd5H
	DD	0ebdfH
	DD	0ebedH
	DD	0ebfdH
	DD	0ec0bH
	DD	0ec1bH
	DD	0ec21H
	DD	0ec29H
	DD	0ec4dH
	DD	0ec51H
	DD	0ec5dH
	DD	0ec69H
	DD	0ec6fH
	DD	0ec7bH
	DD	0ecadH
	DD	0ecb9H
	DD	0ecbfH
	DD	0ecc3H
	DD	0ecc9H
	DD	0eccfH
	DD	0ecd7H
	DD	0ecddH
	DD	0ece7H
	DD	0ece9H
	DD	0ecf3H
	DD	0ecf5H
	DD	0ed07H
	DD	0ed11H
	DD	0ed1fH
	DD	0ed2fH
	DD	0ed37H
	DD	0ed3dH
	DD	0ed41H
	DD	0ed55H
	DD	0ed59H
	DD	0ed5bH
	DD	0ed65H
	DD	0ed6bH
	DD	0ed79H
	DD	0ed8bH
	DD	0ed95H
	DD	0edbbH
	DD	0edc5H
	DD	0edd7H
	DD	0edd9H
	DD	0ede3H
	DD	0ede5H
	DD	0edf1H
	DD	0edf5H
	DD	0edf7H
	DD	0edfbH
	DD	0ee09H
	DD	0ee0fH
	DD	0ee19H
	DD	0ee21H
	DD	0ee49H
	DD	0ee4fH
	DD	0ee63H
	DD	0ee67H
	DD	0ee73H
	DD	0ee7bH
	DD	0ee81H
	DD	0eea3H
	DD	0eeabH
	DD	0eec1H
	DD	0eec9H
	DD	0eed5H
	DD	0eedfH
	DD	0eee1H
	DD	0eef1H
	DD	0ef1bH
	DD	0ef27H
	DD	0ef2fH
	DD	0ef45H
	DD	0ef4dH
	DD	0ef63H
	DD	0ef6bH
	DD	0ef71H
	DD	0ef93H
	DD	0ef95H
	DD	0ef9bH
	DD	0ef9fH
	DD	0efadH
	DD	0efb3H
	DD	0efc3H
	DD	0efc5H
	DD	0efdbH
	DD	0efe1H
	DD	0efe9H
	DD	0f001H
	DD	0f017H
	DD	0f01dH
	DD	0f01fH
	DD	0f02bH
	DD	0f02fH
	DD	0f035H
	DD	0f043H
	DD	0f047H
	DD	0f04fH
	DD	0f067H
	DD	0f06bH
	DD	0f071H
	DD	0f077H
	DD	0f079H
	DD	0f08fH
	DD	0f0a3H
	DD	0f0a9H
	DD	0f0adH
	DD	0f0bbH
	DD	0f0bfH
	DD	0f0c5H
	DD	0f0cbH
	DD	0f0d3H
	DD	0f0d9H
	DD	0f0e3H
	DD	0f0e9H
	DD	0f0f1H
	DD	0f0f7H
	DD	0f107H
	DD	0f115H
	DD	0f11bH
	DD	0f121H
	DD	0f137H
	DD	0f13dH
	DD	0f155H
	DD	0f175H
	DD	0f17bH
	DD	0f18dH
	DD	0f193H
	DD	0f1a5H
	DD	0f1afH
	DD	0f1b7H
	DD	0f1d5H
	DD	0f1e7H
	DD	0f1edH
	DD	0f1fdH
	DD	0f209H
	DD	0f20fH
	DD	0f21bH
	DD	0f21dH
	DD	0f223H
	DD	0f227H
	DD	0f233H
	DD	0f23bH
	DD	0f241H
	DD	0f257H
	DD	0f25fH
	DD	0f265H
	DD	0f269H
	DD	0f277H
	DD	0f281H
	DD	0f293H
	DD	0f2a7H
	DD	0f2b1H
	DD	0f2b3H
	DD	0f2b9H
	DD	0f2bdH
	DD	0f2bfH
	DD	0f2dbH
	DD	0f2edH
	DD	0f2efH
	DD	0f2f9H
	DD	0f2ffH
	DD	0f305H
	DD	0f30bH
	DD	0f319H
	DD	0f341H
	DD	0f359H
	DD	0f35bH
	DD	0f35fH
	DD	0f367H
	DD	0f373H
	DD	0f377H
	DD	0f38bH
	DD	0f38fH
	DD	0f3afH
	DD	0f3c1H
	DD	0f3d1H
	DD	0f3d7H
	DD	0f3fbH
	DD	0f403H
	DD	0f409H
	DD	0f40dH
	DD	0f413H
	DD	0f421H
	DD	0f425H
	DD	0f42bH
	DD	0f445H
	DD	0f44bH
	DD	0f455H
	DD	0f463H
	DD	0f475H
	DD	0f47fH
	DD	0f485H
	DD	0f48bH
	DD	0f499H
	DD	0f4a3H
	DD	0f4a9H
	DD	0f4afH
	DD	0f4bdH
	DD	0f4c3H
	DD	0f4dbH
	DD	0f4dfH
	DD	0f4edH
	DD	0f503H
	DD	0f50bH
	DD	0f517H
	DD	0f521H
	DD	0f529H
	DD	0f535H
	DD	0f547H
	DD	0f551H
	DD	0f563H
	DD	0f56bH
	DD	0f583H
	DD	0f58dH
	DD	0f595H
	DD	0f599H
	DD	0f5b1H
	DD	0f5b7H
	DD	0f5c9H
	DD	0f5cfH
	DD	0f5d1H
	DD	0f5dbH
	DD	0f5f9H
	DD	0f5fbH
	DD	0f605H
	DD	0f607H
	DD	0f60bH
	DD	0f60dH
	DD	0f635H
	DD	0f637H
	DD	0f653H
	DD	0f65bH
	DD	0f661H
	DD	0f667H
	DD	0f679H
	DD	0f67fH
	DD	0f689H
	DD	0f697H
	DD	0f69bH
	DD	0f6adH
	DD	0f6cbH
	DD	0f6ddH
	DD	0f6dfH
	DD	0f6ebH
	DD	0f709H
	DD	0f70fH
	DD	0f72dH
	DD	0f731H
	DD	0f743H
	DD	0f74fH
	DD	0f751H
	DD	0f755H
	DD	0f763H
	DD	0f769H
	DD	0f773H
	DD	0f779H
	DD	0f781H
	DD	0f787H
	DD	0f791H
	DD	0f79dH
	DD	0f79fH
	DD	0f7a5H
	DD	0f7b1H
	DD	0f7bbH
	DD	0f7bdH
	DD	0f7cfH
	DD	0f7d3H
	DD	0f7e7H
	DD	0f7ebH
	DD	0f7f1H
	DD	0f7ffH
	DD	0f805H
	DD	0f80bH
	DD	0f821H
	DD	0f827H
	DD	0f82dH
	DD	0f835H
	DD	0f847H
	DD	0f859H
	DD	0f863H
	DD	0f865H
	DD	0f86fH
	DD	0f871H
	DD	0f877H
	DD	0f87bH
	DD	0f881H
	DD	0f88dH
	DD	0f89fH
	DD	0f8a1H
	DD	0f8abH
	DD	0f8b3H
	DD	0f8b7H
	DD	0f8c9H
	DD	0f8cbH
	DD	0f8d1H
	DD	0f8d7H
	DD	0f8ddH
	DD	0f8e7H
	DD	0f8efH
	DD	0f8f9H
	DD	0f8ffH
	DD	0f911H
	DD	0f91dH
	DD	0f925H
	DD	0f931H
	DD	0f937H
	DD	0f93bH
	DD	0f941H
	DD	0f94fH
	DD	0f95fH
	DD	0f961H
	DD	0f96dH
	DD	0f971H
	DD	0f977H
	DD	0f99dH
	DD	0f9a3H
	DD	0f9a9H
	DD	0f9b9H
	DD	0f9cdH
	DD	0f9e9H
	DD	0f9fdH
	DD	0fa07H
	DD	0fa0dH
	DD	0fa13H
	DD	0fa21H
	DD	0fa25H
	DD	0fa3fH
	DD	0fa43H
	DD	0fa51H
	DD	0fa5bH
	DD	0fa6dH
	DD	0fa7bH
	DD	0fa97H
	DD	0fa99H
	DD	0fa9dH
	DD	0faabH
	DD	0fabbH
	DD	0fabdH
	DD	0fad9H
	DD	0fadfH
	DD	0fae7H
	DD	0faedH
	DD	0fb0fH
	DD	0fb17H
	DD	0fb1bH
	DD	0fb2dH
	DD	0fb2fH
	DD	0fb3fH
	DD	0fb47H
	DD	0fb4dH
	DD	0fb75H
	DD	0fb7dH
	DD	0fb8fH
	DD	0fb93H
	DD	0fbb1H
	DD	0fbb7H
	DD	0fbc3H
	DD	0fbc5H
	DD	0fbe3H
	DD	0fbe9H
	DD	0fbf3H
	DD	0fc01H
	DD	0fc29H
	DD	0fc37H
	DD	0fc41H
	DD	0fc43H
	DD	0fc4fH
	DD	0fc59H
	DD	0fc61H
	DD	0fc65H
	DD	0fc6dH
	DD	0fc73H
	DD	0fc79H
	DD	0fc95H
	DD	0fc97H
	DD	0fc9bH
	DD	0fca7H
	DD	0fcb5H
	DD	0fcc5H
	DD	0fccdH
	DD	0fcebH
	DD	0fcfbH
	DD	0fd0dH
	DD	0fd0fH
	DD	0fd19H
	DD	0fd2bH
	DD	0fd31H
	DD	0fd51H
	DD	0fd55H
	DD	0fd67H
	DD	0fd6dH
	DD	0fd6fH
	DD	0fd7bH
	DD	0fd85H
	DD	0fd97H
	DD	0fd99H
	DD	0fd9fH
	DD	0fda9H
	DD	0fdb7H
	DD	0fdc9H
	DD	0fde5H
	DD	0fdebH
	DD	0fdf3H
	DD	0fe03H
	DD	0fe05H
	DD	0fe09H
	DD	0fe1dH
	DD	0fe27H
	DD	0fe2fH
	DD	0fe41H
	DD	0fe4bH
	DD	0fe4dH
	DD	0fe57H
	DD	0fe5fH
	DD	0fe63H
	DD	0fe69H
	DD	0fe75H
	DD	0fe7bH
	DD	0fe8fH
	DD	0fe93H
	DD	0fe95H
	DD	0fe9bH
	DD	0fe9fH
	DD	0feb3H
	DD	0febdH
	DD	0fed7H
	DD	0fee9H
	DD	0fef3H
	DD	0fef5H
	DD	0ff07H
	DD	0ff0dH
	DD	0ff1dH
	DD	0ff2bH
	DD	0ff2fH
	DD	0ff49H
	DD	0ff4dH
	DD	0ff5bH
	DD	0ff65H
	DD	0ff71H
	DD	0ff7fH
	DD	0ff85H
	DD	0ff8bH
	DD	0ff8fH
	DD	0ff9dH
	DD	0ffa7H
	DD	0ffa9H
	DD	0ffc7H
	DD	0ffd9H
	DD	0ffefH
	DD	0fff1H
	DD	010001H
	DD	010003H
	DD	010007H
	DD	01000fH
	DD	010015H
	DD	01001bH
	DD	01002bH
	DD	01002dH
	DD	010033H
	DD	01003fH
	DD	010049H
	DD	010051H
	DD	01005dH
	DD	010061H
	DD	01006fH
	DD	010073H
	DD	010079H
	DD	01008dH
	DD	010097H
	DD	0100a3H
	DD	0100a5H
	DD	0100abH
	DD	0100b1H
	DD	0100b5H
	DD	0100b7H
	DD	0100c1H
	DD	0100c3H
	DD	0100e1H
	DD	0100f1H
	DD	0100fdH
	DD	010111H
	DD	010123H
	DD	010127H
	DD	01012dH
	DD	01012fH
	DD	010133H
	DD	01013bH
	DD	01014bH
	DD	010159H
	DD	01016bH
	DD	010181H
	DD	010187H
	DD	010189H
	DD	01019fH
	DD	0101a5H
	DD	0101abH
	DD	0101bdH
	DD	0101bfH
	DD	0101c9H
	DD	0101edH
	DD	0101f5H
	DD	0101f9H
	DD	0101ffH
	DD	010213H
	DD	010217H
	DD	010223H
	DD	010229H
	DD	010237H
	DD	01023bH
	DD	01023dH
	DD	010259H
	DD	010271H
	DD	010279H
	DD	01027dH
	DD	010283H
	DD	01028fH
	DD	0102adH
	DD	0102bfH
	DD	0102dfH
	DD	0102f5H
	DD	0102fdH
	DD	010321H
	DD	010327H
	DD	01032bH
	DD	010337H
	DD	010339H
	DD	010345H
	DD	010349H
	DD	01034fH
	DD	010363H
	DD	01036dH
	DD	01037fH
	DD	010391H
	DD	010399H
	DD	01039fH
	DD	0103a3H
	DD	0103bbH
	DD	0103c3H
	DD	0103cdH
	DD	0103dbH
	DD	0103e1H
	DD	0103e5H
	DD	0103edH
	DD	0103f9H
	DD	010409H
	DD	01040bH
	DD	01041bH
	DD	010421H
	DD	010429H
	DD	010439H
	DD	010445H
	DD	010453H
	DD	01045dH
	DD	01047bH
	DD	010489H
	DD	01048dH
	DD	010499H
	DD	0104a1H
	DD	0104adH
	DD	0104b3H
	DD	0104bdH
	DD	0104bfH
	DD	0104cbH
	DD	0104e7H
	DD	0104edH
	DD	0104f9H
	DD	010505H
	DD	010519H
	DD	010523H
	DD	010525H
	DD	01052fH
	DD	01053dH
	DD	010543H
	DD	010549H
	DD	010567H
	DD	01056bH
	DD	010573H
	DD	01057fH
	DD	010583H
	DD	010585H
	DD	01058fH
	DD	01059dH
	DD	0105a1H
	DD	0105bbH
	DD	0105cdH
	DD	0105d9H
	DD	0105e3H
	DD	0105e9H
	DD	0105f1H
	DD	0105f5H
	DD	010601H
	DD	010607H
	DD	01061fH
	DD	010631H
	DD	010639H
	DD	010643H
	DD	010645H
	DD	010651H
	DD	010655H
	DD	010661H
	DD	01066dH
	DD	010673H
	DD	010675H
	DD	01068bH
	DD	01068dH
	DD	010691H
	DD	010693H
	DD	01069fH
	DD	0106afH
	DD	0106bdH
	DD	0106c7H
	DD	0106c9H
	DD	0106d9H
	DD	0106ebH
	DD	01070bH
	DD	01070fH
	DD	010715H
	DD	010729H
	DD	01073fH
	DD	010747H
	DD	010751H
	DD	010753H
	DD	01075dH
	DD	010763H
	DD	010765H
	DD	010769H
	DD	010777H
	DD	01077dH
	DD	010795H
	DD	010799H
	DD	0107a1H
	DD	0107a5H
	DD	0107abH
	DD	0107b7H
	DD	0107c3H
	DD	0107cbH
	DD	0107d1H
	DD	0107dbH
	DD	0107e7H
	DD	0107efH
	DD	0107f9H
	DD	0107fbH
	DD	010805H
	DD	010811H
	DD	010817H
	DD	010823H
	DD	01082fH
	DD	010843H
	DD	01085fH
	DD	010873H
	DD	01087dH
	DD	01088bH
	DD	010895H
	DD	01089dH
	DD	0108a7H
	DD	0108adH
	DD	0108afH
	DD	0108b3H
	DD	0108c1H
	DD	0108c7H
	DD	0108cdH
	DD	0108d9H
	DD	0108dfH
	DD	0108ebH
	DD	0108f5H
	DD	010903H
	DD	01090dH
	DD	01091bH
	DD	01092bH
	DD	010933H
	DD	01093dH
	DD	010957H
	DD	01095bH
	DD	01095dH
	DD	010963H
	DD	010967H
	DD	010975H
	DD	010979H
	DD	01097fH
	DD	01098bH
	DD	010993H
	DD	010999H
	DD	0109b7H
	DD	0109c9H
	DD	0109d5H
	DD	0109dbH
	DD	0109e7H
	DD	0109f7H
	DD	010a03H
	DD	010a0fH
	DD	010a11H
	DD	010a2dH
	DD	010a33H
	DD	010a41H
	DD	010a4bH
	DD	010a6fH
	DD	010a71H
	DD	010a75H
	DD	010a7bH
	DD	010a83H
	DD	010a8fH
	DD	010aa5H
	DD	010ab7H
	DD	010ab9H
	DD	010ad7H
	DD	010ae9H
	DD	010affH
	DD	010b13H
	DD	010b25H
	DD	010b2fH
	DD	010b55H
	DD	010b5bH
	DD	010b5fH
	DD	010b61H
	DD	010b79H
	DD	010b7dH
	DD	010b83H
	DD	010b89H
	DD	010b8bH
	DD	010b95H
	DD	010b9bH
	DD	010ba9H
	DD	010bb3H
	DD	010bbbH
	DD	010bbfH
	DD	010bd7H
	DD	010be5H
	DD	010bf5H
	DD	010c03H
	DD	010c19H
	DD	010c1fH
	DD	010c33H
	DD	010c3dH
	DD	010c4bH
	DD	010c4fH
	DD	010c5bH
	DD	010c67H
	DD	010c69H
	DD	010c79H
	DD	010c81H
	DD	010c87H
	DD	010c8dH
	DD	010c9fH
	DD	010ca3H
	DD	010ca9H
	DD	010cb7H
	DD	010ccdH
	DD	010cd3H
	DD	010cd5H
	DD	010cffH
	DD	010d0fH
	DD	010d11H
	DD	010d1bH
	DD	010d21H
	DD	010d23H
	DD	010d27H
	DD	010d2dH
	DD	010d35H
	DD	010d3fH
	DD	010d53H
	DD	010d63H
	DD	010d81H
	DD	010d89H
	DD	010d93H
	DD	010d9bH
	DD	010da5H
	DD	010da7H
	DD	010dc5H
	DD	010dcbH
	DD	010dd1H
	DD	010df5H
	DD	010dffH
	DD	010e07H
	DD	010e17H
	DD	010e1dH
	DD	010e1fH
	DD	010e2bH
	DD	010e47H
	DD	010e49H
	DD	010e4dH
	DD	010e53H
	DD	010e65H
	DD	010e71H
	DD	010e77H
	DD	010e7fH
	DD	010e89H
	DD	010e8bH
	DD	010e8fH
	DD	010ec1H
	DD	010ec5H
	DD	010ed9H
	DD	010eddH
	DD	010efbH
	DD	010f03H
	DD	010f07H
	DD	010f0dH
	DD	010f19H
	DD	010f1bH
	DD	010f33H
	DD	010f37H
	DD	010f3fH
	DD	010f51H
	DD	010f57H
	DD	010f5bH
	DD	010f61H
	DD	010f69H
	DD	010f73H
	DD	010f75H
	DD	010f79H
	DD	010f7bH
	DD	010fa3H
	DD	010fb5H
	DD	010fd9H
	DD	010ff7H
	DD	011015H
	DD	01101dH
	DD	01102dH
	DD	01103bH
	DD	011041H
	DD	01104dH
	DD	011069H
	DD	01106bH
	DD	011081H
	DD	011083H
	DD	011087H
	DD	011093H
	DD	0110b1H
	DD	0110bdH
	DD	0110c3H
	DD	0110c5H
	DD	0110c9H
	DD	0110d7H
	DD	0110e1H
	DD	0110e3H
	DD	0110f5H
	DD	01110bH
	DD	011117H
	DD	011129H
	DD	01112bH
	DD	011135H
	DD	011147H
	DD	011167H
	DD	01116dH
	DD	011171H
	DD	011173H
	DD	011179H
	DD	011183H
	DD	011197H
	DD	0111a3H
	DD	0111adH
	DD	0111b3H
	DD	0111bfH
	DD	0111d3H
	DD	0111dfH
	DD	0111e5H
	DD	0111e9H
	DD	0111ebH
	DD	0111fbH
	DD	0111fdH
	DD	01120dH
	DD	011213H
	DD	011221H
	DD	011225H
	DD	011227H
	DD	011237H
	DD	011239H
	DD	01123fH
	DD	01124fH
	DD	011255H
	DD	01125dH
	DD	011261H
	DD	011269H
	DD	01127fH
	DD	011291H
	DD	011299H
	DD	0112a5H
	DD	0112a9H
	DD	0112b1H
	DD	0112b7H
	DD	0112cfH
	DD	0112e5H
	DD	0112ebH
	DD	0112edH
	DD	0112f9H
	DD	011317H
	DD	01131dH
	DD	011327H
	DD	011333H
	DD	011339H
	DD	01133bH
	DD	011351H
	DD	011357H
	DD	011359H
	DD	011365H
	DD	01136bH
	DD	011381H
	DD	011389H
	DD	011395H
	DD	0113abH
	DD	0113adH
	DD	0113b7H
	DD	0113bdH
	DD	0113cfH
	DD	0113dbH
	DD	0113ddH
	DD	0113e3H
	DD	0113efH
	DD	011401H
	DD	011407H
	DD	01140bH
	DD	01141fH
	DD	011435H
	DD	01143dH
	DD	011449H
	DD	011461H
	DD	011471H
	DD	01147fH
	DD	011489H
	DD	0114a7H
	DD	0114b9H
	DD	0114bbH
	DD	0114c1H
	DD	0114c5H
	DD	0114d3H
	DD	0114ddH
	DD	0114dfH
	DD	0114ebH
	DD	0114f5H
	DD	011501H
	DD	011507H
	DD	011509H
	DD	011519H
	DD	011525H
	DD	011527H
	DD	01152dH
	DD	011539H
	DD	011543H
	DD	011545H
	DD	01154fH
	DD	011555H
	DD	011557H
	DD	011563H
	DD	01156fH
	DD	01157fH
	DD	011593H
	DD	01159dH
	DD	0115a9H
	DD	0115b1H
	DD	0115cfH
	DD	0115d9H
	DD	0115e7H
	DD	0115ebH
	DD	0115f1H
	DD	0115f9H
	DD	0115ffH
	DD	011603H
	DD	011617H
	DD	011629H
	DD	011641H
	DD	011645H
	DD	011651H
	DD	011659H
	DD	01165dH
	DD	01165fH
	DD	011677H
	DD	01167dH
	DD	011695H
	DD	01169fH
	DD	0116a1H
	DD	0116a5H
	DD	0116abH
	DD	0116adH
	DD	0116b3H
	DD	0116b9H
	DD	0116bfH
	DD	0116c3H
	DD	0116dbH
	DD	0116ddH
	DD	0116e7H
	DD	0116f3H
	DD	0116f5H
	DD	0116fbH
	DD	011705H
	DD	01170dH
	DD	011713H
	DD	01171dH
	DD	01172fH
	DD	011731H
	DD	011737H
	DD	01173bH
	DD	01174fH
	DD	011767H
	DD	011771H
	DD	01177dH
	DD	01177fH
	DD	01178bH
	DD	011791H
	DD	0117a9H
	DD	0117adH
	DD	0117d1H
	DD	0117dfH
	DD	0117efH
	DD	0117f7H
	DD	01180dH
	DD	011813H
	DD	01181bH
	DD	01181fH
	DD	011821H
	DD	011827H
	DD	01183dH
	DD	011851H
	DD	011861H
	DD	01186dH
	DD	01187fH
	DD	011881H
	DD	01188dH
	DD	01189dH
	DD	0118a3H
	DD	0118a9H
	DD	0118b5H
	DD	0118bbH
	DD	0118c7H
	DD	0118c9H
	DD	0118cfH
	DD	0118dbH
	DD	0118e5H
	DD	0118edH
	DD	0118fdH
	DD	011905H
	DD	01190bH
	DD	01191bH
	DD	011923H
	DD	01192fH
	DD	011933H
	DD	011939H
	DD	01193fH
	DD	011953H
	DD	01195fH
	DD	01196bH
	DD	01196fH
	DD	011975H
	DD	011989H
	DD	01198dH
	DD	011999H
	DD	01199bH
	DD	0119a5H
	DD	0119a7H
	DD	0119adH
	DD	0119cbH
	DD	0119e1H
	DD	0119e7H
	DD	0119e9H
	DD	0119edH
	DD	011a13H
	DD	011a1dH
	DD	011a1fH
	DD	011a23H
	DD	011a25H
	DD	011a3bH
	DD	011a3dH
	DD	011a4dH
	DD	011a4fH
	DD	011a55H
	DD	011a5fH
	DD	011a73H
	DD	011a79H
	DD	011a91H
	DD	011a95H
	DD	011aa1H
	DD	011aafH
	DD	011abbH
	DD	011abfH
	DD	011ae5H
	DD	011aefH
	DD	011b0dH
	DD	011b13H
	DD	011b15H
	DD	011b21H
	DD	011b2dH
	DD	011b31H
	DD	011b37H
	DD	011b55H
	DD	011b63H
	DD	011b67H
	DD	011b6fH
	DD	011b81H
	DD	011ba5H
	DD	011ba9H
	DD	011bafH
	DD	011bc3H
	DD	011bc7H
	DD	011bc9H
	DD	011bd5H
	DD	011bdfH
	DD	011be1H
	DD	011be7H
	DD	011bf1H
	DD	011bfdH
	DD	011c03H
	DD	011c0fH
	DD	011c17H
	DD	011c1dH
	DD	011c23H
	DD	011c3bH
	DD	011c3fH
	DD	011c5dH
	DD	011c71H
	DD	011c77H
	DD	011c9bH
	DD	011ca5H
	DD	011ca7H
	DD	011cb3H
	DD	011cb9H
	DD	011cbdH
	DD	011cc5H
	DD	011ccbH
	DD	011ccfH
	DD	011cdbH
	DD	011ce3H
	DD	011ce9H
	DD	011cf5H
	DD	011cf9H
	DD	011cffH
	DD	011d0dH
	DD	011d11H
	DD	011d25H
	DD	011d31H
	DD	011d35H
	DD	011d3bH
	DD	011d4dH
	DD	011d4fH
	DD	011d53H
	DD	011d65H
	DD	011d67H
	DD	011d77H
	DD	011d83H
	DD	011da1H
	DD	011da7H
	DD	011dadH
	DD	011db5H
	DD	011dddH
	DD	011de5H
	DD	011e15H
	DD	011e1bH
	DD	011e2bH
	DD	011e3dH
	DD	011e4bH
	DD	011e57H
	DD	011e5dH
	DD	011e6fH
	DD	011e73H
	DD	011e87H
	DD	011e91H
	DD	011e93H
	DD	011e99H
	DD	011ea3H
	DD	011eabH
	DD	011ec9H
	DD	011ecdH
	DD	011ed9H
	DD	011eedH
	DD	011ef3H
	DD	011effH
	DD	011f05H
	DD	011f0bH
	DD	011f2dH
	DD	011f33H
	DD	011f39H
	DD	011f4bH
	DD	011f51H
	DD	011f59H
	DD	011f63H
	DD	011f6fH
	DD	011f75H
	DD	011f7dH
	DD	011f87H
	DD	011f89H
	DD	011f8dH
	DD	011fa5H
	DD	011fabH
	DD	011fb3H
	DD	011fc9H
	DD	011fcfH
	DD	011fd1H
	DD	011fddH
	DD	011fe3H
	DD	011fedH
	DD	011ff9H
	DD	011fffH
	DD	012017H
	DD	01201dH
	DD	01202bH
	DD	012037H
	DD	01205bH
	DD	01205fH
	DD	012077H
	DD	012079H
	DD	012083H
	DD	01208bH
	DD	012095H
	DD	01209bH
	DD	0120a9H
	DD	0120b3H
	DD	0120d3H
	DD	0120d7H
	DD	0120dfH
	DD	0120e9H
	DD	0120f5H
	DD	01210fH
	DD	012121H
	DD	012125H
	DD	01212bH
	DD	01213fH
	DD	012143H
	DD	012157H
	DD	01215dH
	DD	01216dH
	DD	012173H
	DD	012175H
	DD	012193H
	DD	01219fH
	DD	0121a5H
	DD	0121afH
	DD	0121b1H
	DD	0121b7H
	DD	0121c1H
	DD	0121cdH
	DD	0121d5H
	DD	0121d9H
	DD	0121dbH
	DD	0121e1H
	DD	0121ebH
	DD	0121f7H
	DD	012211H
	DD	012227H
	DD	01222fH
	DD	012235H
	DD	012239H
	DD	012247H
	DD	01224dH
	DD	012253H
	DD	012271H
	DD	012275H
	DD	01227bH
	DD	012289H
	DD	01228dH
	DD	01228fH
	DD	0122abH
	DD	0122adH
	DD	0122b3H
	DD	0122c9H
	DD	0122d1H
	DD	0122d5H
	DD	0122e7H
	DD	0122f9H
	DD	01230bH
	DD	01230dH
	DD	012319H
	DD	01231fH
	DD	012323H
	DD	012337H
	DD	012341H
	DD	012347H
	DD	01234dH
	DD	01235bH
	DD	012365H
	DD	012371H
	DD	012373H
	DD	01237fH
	DD	01239dH
	DD	0123bfH
	DD	0123cbH
	DD	0123d3H
	DD	0123d9H
	DD	0123ddH
	DD	0123dfH
	DD	0123e9H
	DD	0123ebH
	DD	0123fbH
	DD	012407H
	DD	012409H
	DD	012413H
	DD	01241bH
	DD	01242dH
	DD	012445H
	DD	01244bH
	DD	01244fH
	DD	01245bH
	DD	012469H
	DD	01246dH
	DD	012475H
	DD	012479H
	DD	012487H
	DD	01248bH
	DD	012491H
	DD	012497H
	DD	0124abH
	DD	0124b1H
	DD	0124b5H
	DD	0124bdH
	DD	0124cfH
	DD	012503H
	DD	012505H
	DD	012509H
	DD	012515H
	DD	01251dH
	DD	012521H
	DD	012547H
	DD	01254bH
	DD	012565H
	DD	01257dH
	DD	01258dH
	DD	012599H
	DD	01259fH
	DD	0125a1H
	DD	0125adH
	DD	0125b9H
	DD	0125c9H
	DD	0125cbH
	DD	0125d1H
	DD	0125d7H
	DD	0125dbH
	DD	0125e7H
	DD	0125f5H
	DD	012605H
	DD	01260dH
	DD	012619H
	DD	01262bH
	DD	01263bH
	DD	012641H
	DD	012649H
	DD	012653H
	DD	012659H
	DD	012667H
	DD	012671H
	DD	01267dH
	DD	01267fH
	DD	012689H
	DD	01268bH
	DD	01268fH
	DD	0126a7H
	DD	0126adH
	DD	0126d7H
	DD	0126efH
	DD	0126f7H
	DD	012701H
	DD	012707H
	DD	01270dH
	DD	012713H
	DD	012715H
	DD	012721H
	DD	012725H
	DD	012733H
	DD	012739H
	DD	01273fH
	DD	01275bH
	DD	012761H
	DD	012763H
	DD	01276dH
	DD	012779H
	DD	012785H
	DD	01278bH
	DD	01279fH
	DD	0127a3H
	DD	0127a9H
	DD	0127b7H
	DD	0127bbH
	DD	0127bdH
	DD	0127c9H
	DD	0127d3H
	DD	0127dfH
	DD	0127f7H
	DD	0127fdH
	DD	012805H
	DD	01280bH
	DD	012811H
	DD	012815H
	DD	01282dH
	DD	012839H
	DD	01284dH
	DD	01285dH
	DD	01286bH
	DD	012889H
	DD	01289bH
	DD	0128a1H
	DD	0128a5H
	DD	0128bfH
	DD	0128cbH
	DD	0128cfH
	DD	0128d5H
	DD	0128d7H
	DD	0128ddH
	DD	0128e1H
	DD	0128e3H
	DD	0128ffH
	DD	012907H
	DD	01292fH
	DD	012931H
	DD	01293bH
	DD	012943H
	DD	012947H
	DD	01295bH
	DD	012961H
	DD	012973H
	DD	01297dH
	DD	01297fH
	DD	012983H
	DD	0129afH
	DD	0129b5H
	DD	0129c7H
	DD	0129d3H
	DD	0129d9H
	DD	0129ddH
	DD	0129e3H
	DD	0129e5H
	DD	0129fbH
	DD	012a01H
	DD	012a0fH
	DD	012a2dH
	DD	012a37H
	DD	012a4fH
	DD	012a51H
	DD	012a5bH
	DD	012a63H
	DD	012a73H
	DD	012a85H
	DD	012a87H
	DD	012a99H
	DD	012aafH
	DD	012ab7H
	DD	012ac1H
	DD	012ac7H
	DD	012acdH
	DD	012adbH
	DD	012adfH
	DD	012ae7H
	DD	012af9H
	DD	012afdH
	DD	012affH
	DD	012b11H
	DD	012b23H
	DD	012b35H
	DD	012b3bH
	DD	012b3fH
	DD	012b57H
	DD	012b69H
	DD	012b6bH
	DD	012b7bH
	DD	012b81H
	DD	012b87H
	DD	012b99H
	DD	012badH
	DD	012bbdH
	DD	012bd1H
	DD	012bd5H
	DD	012be3H
	DD	012be9H
	DD	012bedH
	DD	012c01H
	DD	012c13H
	DD	012c1dH
	DD	012c1fH
	DD	012c25H
	DD	012c2fH
	DD	012c47H
	DD	012c49H
	DD	012c53H
	DD	012c6bH
	DD	012c71H
	DD	012c77H
	DD	012c8fH
	DD	012c95H
	DD	012ca1H
	DD	012ca3H
	DD	012cbfH
	DD	012ccbH
	DD	012cd9H
	DD	012cdfH
	DD	012ce5H
	DD	012cf1H
	DD	012cf7H
	DD	012d0dH
	DD	012d19H
	DD	012d25H
	DD	012d2dH
	DD	012d51H
	DD	012d55H
	DD	012d61H
	DD	012d6fH
	DD	012d73H
	DD	012d87H
	DD	012d91H
	DD	012d9dH
	DD	012db5H
	DD	012db7H
	DD	012dbbH
	DD	012dc1H
	DD	012dcdH
	DD	012dcfH
	DD	012dd3H
	DD	012dd5H
	DD	012ddfH
	DD	012debH
	DD	012e05H
	DD	012e0bH
	DD	012e1bH
	DD	012e23H
	DD	012e27H
	DD	012e2fH
	DD	012e39H
	DD	012e41H
	DD	012e47H
	DD	012e69H
	DD	012e6bH
	DD	012e77H
	DD	012e87H
	DD	012e9fH
	DD	012ea5H
	DD	012ea7H
	DD	012eb1H
	DD	012eb3H
	DD	012ec5H
	DD	012ec9H
	DD	012ed1H
	DD	012ed7H
	DD	012ee7H
	DD	012eedH
	DD	012eefH
	DD	012ef5H
	DD	012efbH
	DD	012f01H
	DD	012f05H
	DD	012f13H
	DD	012f17H
	DD	012f2bH
	DD	012f31H
	DD	012f35H
	DD	012f49H
	DD	012f4fH
	DD	012f5bH
	DD	012f71H
	DD	012f77H
	DD	012f79H
	DD	012f83H
	DD	012f8fH
	DD	012f91H
	DD	012f97H
	DD	012f9bH
	DD	012fa3H
	DD	012fafH
	DD	012fb3H
	DD	012fc1H
	DD	012fcdH
	DD	012fd7H
	DD	012fe5H
	DD	012fe9H
	DD	012ff5H
	DD	01300fH
	DD	013019H
	DD	013027H
	DD	01302bH
	DD	013045H
	DD	01304bH
	DD	013069H
	DD	01306dH
	DD	01307fH
	DD	013091H
	DD	013099H
	DD	01309fH
	DD	0130afH
	DD	0130b7H
	DD	0130c1H
	DD	0130cfH
	DD	0130d9H
	DD	0130e1H
	DD	0130ebH
	DD	0130ffH
	DD	013115H
	DD	013129H
	DD	013139H
	DD	01313bH
	DD	01314dH
	DD	013153H
	DD	013157H
	DD	01315dH
	DD	013163H
	DD	01316fH
	DD	013171H
	DD	01317bH
	DD	013195H
	DD	013199H
	DD	0131a1H
	DD	0131b3H
	DD	0131c5H
	DD	0131cbH
	DD	0131ddH
	DD	0131e3H
	DD	0131e7H
	DD	0131edH
	DD	013205H
	DD	01320bH
	DD	01321fH
	DD	013241H
	DD	01325bH
	DD	013265H
	DD	013267H
	DD	013283H
	DD	01328fH
	DD	013297H
	DD	0132a1H
	DD	0132adH
	DD	0132afH
	DD	0132b5H
	DD	0132cbH
	DD	0132cdH
	DD	0132d9H
	DD	0132e9H
	DD	0132ebH
	DD	0132f1H
	DD	0132f7H
	DD	013301H
	DD	01330fH
	DD	01331fH
	DD	013333H
	DD	013339H
	DD	01333dH
	DD	013363H
	DD	013369H
	DD	013373H
	DD	013379H
	DD	013381H
	DD	013391H
	DD	0133bbH
	DD	0133bdH
	DD	0133c3H
	DD	0133c7H
	DD	0133cdH
	DD	0133d3H
	DD	0133d9H
	DD	0133e7H
	DD	0133f7H
	DD	013405H
	DD	013409H
	DD	01341dH
	DD	013427H
	DD	013429H
	DD	01342dH
	DD	013435H
	DD	013447H
	DD	013451H
	DD	01345dH
	DD	013481H
	DD	013483H
	DD	01348dH
	DD	0134b7H
	DD	0134bfH
	DD	0134c3H
	DD	0134d7H
	DD	0134efH
	DD	0134ffH
	DD	013507H
	DD	01351dH
	DD	013523H
	DD	01352bH
	DD	01352fH
	DD	013531H
	DD	013537H
	DD	01354dH
	DD	013553H
	DD	013559H
	DD	013561H
	DD	01357dH
	DD	01357fH
	DD	013589H
	DD	01359bH
	DD	0135a9H
	DD	0135afH
	DD	0135b3H
	DD	0135c5H
	DD	0135cdH
	DD	0135d7H
	DD	0135e5H
	DD	0135e9H
	DD	0135f5H
	DD	0135fdH
	DD	013607H
	DD	013613H
	DD	013621H
	DD	013625H
	DD	013627H
	DD	013633H
	DD	01363fH
	DD	013643H
	DD	013649H
	DD	01365bH
	DD	013679H
	DD	013685H
	DD	0136abH
	DD	0136b1H
	DD	0136bdH
	DD	0136c7H
	DD	0136c9H
	DD	0136dbH
	DD	0136e5H
	DD	0136f1H
	DD	0136f9H
	DD	0136fdH
	DD	013705H
	DD	01370bH
	DD	01370fH
	DD	013711H
	DD	013729H
	DD	013735H
	DD	013747H
	DD	01374bH
	DD	01374dH
	DD	013751H
	DD	013753H
	DD	01378dH
	DD	013799H
	DD	0137a1H
	DD	0137b9H
	DD	0137c3H
	DD	0137c5H
	DD	0137c9H
	DD	0137cfH
	DD	0137d5H
	DD	0137e1H
	DD	0137e3H
	DD	0137e7H
	DD	0137f5H
	DD	0137fbH
	DD	013801H
	DD	013811H
	DD	01381dH
	DD	01381fH
	DD	013823H
	DD	013843H
	DD	013847H
	DD	01385fH
	DD	013865H
	DD	01386bH
	DD	013873H
	DD	01387dH
	DD	01387fH
	DD	013895H
	DD	0138a7H
	DD	0138b3H
	DD	0138c7H
	DD	0138cdH
	DD	0138ebH
	DD	0138efH
	DD	01390dH
	DD	013913H
	DD	013915H
	DD	013919H
	DD	013927H
	DD	01392dH
	DD	013931H
	DD	01393fH
	DD	01394fH
	DD	013951H
	DD	01395dH
	DD	013967H
	DD	013969H
	DD	01396fH
	DD	01397bH
	DD	013987H
	DD	013991H
	DD	013997H
	DD	01399fH
	DD	0139b5H
	DD	0139bdH
	DD	0139c9H
	DD	0139d5H
	DD	0139dbH
	DD	0139ebH
	DD	0139f1H
	DD	013a03H
	DD	013a17H
	DD	013a2dH
	DD	013a3fH
	DD	013a41H
	DD	013a57H
	DD	013a59H
	DD	013a69H
	DD	013a6bH
	DD	013a81H
	DD	013a8fH
	DD	013a99H
	DD	013aadH
	DD	013ab7H
	DD	013ad7H
	DD	013adbH
	DD	013ae3H
	DD	013aedH
	DD	013af3H
	DD	013af5H
	DD	013b0bH
	DD	013b11H
	DD	013b1dH
	DD	013b1fH
	DD	013b25H
	DD	013b29H
	DD	013b2bH
	DD	013b2fH
	DD	013b3dH
	DD	013b49H
	DD	013b61H
	DD	013b6bH
	DD	013b6dH
	DD	013b79H
	DD	013b89H
	DD	013b8bH
	DD	013b8fH
	DD	013b95H
	DD	013ba3H
	DD	013ba9H
	DD	013bb3H
	DD	013bbfH
	DD	013bc1H
	DD	013bd1H
	DD	013bdfH
	DD	013c01H
	DD	013c0dH
	DD	013c0fH
	DD	013c15H
	DD	013c1bH
	DD	013c21H
	DD	013c25H
	DD	013c39H
	DD	013c43H
	DD	013c5dH
	DD	013c69H
	DD	013c75H
	DD	013c79H
	DD	013c7bH
	DD	013c7fH
	DD	013c87H
	DD	013c91H
	DD	013c93H
	DD	013c97H
	DD	013c99H
	DD	013cafH
	DD	013cb5H
	DD	013cbbH
	DD	013cc9H
	DD	013ccdH
	DD	013cdfH
	DD	013cebH
	DD	013d05H
	DD	013d0bH
	DD	013d15H
	DD	013d1dH
	DD	013d2dH
	DD	013d2fH
	DD	013d33H
	DD	013d47H
	DD	013d51H
	DD	013d57H
	DD	013d81H
	DD	013d83H
	DD	013d8dH
	DD	013d93H
	DD	013d9bH
	DD	013db3H
	DD	013dbfH
	DD	013dc5H
	DD	013dc9H
	DD	013dcfH
	DD	013ddbH
	DD	013dddH
	DD	013df9H
	DD	013e01H
	DD	013e0dH
	DD	013e1fH
	DD	013e31H
	DD	013e37H
	DD	013e65H
	DD	013e6dH
	DD	013e77H
	DD	013e7dH
	DD	013e8bH
	DD	013e8fH
	DD	013e91H
	DD	013e97H
	DD	013e9bH
	DD	013ea1H
	DD	013ecbH
	DD	013ed3H
	DD	013eddH
	DD	013ee5H
	DD	013eefH
	DD	013ef1H
	DD	013f03H
	DD	013f07H
	DD	013f0dH
	DD	013f19H
	DD	013f25H
	DD	013f27H
	DD	013f2bH
	DD	013f3fH
	DD	013f49H
	DD	013f55H
	DD	013f61H
	DD	013f69H
	DD	013f6dH
	DD	013f87H
	DD	013f99H
	DD	013fafH
	DD	013fb7H
	DD	013fbdH
	DD	013fcdH
	DD	013fdbH
	DD	013febH
	DD	013fedH
	DD	013fffH
	DD	014009H
	DD	01400bH
	DD	014011H
	DD	014017H
	DD	014021H
	DD	01402fH
	DD	014033H
	DD	014035H
	DD	014053H
	DD	014057H
	DD	014059H
	DD	01405dH
	DD	014065H
	DD	01406fH
	DD	014075H
	DD	014077H
	DD	014083H
	DD	014093H
	DD	014099H
	DD	0140d1H
	DD	0140dbH
	DD	0140ddH
	DD	0140e9H
	DD	0140f3H
	DD	0140fbH
	DD	014107H
	DD	01410dH
	DD	014111H
	DD	01411fH
	DD	014129H
	DD	01412bH
	DD	01412fH
	DD	014137H
	DD	01413dH
	DD	014141H
	DD	014155H
	DD	01415bH
	DD	014167H
	DD	01417dH
	DD	014183H
	DD	0141a3H
	DD	0141adH
	DD	0141afH
	DD	0141b9H
	DD	0141c5H
	DD	0141d3H
	DD	0141d9H
	DD	0141f5H
	DD	014219H
	DD	01421fH
	DD	014225H
	DD	014227H
	DD	014233H
	DD	014237H
	DD	01423dH
	DD	014243H
	DD	01424bH
	DD	014261H
	DD	014263H
	DD	014275H
	DD	01427fH
	DD	014281H
	DD	014287H
	DD	01428bH
	DD	01429fH
	DD	0142a9H
	DD	0142b1H
	DD	0142b5H
	DD	0142bbH
	DD	0142c9H
	DD	0142dbH
	DD	0142e1H
	DD	01430bH
	DD	014321H
	DD	014323H
	DD	014327H
	DD	014329H
	DD	014345H
	DD	014347H
	DD	01434bH
	DD	01435dH
	DD	014363H
	DD	014369H
	DD	01436fH
	DD	01437bH
	DD	01437dH
	DD	014395H
	DD	01439fH
	DD	0143c3H
	DD	0143c9H
	DD	0143cbH
	DD	0143d7H
	DD	0143e1H
	DD	0143fbH
	DD	014413H
	DD	014425H
	DD	014435H
	DD	01443bH
	DD	014441H
	DD	01444fH
	DD	014467H
	DD	014473H
	DD	014477H
	DD	01447fH
	DD	014485H
	DD	014491H
	DD	014495H
	DD	01449dH
	DD	0144adH
	DD	0144c1H
	DD	0144e9H
	DD	014503H
	DD	014507H
	DD	014513H
	DD	014515H
	DD	01451bH
	DD	01451fH
	DD	014521H
	DD	01452bH
	DD	014539H
	DD	014543H
	DD	014545H
	DD	014549H
	DD	014563H
	DD	01456fH
	DD	01458bH
	DD	01458dH
	DD	01459dH
	DD	0145b7H
	DD	0145bdH
	DD	0145c7H
	DD	0145c9H
	DD	0145cfH
	DD	0145d9H
	DD	0145dfH
	DD	0145e7H
	DD	0145edH
	DD	0145f3H
	DD	0145f9H
	DD	014603H
	DD	01460fH
	DD	014615H
	DD	014629H
	DD	014651H
	DD	014665H
	DD	014669H
	DD	01466bH
	DD	01467bH
	DD	014687H
	DD	01468dH
	DD	014699H
	DD	0146a1H
	DD	0146a5H
	DD	0146b7H
	DD	0146b9H
	DD	0146c5H
	DD	0146cfH
	DD	0146e9H
	DD	0146f5H
	DD	014705H
	DD	014707H
	DD	014719H
	DD	014731H
	DD	01473dH
	DD	014741H
	DD	01474fH
	DD	014765H
	DD	014779H
	DD	014783H
	DD	014791H
	DD	01479dH
	DD	0147a1H
	DD	0147b3H
	DD	0147bfH
	DD	0147c7H
	DD	0147d1H
	DD	0147ddH
	DD	0147e3H
	DD	014801H
	DD	01480fH
	DD	014813H
	DD	01482bH
	DD	014831H
	DD	01484fH
	DD	014855H
	DD	01485bH
	DD	01485dH
	DD	014863H
	DD	014879H
	DD	014899H
	DD	01489fH
	DD	0148a3H
	DD	0148a9H
	DD	0148afH
	DD	0148c3H
	DD	0148d3H
	DD	0148d5H
	DD	0148dfH
	DD	0148e7H
	DD	0148f3H
	DD	0148fdH
	DD	0148ffH
	DD	014905H
	DD	01490fH
	DD	014917H
	DD	014927H
	DD	01494bH
	DD	014953H
	DD	014959H
	DD	01495dH
	DD	01495fH
	DD	01497bH
	DD	01497dH
	DD	014999H
	DD	0149a5H
	DD	0149a7H
	DD	0149b1H
	DD	0149b7H
	DD	0149c5H
	DD	0149cfH
	DD	0149d5H
	DD	0149dbH
	DD	0149e1H
	DD	0149e9H
	DD	0149efH
	DD	0149f3H
	DD	014a01H
	DD	014a13H
	DD	014a17H
	DD	014a1dH
	DD	014a29H
	DD	014a2bH
	DD	014a35H
	DD	014a47H
	DD	014a4fH
	DD	014a6dH
	DD	014a95H
	DD	014a97H
	DD	014aa9H
	DD	014aadH
	DD	014ab3H
	DD	014ac1H
	DD	014ad3H
	DD	014ad9H
	DD	014addH
	DD	014ae9H
	DD	014aefH
	DD	014afbH
	DD	014b01H
	DD	014b0fH
	DD	014b19H
	DD	014b33H
	DD	014b39H
	DD	014b49H
	DD	014b4bH
	DD	014b5bH
	DD	014b79H
	DD	014b7bH
	DD	014b85H
	DD	014b87H
	DD	014bb1H
	DD	014bb7H
	DD	014bd3H
	DD	014be1H
	DD	014be7H
	DD	014bf1H
	DD	014bf3H
	DD	014bffH
	DD	014c11H
	DD	014c1dH
	DD	014c23H
	DD	014c2dH
	DD	014c39H
	DD	014c45H
	DD	014c59H
	DD	014c5fH
	DD	014c63H
	DD	014c65H
	DD	014c6fH
	DD	014c75H
	DD	014c81H
	DD	014c8dH
	DD	014c9bH
	DD	014ca7H
	DD	014cc9H
	DD	014ccfH
	DD	014cd1H
	DD	014cddH
	DD	014ce7H
	DD	014cedH
	DD	014cf5H
	DD	014cfbH
	DD	014cffH
	DD	014d0bH
	DD	014d31H
	DD	014d37H
	DD	014d41H
	DD	014d53H
	DD	014d55H
	DD	014d71H
	DD	014d73H
	DD	014d79H
	DD	014d85H
	DD	014da3H
	DD	014db3H
	DD	014db5H
	DD	014dbfH
	DD	014dc7H
	DD	014dcbH
	DD	014dcdH
	DD	014dddH
	DD	014defH
	DD	014e09H
	DD	014e0dH
	DD	014e13H
	DD	014e1bH
	DD	014e2dH
	DD	014e43H
	DD	014e49H
	DD	014e5dH
	DD	014e61H
	DD	014e67H
	DD	014e73H
	DD	014e75H
	DD	014e7bH
	DD	014e87H
	DD	014e8bH
	DD	014e9dH
	DD	014ea3H
	DD	014ea5H
	DD	014ebbH
	DD	014ec7H
	DD	014ecfH
	DD	014ed5H
	DD	014ee5H
	DD	014ef7H
	DD	014f15H
	DD	014f21H
	DD	014f39H
	DD	014f3bH
	DD	014f45H
	DD	014f47H
	DD	014f4dH
	DD	014f53H
	DD	014f57H
	DD	014f5dH
	DD	014f81H
	DD	014f8fH
	DD	014f95H
	DD	014fabH
	DD	014fadH
	DD	014fe7H
	DD	014fefH
	DD	014ffbH
	DD	015001H
	DD	01500bH
	DD	01500dH
	DD	015035H
	DD	01503dH
	DD	015043H
	DD	01505fH
	DD	015061H
	DD	015065H
	DD	015073H
	DD	015079H
	DD	01507fH
	DD	015091H
	DD	01509bH
	DD	0150a3H
	DD	0150a7H
	DD	0150b5H
	DD	0150b9H
	DD	0150c1H
	DD	0150dfH
	DD	0150e3H
	DD	0150e9H
	DD	0150f1H
	DD	0150f7H
	DD	0150fdH
	DD	01510fH
	DD	015113H
	DD	015115H
	DD	015119H
	DD	015127H
	DD	015133H
	DD	015145H
	DD	01514fH
	DD	015151H
	DD	015155H
	DD	015161H
	DD	015163H
	DD	01516dH
	DD	015175H
	DD	01517fH
	DD	01518dH
	DD	015197H
	DD	0151a9H
	DD	0151b5H
	DD	0151bdH
	DD	0151c3H
	DD	0151cdH
	DD	0151dbH
	DD	0151e5H
	DD	0151edH
	DD	015203H
	DD	015205H
	DD	01520bH
	DD	015221H
	DD	01522dH
	DD	015233H
	DD	01523bH
	DD	015247H
	DD	015263H
	DD	015265H
	DD	015295H
	DD	0152a1H
	DD	0152a5H
	DD	0152b7H
	DD	0152bfH
	DD	0152c9H
	DD	0152d7H
	DD	0152e1H
	DD	0152efH
	DD	0152f3H
	DD	0152ffH
	DD	01531dH
	DD	015335H
	DD	01533bH
	DD	015343H
	DD	015349H
	DD	01534dH
	DD	015355H
	DD	01538bH
	DD	01538fH
	DD	015391H
	DD	01539bH
	DD	0153a7H
	DD	0153afH
	DD	0153b9H
	DD	0153c5H
	DD	0153d1H
	DD	0153e3H
	DD	0153e5H
	DD	0153fdH
	DD	015401H
	DD	015409H
	DD	01541fH
	DD	01542bH
	DD	01543fH
	DD	015443H
	DD	01544fH
	DD	015451H
	DD	01545dH
	DD	01546dH
	DD	01546fH
	DD	01548bH
	DD	01548dH
	DD	015493H
	DD	0154abH
	DD	0154b5H
	DD	0154b7H
	DD	0154d3H
	DD	0154d5H
	DD	0154d9H
	DD	0154edH
	DD	0154f1H
	DD	0154fdH
	DD	015503H
	DD	015511H
	DD	015515H
	DD	01551bH
	DD	015529H
	DD	01553fH
	DD	015557H
	DD	01556bH
	DD	01556fH
	DD	01557dH
	DD	015583H
	DD	015589H
	DD	015593H
	DD	0155b1H
	DD	0155b9H
	DD	0155c3H
	DD	0155d5H
	DD	0155d7H
	DD	0155ddH
	DD	0155e3H
	DD	0155f3H
	DD	0155f5H
	DD	0155fbH
	DD	015601H
	DD	015605H
	DD	015607H
	DD	01561fH
	DD	015623H
	DD	015625H
	DD	01563dH
	DD	015647H
	DD	01564dH
	DD	01564fH
	DD	015659H
	DD	01565bH
	DD	015661H
	DD	015677H
	DD	01567fH
	DD	015683H
	DD	01568bH
	DD	015691H
	DD	015695H
	DD	0156a7H
	DD	0156a9H
	DD	0156bbH
	DD	0156bfH
	DD	0156c7H
	DD	0156d7H
	DD	0156f1H
	DD	0156f5H
	DD	0156fbH
	DD	015703H
	DD	015719H
	DD	01572dH
	DD	01573dH
	DD	015745H
	DD	015749H
	DD	01574fH
	DD	015767H
	DD	01576dH
	DD	01577bH
	DD	015787H
	DD	015797H
	DD	015799H
	DD	0157a5H
	DD	0157a9H
	DD	0157b7H
	DD	0157c1H
	DD	0157c3H
	DD	0157c7H
	DD	0157d3H
	DD	0157e5H
	DD	015805H
	DD	01580fH
	DD	01581dH
	DD	015835H
	DD	015841H
	DD	015869H
	DD	015871H
	DD	015893H
	DD	01589fH
	DD	0158adH
	DD	0158b1H
	DD	0158c3H
	DD	0158c5H
	DD	0158e1H
	DD	0158edH
	DD	015901H
	DD	015907H
	DD	015911H
	DD	015913H
	DD	01593bH
	DD	01594dH
	DD	01595bH
	DD	015967H
	DD	01596bH
	DD	01598fH
	DD	015995H
	DD	015997H
	DD	0159adH
	DD	0159b3H
	DD	0159c1H
	DD	0159cbH
	DD	0159e3H
	DD	015a0dH
	DD	015a0fH
	DD	015a1fH
	DD	015a21H
	DD	015a43H
	DD	015a4bH
	DD	015a51H
	DD	015a55H
	DD	015a57H
	DD	015a5bH
	DD	015a69H
	DD	015a91H
	DD	015a99H
	DD	015aa5H
	DD	015aabH
	DD	015ac3H
	DD	015ad5H
	DD	015ad9H
	DD	015adfH
	DD	015ae1H
	DD	015ae7H
	DD	015aebH
	DD	015aedH
	DD	015af1H
	DD	015af3H
	DD	015b0bH
	DD	015b15H
	DD	015b1dH
	DD	015b23H
	DD	015b29H
	DD	015b33H
	DD	015b41H
	DD	015b47H
	DD	015b57H
	DD	015b69H
	DD	015b77H
	DD	015b89H
	DD	015ba1H
	DD	015ba5H
	DD	015babH
	DD	015bb1H
	DD	015bb9H
	DD	015bbdH
	DD	015bd1H
	DD	015bdbH
	DD	015be1H
	DD	015bedH
	DD	015befH
	DD	015bfbH
	DD	015bffH
	DD	015c0dH
	DD	015c13H
	DD	015c19H
	DD	015c1fH
	DD	015c23H
	DD	015c31H
	DD	015c41H
	DD	015c65H
	DD	015c73H
	DD	015c79H
	DD	015c7dH
	DD	015c8bH
	DD	015c8fH
	DD	015c95H
	DD	015cadH
	DD	015cb5H
	DD	015cb9H
	DD	015ccdH
	DD	015cd7H
	DD	015ce5H
	DD	015cf1H
	DD	015d13H
	DD	015d1bH
	DD	015d25H
	DD	015d2bH
	DD	015d31H
	DD	015d37H
	DD	015d45H
	DD	015d49H
	DD	015d57H
	DD	015d63H
	DD	015d69H
	DD	015d73H
	DD	015d85H
	DD	015d93H
	DD	015d9dH
	DD	015da9H
	DD	015dafH
	DD	015db1H
	DD	015db7H
	DD	015dbdH
	DD	015dd9H
	DD	015ddbH
	DD	015ddfH
	DD	015df7H
	DD	015dfdH
	DD	015dffH
	DD	015e03H
	DD	015e0bH
	DD	015e1bH
	DD	015e21H
	DD	015e35H
	DD	015e39H
	DD	015e3bH
	DD	015e45H
	DD	015e47H
	DD	015e51H
	DD	015e59H
	DD	015e99H
	DD	015e9fH
	DD	015ea7H
	DD	015eb3H
	DD	015eb7H
	DD	015ec5H
	DD	015ed1H
	DD	015edbH
	DD	015eddH
	DD	015ee9H
	DD	015eefH
	DD	015ef9H
	DD	015f0bH
	DD	015f23H
	DD	015f29H
	DD	015f2bH
	DD	015f35H
	DD	015f3dH
	DD	015f43H
	DD	015f53H
	DD	015f67H
	DD	015f6bH
	DD	015f79H
	DD	015f7fH
	DD	015f85H
	DD	015f91H
	DD	015f97H
	DD	015f9bH
	DD	015fa1H
	DD	015fa3H
	DD	015fa7H
	DD	015fafH
	DD	015fc5H
	DD	015fcbH
	DD	015fd3H
	DD	015fd7H
	DD	015fd9H
	DD	015fe9H
	DD	015ffbH
	DD	016009H
	DD	01600fH
	DD	016025H
	DD	016033H
	DD	01603dH
	DD	01604bH
	DD	01604fH
	DD	016055H
	DD	016057H
	DD	01605bH
	DD	016069H
	DD	016073H
	DD	01607fH
	DD	016087H
	DD	016097H
	DD	01609fH
	DD	0160a9H
	DD	0160b1H
	DD	0160c9H
	DD	0160f1H
	DD	0160f7H
	DD	016103H
	DD	016105H
	DD	01610bH
	DD	01611dH
	DD	016121H
	DD	016123H
	DD	016127H
	DD	016145H
	DD	016147H
	DD	016165H
	DD	016169H
	DD	016171H
	DD	016183H
	DD	01618fH
	DD	01619bH
	DD	01619fH
	DD	0161a1H
	DD	0161a5H
	DD	0161b3H
	DD	0161d7H
	DD	0161e7H
	DD	0161f9H
	DD	0161fbH
	DD	016207H
	DD	016211H
	DD	016217H
	DD	016223H
	DD	016235H
	DD	016237H
	DD	016249H
	DD	01624fH
	DD	016255H
	DD	01626bH
	DD	01627dH
	DD	0162a3H
	DD	0162a9H
	DD	0162b3H
	DD	0162c5H
	DD	0162c7H
	DD	0162d1H
	DD	0162d9H
	DD	0162dfH
	DD	0162efH
	DD	016307H
	DD	016315H
	DD	01631bH
	DD	01631fH
	DD	016325H
	DD	016333H
	DD	016343H
	DD	01635bH
	DD	016361H
	DD	01636dH
	DD	016375H
	DD	016381H
	DD	01638bH
	DD	016399H
	DD	0163c7H
	DD	0163c9H
	DD	0163d9H
	DD	0163dbH
	DD	0163f1H
	DD	0163f7H
	DD	0163f9H
	DD	016403H
	DD	016405H
	DD	01640fH
	DD	016411H
	DD	016417H
	DD	01641bH
	DD	01642fH
	DD	016439H
	DD	01643fH
	DD	01645dH
	DD	016465H
	DD	01646bH
	DD	016471H
	DD	016475H
	DD	016493H
	DD	01649bH
	DD	0164a1H
	DD	0164a7H
	DD	0164adH
	DD	0164c3H
	DD	0164e7H
	DD	0164e9H
	DD	0164edH
	DD	0164f5H
	DD	0164fbH
	DD	016501H
	DD	016505H
	DD	016513H
	DD	01651fH
	DD	016529H
	DD	01653dH
	DD	016541H
	DD	016543H
	DD	016547H
	DD	016565H
	DD	01656bH
	DD	016579H
	DD	016589H
	DD	016595H
	DD	0165b3H
	DD	0165b5H
	DD	0165b9H
	DD	0165bfH
	DD	0165c7H
	DD	0165e5H
	DD	0165efH
	DD	0165f7H
	DD	016619H
	DD	01662bH
	DD	016637H
	DD	01663fH
	DD	016655H
	DD	016669H
	DD	01666dH
	DD	01667bH
	DD	016685H
	DD	016699H
	DD	01669fH
	DD	0166a3H
	DD	0166a5H
	DD	0166afH
	DD	0166bdH
	DD	0166c1H
	DD	0166dbH
	DD	0166e1H
	DD	016705H
	DD	016711H
	DD	016723H
	DD	016727H
	DD	01672fH
	DD	016735H
	DD	016739H
	DD	01673fH
	DD	016741H
	DD	01675dH
	DD	016763H
	DD	016769H
	DD	016781H
	DD	016789H
	DD	016793H
	DD	0167adH
	DD	0167b3H
	DD	0167cbH
	DD	0167cfH
	DD	0167d7H
	DD	0167efH
	DD	0167f9H
	DD	01680dH
	DD	016811H
	DD	016813H
	DD	01681dH
	DD	01682bH
	DD	01683bH
	DD	01683dH
	DD	016843H
	DD	016849H
	DD	01684dH
	DD	016853H
	DD	01685bH
	DD	01686dH
	DD	016889H
	DD	016897H
	DD	01689dH
	DD	0168adH
	DD	0168bbH
	DD	0168c1H
	DD	0168c5H
	DD	0168cbH
	DD	0168d1H
	DD	0168d9H
	DD	0168ddH
	DD	0168dfH
	DD	0168e3H
	DD	0168efH
	DD	0168f1H
	DD	0168fdH
	DD	016903H
	DD	01690fH
	DD	01692bH
	DD	01692dH
	DD	016933H
	DD	01693fH
	DD	016949H
	DD	016957H
	DD	01695bH
	DD	016987H
	DD	01698dH
	DD	016997H
	DD	016999H
	DD	0169a5H
	DD	0169b1H
	DD	0169cfH
	DD	0169d3H
	DD	0169dfH
	DD	0169e1H
	DD	0169e7H
	DD	0169f1H
	DD	0169fdH
	DD	0169ffH
	DD	016a09H
	DD	016a0bH
	DD	016a15H
	DD	016a1bH
	DD	016a23H
	DD	016a2dH
	DD	016a33H
	DD	016a41H
	DD	016a51H
	DD	016a59H
	DD	016a5fH
	DD	016a6bH
	DD	016a75H
	DD	016a77H
	DD	016a81H
	DD	016a89H
	DD	016a95H
	DD	016a9fH
	DD	016ab1H
	DD	016ab9H
	DD	016abdH
	DD	016abfH
	DD	016ac3H
	DD	016addH
	DD	016ae3H
	DD	016af9H
	DD	016affH
	DD	016b0dH
	DD	016b17H
	DD	016b1dH
	DD	016b1fH
	DD	016b3bH
	DD	016b41H
	DD	016b49H
	DD	016b77H
	DD	016b7dH
	DD	016b83H
	DD	016b95H
	DD	016b9bH
	DD	016ba1H
	DD	016ba9H
	DD	016bafH
	DD	016bb9H
	DD	016bcbH
	DD	016bcdH
	DD	016bd3H
	DD	016bdfH
	DD	016bf1H
	DD	016bfbH
	DD	016c03H
	DD	016c0fH
	DD	016c2dH
	DD	016c37H
	DD	016c39H
	DD	016c43H
	DD	016c45H
	DD	016c49H
	DD	016c4fH
	DD	016c61H
	DD	016c63H
	DD	016c67H
	DD	016c7bH
	DD	016c87H
	DD	016c8bH
	DD	016c91H
	DD	016c99H
	DD	016cbbH
	DD	016cc1H
	DD	016cc7H
	DD	016cdfH
	DD	016cebH
	DD	016cf3H
	DD	016d17H
	DD	016d27H
	DD	016d29H
	DD	016d2fH
	DD	016d33H
	DD	016d35H
	DD	016d39H
	DD	016d3fH
	DD	016d53H
	DD	016d59H
	DD	016d71H
	DD	016d75H
	DD	016d77H
	DD	016d7bH
	DD	016d8dH
	DD	016da1H
	DD	016da7H
	DD	016dbdH
	DD	016dc5H
	DD	016df3H
	DD	016e05H
	DD	016e07H
	DD	016e17H
	DD	016e2bH
	DD	016e41H
	DD	016e43H
	DD	016e5bH
	DD	016e71H
	DD	016e73H
	DD	016e83H
	DD	016e9bH
	DD	016eafH
	DD	016ebfH
	DD	016ec1H
	DD	016ec5H
	DD	016ecdH
	DD	016ed7H
	DD	016ed9H
	DD	016ee3H
	DD	016ef1H
	DD	016ef5H
	DD	016efdH
	DD	016f0fH
	DD	016f13H
	DD	016f1bH
	DD	016f1fH
	DD	016f2dH
	DD	016f37H
	DD	016f39H
	DD	016f51H
	DD	016f61H
	DD	016f69H
	DD	016f6fH
	DD	016f7fH
	DD	016f93H
	DD	016f9dH
	DD	016f9fH
	DD	016fa5H
	DD	016fa9H
	DD	016fc7H
	DD	016fc9H
	DD	016fd9H
	DD	016ff9H
	DD	016fffH
	DD	01700bH
	DD	017015H
	DD	01702dH
	DD	017035H
	DD	017041H
	DD	017053H
	DD	017063H
	DD	017065H
	DD	017071H
	DD	017077H
	DD	01707bH
	DD	017087H
	DD	01708dH
	DD	01708fH
	DD	0170abH
	DD	0170bdH
	DD	0170bfH
	DD	0170d5H
	DD	0170dbH
	DD	0170e1H
	DD	0170e7H
	DD	0170e9H
	DD	0170efH
	DD	0170ffH
	DD	01710dH
	DD	017113H
	DD	017131H
	DD	017141H
	DD	017143H
	DD	01714dH
	DD	01714fH
	DD	017153H
	DD	01715fH
	DD	017161H
	DD	01716dH
	DD	017177H
	DD	017185H
	DD	01718bH
	DD	017195H
	DD	01719dH
	DD	0171b9H
	DD	0171bbH
	DD	0171dfH
	DD	0171e5H
	DD	0171f5H
	DD	017203H
	DD	017207H
	DD	01721bH
	DD	017233H
	DD	017239H
	DD	01723dH
	DD	017245H
	DD	017249H
	DD	01725bH
	DD	017263H
	DD	017267H
	DD	017275H
	DD	017279H
	DD	01727fH
	DD	017281H
	DD	017299H
	DD	0172a9H
	DD	0172b7H
	DD	0172bbH
	DD	0172d5H
	DD	0172e5H
	DD	0172e7H
	DD	0172f1H
	DD	017311H
	DD	017317H
	DD	01731bH
	DD	017321H
	DD	01732dH
	DD	017333H
	DD	017357H
	DD	01735fH
	DD	01736bH
	DD	01736fH
	DD	017371H
	DD	017375H
	DD	01737dH
	DD	017383H
	DD	017387H
	DD	01739bH
	DD	0173a7H
	DD	0173b1H
	DD	0173c9H
	DD	0173d5H
	DD	0173d7H
	DD	0173e3H
	DD	0173edH
	DD	0173f3H
	DD	0173ffH
	DD	017401H
	DD	017407H
	DD	017419H
	DD	01741dH
	DD	017423H
	DD	017429H
	DD	01742fH
	DD	017437H
	DD	01744fH
	DD	017455H
	DD	01745fH
	DD	01746bH
	DD	017489H
	DD	017497H
	DD	0174a1H
	DD	0174a9H
	DD	0174b5H
	DD	0174bbH
	DD	0174c5H
	DD	0174d1H
	DD	0174d3H
	DD	0174e5H
	DD	0174ebH
	DD	0174efH
	DD	0174f7H
	DD	0174fbH
	DD	017513H
	DD	017527H
	DD	01752bH
	DD	017533H
	DD	01753dH
	DD	017549H
	DD	017551H
	DD	01755dH
	DD	01756dH
	DD	017573H
	DD	017581H
	DD	017585H
	DD	01758dH
	DD	017591H
	DD	0175a3H
	DD	0175d5H
	DD	0175dbH
	DD	0175e1H
	DD	0175e5H
	DD	0175ebH
	DD	0175f3H
	DD	0175f9H
	DD	017603H
	DD	01761dH
	DD	017627H
	DD	01762dH
	DD	01762fH
	DD	017639H
	DD	01763bH
	DD	017645H
	DD	01764bH
	DD	017671H
	DD	01767dH
	DD	017681H
	DD	017689H
	DD	017693H
	DD	0176a7H
	DD	0176adH
	DD	0176b3H
	DD	0176b9H
	DD	0176cbH
	DD	0176d5H
	DD	0176d7H
	DD	0176e3H
	DD	0176f3H
	DD	0176f5H
	DD	017701H
	DD	01770dH
	DD	017711H
	DD	01772bH
	DD	017735H
	DD	01773bH
	DD	01774fH
	DD	017761H
	DD	017789H
	DD	017795H
	DD	01779dH
	DD	0177a7H
	DD	0177b3H
	DD	0177b5H
	DD	0177c7H
	DD	0177d3H
	DD	0177ddH
	DD	0177dfH
	DD	0177e9H
	DD	017803H
	DD	017807H
	DD	01780dH
	DD	017819H
	DD	017821H
	DD	017825H
	DD	017843H
	DD	017849H
	DD	01784bH
	DD	017851H
	DD	017861H
	DD	017879H
	DD	017891H
	DD	0178a3H
	DD	0178afH
	DD	0178bbH
	DD	0178c3H
	DD	0178c9H
	DD	0178cdH
	DD	0178d5H
	DD	0178dfH
	DD	0178e7H
	DD	0178edH
	DD	0178f1H
	DD	017905H
	DD	01790fH
	DD	017929H
	DD	01792dH
	DD	017945H
	DD	01794bH
	DD	01794dH
	DD	017959H
	DD	017983H
	DD	017995H
	DD	01799bH
	DD	01799fH
	DD	0179b9H
	DD	0179bfH
	DD	0179dbH
	DD	0179e1H
	DD	0179e3H
	DD	0179edH
	DD	0179f5H
	DD	0179fbH
	DD	017a01H
	DD	017a0bH
	DD	017a13H
	DD	017a1dH
	DD	017a1fH
	DD	017a35H
	DD	017a37H
	DD	017a3bH
	DD	017a4fH
	DD	017a53H
	DD	017a59H
	DD	017a7dH
	DD	017a8bH
	DD	017a8fH
	DD	017aa3H
	DD	017ab9H
	DD	017abfH
	DD	017acdH
	DD	017ad3H
	DD	017addH
	DD	017ae5H
	DD	017ae9H
	DD	017aebH
	DD	017aefH
	DD	017afdH
	DD	017b0fH
	DD	017b31H
	DD	017b39H
	DD	017b4fH
	DD	017b5dH
	DD	017b67H
	DD	017b7fH
	DD	017b85H
	DD	017b87H
	DD	017b91H
	DD	017b93H
	DD	017b99H
	DD	017ba3H
	DD	017bbdH
	DD	017bcfH
	DD	017bd9H
	DD	017bebH
	DD	017c03H
	DD	017c15H
	DD	017c17H
	DD	017c2fH
	DD	017c57H
	DD	017c59H
	DD	017c5dH
	DD	017c63H
	DD	017c65H
	DD	017c6bH
	DD	017c75H
	DD	017c8fH
	DD	017c95H
	DD	017ca1H
	DD	017cadH
	DD	017cb3H
	DD	017cb7H
	DD	017cdbH
	DD	017cddH
	DD	017ce7H
	DD	017cf3H
	DD	017d0bH
	DD	017d0dH
	DD	017d11H
	DD	017d19H
	DD	017d23H
	DD	017d29H
	DD	017d2bH
	DD	017d2fH
	DD	017d47H
	DD	017d49H
	DD	017d4dH
	DD	017d71H
	DD	017d73H
	DD	017d89H
	DD	017d97H
	DD	017dafH
	DD	017dc1H
	DD	017debH
	DD	017df1H
	DD	017dfbH
	DD	017dfdH
	DD	017e15H
	DD	017e25H
	DD	017e31H
	DD	017e33H
	DD	017e37H
	DD	017e39H
	DD	017e43H
	DD	017e45H
	DD	017e4fH
	DD	017e57H
	DD	017e5bH
	DD	017e7fH
	DD	017e87H
	DD	017e8bH
	DD	017e97H
	DD	017ea9H
	DD	017eafH
	DD	017eb5H
	DD	017ec3H
	DD	017ed9H
	DD	017edbH
	DD	017ee1H
	DD	017ef9H
	DD	017effH
	DD	017f09H
	DD	017f21H
	DD	017f35H
	DD	017f4bH
	DD	017f51H
	DD	017f5fH
	DD	017f83H
	DD	017f9fH
	DD	017fa5H
	DD	017fadH
	DD	017fb3H
	DD	017fcbH
	DD	017fd1H
	DD	017fddH
	DD	017ff9H
	DD	017ffbH
	DD	01800dH
	DD	018011H
	DD	018013H
	DD	018017H
	DD	01802bH
	DD	018041H
	DD	018049H
	DD	018053H
	DD	018055H
	DD	018067H
	DD	01806bH
	DD	018073H
	DD	01807dH
	DD	01808bH
	DD	018095H
	DD	01809bH
	DD	0180a3H
	DD	0180a9H
	DD	0180afH
	DD	0180bbH
	DD	0180cbH
	DD	0180d7H
	DD	0180e5H
	DD	0180efH
	DD	018101H
	DD	018103H
	DD	01810dH
	DD	018125H
	DD	01813dH
	DD	018143H
	DD	01814fH
	DD	018151H
	DD	018167H
	DD	01816dH
	DD	018181H
	DD	018197H
	DD	018199H
	DD	01819dH
	DD	0181a9H
	DD	0181abH
	DD	0181b1H
	DD	0181d5H
	DD	0181dbH
	DD	0181f1H
	DD	0181f7H
	DD	0181f9H
	DD	018215H
	DD	018221H
	DD	018233H
	DD	018235H
	DD	018239H
	DD	018247H
	DD	01824dH
	DD	018251H
	DD	018253H
	DD	01825dH
	DD	01825fH
	DD	01826fH
	DD	018271H
	DD	01827bH
	DD	018283H
	DD	018289H
	DD	018293H
	DD	0182a5H
	DD	0182b1H
	DD	0182b7H
	DD	0182c5H
	DD	0182c9H
	DD	0182cfH
	DD	0182e1H
	DD	0182edH
	DD	018307H
	DD	01830bH
	DD	018311H
	DD	01831fH
	DD	018325H
	DD	01832fH
	DD	01833bH
	DD	01833dH
	DD	018341H
	DD	018343H
	DD	01834dH
	DD	018365H
	DD	01836dH
	DD	018377H
	DD	018397H
	DD	0183a1H
	DD	0183a9H
	DD	0183b3H
	DD	0183b9H
	DD	0183bbH
	DD	0183cdH
	DD	0183d9H
	DD	0183f5H
	DD	018413H
	DD	018415H
	DD	018427H
	DD	01842bH
	DD	018431H
	DD	01843fH
	DD	018445H
	DD	018449H
	DD	018451H
	DD	018467H
	DD	01846fH
	DD	01848dH
	DD	01849fH
	DD	0184a9H
	DD	0184c3H
	DD	0184c7H
	DD	0184c9H
	DD	0184dfH
	DD	0184e7H
	DD	0184ebH
	DD	0184f3H
	DD	0184f9H
	DD	0184fdH
	DD	018517H
	DD	01851bH
	DD	018527H
	DD	01853bH
	DD	01854dH
	DD	018553H
	DD	01855fH
	DD	018569H
	DD	01857bH
	DD	01857dH
	DD	018581H
	DD	018587H
	DD	018589H
	DD	018595H
	DD	0185b1H
	DD	0185b7H
	DD	0185cbH
	DD	0185d1H
	DD	0185e1H
	DD	0185e9H
	DD	0185efH
	DD	0185f5H
	DD	0185f9H
	DD	0185ffH
	DD	018613H
	DD	01861fH
	DD	018625H
	DD	018629H
	DD	01863dH
	DD	018643H
	DD	018653H
	DD	018659H
	DD	018679H
	DD	018683H
	DD	018695H
	DD	018697H
	DD	0186a3H
	DD	0186b3H
	DD	0186cbH
	DD	0186d1H
	DD	0186d9H
	DD	0186e5H
	DD	018707H
	DD	01870dH
	DD	018721H
	DD	018737H
	DD	018739H
	DD	018749H
	DD	018757H
	DD	01875dH
	DD	018761H
	DD	01876fH
	DD	018775H
	DD	01878dH
	DD	0187abH
	DD	0187afH
	DD	0187b7H
	DD	0187c3H
	DD	0187c9H
	DD	0187d9H
	DD	0187edH
	DD	0187f7H
	DD	018805H
	DD	018809H
	DD	01880bH
	DD	01881bH
	DD	018827H
	DD	018829H
	DD	018833H
	DD	01883bH
	DD	018841H
	DD	01885fH
	DD	01886bH
	DD	018875H
	DD	018883H
	DD	01888dH
	DD	018895H
	DD	01889fH
	DD	0188a5H
	DD	0188a7H
	DD	0188abH
	DD	0188b9H
	DD	0188c3H
	DD	0188c5H
	DD	0188cfH
	DD	0188efH
	DD	018901H
	DD	018905H
	DD	01890dH
	DD	018929H
	DD	01893dH
	DD	018941H
	DD	018955H
	DD	01895bH
	DD	01895fH
	DD	01897dH
	DD	018985H
	DD	01898bH
	DD	0189a1H
	DD	0189b3H
	DD	0189bfH
	DD	0189c1H
	DD	0189cbH
	DD	0189d7H
	DD	0189ddH
	DD	0189efH
	DD	0189f5H
	DD	018a2bH
	DD	018a31H
	DD	018a3fH
	DD	018a43H
	DD	018a49H
	DD	018a4fH
	DD	018a5dH
	DD	018a75H
	DD	018a7bH
	DD	018a87H
	DD	018a91H
	DD	018a9dH
	DD	018aa3H
	DD	018abbH
	DD	018ac7H
	DD	018ad9H
	DD	018ae1H
	DD	018af3H
	DD	018af7H
	DD	018af9H
	DD	018afdH
	DD	018affH
	DD	018b15H
	DD	018b1dH
	DD	018b27H
	DD	018b29H
	DD	018b35H
	DD	018b3fH
	DD	018b4dH
	DD	018b53H
	DD	018b57H
	DD	018b59H
	DD	018b65H
	DD	018b93H
	DD	018b99H
	DD	018b9fH
	DD	018ba1H
	DD	018ba7H
	DD	018badH
	DD	018bcbH
	DD	018bd5H
	DD	018bddH
	DD	018be3H
	DD	018befH
	DD	018bf3H
	DD	018c01H
	DD	018c07H
	DD	018c17H
	DD	018c23H
	DD	018c2bH
	DD	018c35H
	DD	018c49H
	DD	018c5bH
	DD	018c65H
	DD	018c6bH
	DD	018c71H
	DD	018c7dH
	DD	018c7fH
	DD	018c89H
	DD	018c97H
	DD	018c9bH
	DD	018c9dH
	DD	018ca1H
	DD	018cb9H
	DD	018cc5H
	DD	018ccdH
	DD	018cdfH
	DD	018ce3H
	DD	018cebH
	DD	018cfbH
	DD	018d09H
	DD	018d15H
	DD	018d1fH
	DD	018d31H
	DD	018d3dH
	DD	018d45H
	DD	018d57H
	DD	018d5bH
	DD	018d69H
	DD	018d6dH
	DD	018d73H
	DD	018d75H
	DD	018d8bH
	DD	018d9dH
	DD	018da5H
	DD	018dafH
	DD	018dc9H
	DD	018dcdH
	DD	018dcfH
	DD	018de7H
	DD	018dedH
	DD	018df1H
	DD	018df7H
	DD	018e03H
	DD	018e1dH
	DD	018e21H
	DD	018e29H
	DD	018e33H
	DD	018e45H
	DD	018e4bH
	DD	018e59H
	DD	018e63H
	DD	018e6fH
	DD	018e71H
	DD	018e7dH
	DD	018e83H
	DD	018e87H
	DD	018e8fH
	DD	018e9bH
	DD	018eabH
	DD	018eadH
	DD	018eb7H
	DD	018ebdH
	DD	018ebfH
	DD	018ed5H
	DD	018ed7H
	DD	018edbH
	DD	018ee9H
	DD	018efbH
	DD	018f05H
	DD	018f11H
	DD	018f25H
	DD	018f2fH
	DD	018f35H
	DD	018f37H
	DD	018f3bH
	DD	018f49H
	DD	018f55H
	DD	018f59H
	DD	018f61H
	DD	018f6bH
	DD	018f6dH
	DD	018f73H
	DD	018f95H
	DD	018f9bH
	DD	018f9dH
	DD	018fadH
	DD	018fb9H
	DD	018fc1H
	DD	018fd7H
	DD	018fdfH
	DD	018ffdH
	DD	019007H
	DD	019009H
	DD	019021H
	DD	019025H
	DD	019033H
	DD	01903dH
	DD	019051H
	DD	019061H
	DD	019063H
	DD	019067H
	DD	01907bH
	DD	019085H
	DD	01908bH
	DD	019093H
	DD	019097H
	DD	01909fH
	DD	0190a3H
	DD	0190bbH
	DD	0190c1H
	DD	0190cfH
	DD	0190d3H
	DD	0190f3H
	DD	0190f7H
	DD	0190fdH
	DD	01910bH
	DD	019111H
	DD	019115H
	DD	019117H
	DD	01912dH
	DD	019169H
	DD	01916bH
	DD	019171H
	DD	019189H
	DD	01918dH
	DD	01919bH
	DD	0191adH
	DD	0191b9H
	DD	0191cbH
	DD	0191d7H
	DD	0191ddH
	DD	0191e1H
	DD	0191ffH
	DD	019201H
	DD	019211H
	DD	019213H
	DD	019229H
	DD	019237H
	DD	019247H
	DD	019259H
	DD	01925fH
	DD	019283H
	DD	019289H
	DD	01929bH
	DD	01929dH
	DD	0192a7H
	DD	0192afH
	DD	0192b3H
	DD	0192b5H
	DD	0192bbH
	DD	0192d3H
	DD	0192e5H
	DD	019303H
	DD	019309H
	DD	01930fH
	DD	019331H
	DD	01933fH
	DD	019345H
	DD	019379H
	DD	01937bH
	DD	01938bH
	DD	019397H
	DD	0193a5H
	DD	0193b5H
	DD	0193bdH
	DD	0193dbH
	DD	0193dfH
	DD	0193e1H
	DD	0193e7H
	DD	0193f1H
	DD	0193fdH
	DD	0193ffH
	DD	01941bH
	DD	019421H
	DD	01942fH
	DD	01943bH
	DD	019457H
	DD	019469H
	DD	01947dH
	DD	019481H
	DD	019489H
	DD	01948fH
	DD	019495H
	DD	019499H
	DD	01949fH
	DD	0194a7H
	DD	0194bdH
	DD	0194c3H
	DD	0194dbH
	DD	0194e3H
	DD	0194e9H
	DD	0194f5H
	DD	019501H
	DD	019507H
	DD	019513H
	DD	019517H
	DD	01952bH
	DD	019559H
	DD	01956bH
	DD	019579H
	DD	019583H
	DD	019585H
	DD	01959dH
	DD	0195a1H
	DD	0195a3H
	DD	0195bbH
	DD	0195d1H
	DD	0195dfH
	DD	0195e9H
	DD	0195efH
	DD	01960fH
	DD	01961bH
	DD	01961fH
	DD	019621H
	DD	01962bH
	DD	01962dH
	DD	019637H
	DD	019639H
	DD	01963dH
	DD	019643H
	DD	019649H
	DD	019655H
	DD	019661H
	DD	01966fH
	DD	019675H
	DD	01967bH
	DD	019697H
	DD	019699H
	DD	0196abH
	DD	0196b1H
	DD	0196b7H
	DD	0196bbH
	DD	0196d3H
	DD	0196d5H
	DD	0196e1H
	DD	0196edH
	DD	0196f3H
	DD	0196f7H
	DD	01970fH
	DD	019727H
	DD	019729H
	DD	01972fH
	DD	019733H
	DD	019759H
	DD	01975fH
	DD	019769H
	DD	019775H
	DD	019777H
	DD	019783H
	DD	019787H
	DD	01979bH
	DD	0197b1H
	DD	0197bdH
	DD	0197bfH
	DD	0197c9H
	DD	0197cfH
	DD	0197e1H
	DD	01980bH
	DD	019817H
	DD	019819H
	DD	01981fH
	DD	01982bH
	DD	019841H
	DD	01984fH
	DD	019859H
	DD	01985fH
	DD	019865H
	DD	019867H
	DD	019871H
	DD	019883H
	DD	019891H
	DD	019895H
	DD	0198afH
	DD	0198bfH
	DD	0198cbH
	DD	0198d3H
	DD	0198e5H
	DD	0198e9H
	DD	0198ebH
	DD	0198f5H
	DD	0198fdH
	DD	019903H
	DD	019907H
	DD	01990dH
	DD	019913H
	DD	019919H
	DD	019927H
	DD	019937H
	DD	019939H
	DD	019945H
	DD	01994bH
	DD	019955H
	DD	019961H
	DD	019963H
	DD	01997bH
	DD	01997fH
	DD	019991H
	DD	019993H
	DD	0199a5H
	DD	0199afH
	DD	0199bbH
	DD	0199cfH
	DD	0199d5H
	DD	0199e5H
	DD	0199f3H
	DD	0199f9H
	DD	0199ffH
	DD	019a0bH
	DD	019a1bH
	DD	019a27H
	DD	019a3bH
	DD	019a3fH
	DD	019a47H
	DD	019a4dH
	DD	019a6fH
	DD	019a89H
	DD	019a93H
	DD	019ab1H
	DD	019ab7H
	DD	019acfH
	DD	019ad5H
	DD	019aefH
	DD	019afbH
	DD	019b0bH
	DD	019b0dH
	DD	019b17H
	DD	019b23H
	DD	019b25H
	DD	019b2fH
	DD	019b35H
	DD	019b3dH
	DD	019b67H
	DD	019b6bH
	DD	019b73H
	DD	019b79H
	DD	019b7dH
	DD	019b8fH
	DD	019b91H
	DD	019b97H
	DD	019b9dH
	DD	019ba3H
	DD	019badH
	DD	019bb5H
	DD	019bb9H
	DD	019bbfH
	DD	019bddH
	DD	019be9H
	DD	019bfbH
	DD	019c13H
	DD	019c1bH
	DD	019c1fH
	DD	019c25H
	DD	019c2dH
	DD	019c37H
	DD	019c39H
	DD	019c3dH
	DD	019c45H
	DD	019c55H
	DD	019c5bH
	DD	019c81H
	DD	019c87H
	DD	019c8dH
	DD	019c93H
	DD	019cb1H
	DD	019cb5H
	DD	019cc3H
	DD	019cc9H
	DD	019cd3H
	DD	019cdbH
	DD	019ce5H
	DD	019cffH
	DD	019d05H
	DD	019d17H
	DD	019d21H
	DD	019d27H
	DD	019d29H
	DD	019d59H
	DD	019d65H
	DD	019d87H
	DD	019d8fH
	DD	019d9bH
	DD	019dabH
	DD	019db3H
	DD	019db9H
	DD	019dc9H
	DD	019dd7H
	DD	019de1H
	DD	019defH
	DD	019df3H
	DD	019df9H
	DD	019dffH
	DD	019e0dH
	DD	019e1dH
	DD	019e23H
	DD	019e2fH
	DD	019e31H
	DD	019e67H
	DD	019e77H
	DD	019e7dH
	DD	019e89H
	DD	019e8bH
	DD	019e91H
	DD	019eb3H
	DD	019ec5H
	DD	019ecbH
	DD	019ecdH
	DD	019edfH
	DD	019ee5H
	DD	019ee9H
	DD	019eebH
	DD	019f03H
	DD	019f15H
	DD	019f21H
	DD	019f25H
	DD	019f27H
	DD	019f33H
	DD	019f39H
	DD	019f3fH
	DD	019f43H
	DD	019f4fH
	DD	019f51H
	DD	019f5bH
	DD	019f6dH
	DD	019f75H
	DD	019f7bH
	DD	019f7fH
	DD	019f85H
	DD	019f97H
	DD	019f9dH
	DD	019fabH
	DD	019fb1H
	DD	019fbbH
	DD	019fc1H
	DD	019fc9H
	DD	019fd3H
	DD	019fd5H
	DD	019ff7H
	DD	01a005H
	DD	01a023H
	DD	01a029H
	DD	01a02dH
	DD	01a02fH
	DD	01a05fH
	DD	01a07bH
	DD	01a07dH
	DD	01a083H
	DD	01a08dH
	DD	01a099H
	DD	01a0a1H
	DD	01a0a5H
	DD	01a0a7H
	DD	01a0adH
	DD	01a0b9H
	DD	01a0c5H
	DD	01a0cbH
	DD	01a0cfH
	DD	01a0e1H
	DD	01a0e7H
	DD	01a0f3H
	DD	01a0fbH
	DD	01a0ffH
	DD	01a101H
	DD	01a107H
	DD	01a11dH
	DD	01a11fH
	DD	01a123H
	DD	01a131H
	DD	01a147H
	DD	01a165H
	DD	01a16bH
	DD	01a16dH
	DD	01a173H
	DD	01a177H
	DD	01a17dH
	DD	01a197H
	DD	01a19bH
	DD	01a1a9H
	DD	01a1b9H
	DD	01a1c5H
	DD	01a1cdH
	DD	01a1d1H
	DD	01a1d3H
	DD	01a1e3H
	DD	01a1f1H
	DD	01a20dH
	DD	01a219H
	DD	01a22dH
	DD	01a231H
	DD	01a23dH
	DD	01a23fH
	DD	01a245H
	DD	01a251H
	DD	01a25bH
	DD	01a25dH
	DD	01a26fH
	DD	01a273H
	DD	01a281H
	DD	01a2a3H
	DD	01a2afH
	DD	01a2bdH
	DD	01a2c1H
	DD	01a2c9H
	DD	01a2dbH
	DD	01a2ebH
	DD	01a2f3H
	DD	01a305H
	DD	01a309H
	DD	01a30fH
	DD	01a32dH
	DD	01a33bH
	DD	01a34bH
	DD	01a353H
	DD	01a357H
	DD	01a35dH
	DD	01a371H
	DD	01a3b1H
	DD	01a3b9H
	DD	01a3bdH
	DD	01a3cbH
	DD	01a3d1H
	DD	01a3f3H
	DD	01a3f5H
	DD	01a42bH
	DD	01a43dH
	DD	01a44fH
	DD	01a453H
	DD	01a459H
	DD	01a465H
	DD	01a479H
	DD	01a47fH
	DD	01a497H
	DD	01a4a7H
	DD	01a4adH
	DD	01a4b3H
	DD	01a4c1H
	DD	01a4c5H
	DD	01a4c7H
	DD	01a4ddH
	DD	01a4e3H
	DD	01a4f1H
	DD	01a4fdH
	DD	01a501H
	DD	01a50fH
	DD	01a533H
	DD	01a53dH
	DD	01a53fH
	DD	01a543H
	DD	01a551H
	DD	01a55bH
	DD	01a561H
	DD	01a569H
	DD	01a579H
	DD	01a57fH
	DD	01a593H
	DD	01a597H
	DD	01a5a5H
	DD	01a5afH
	DD	01a5c3H
	DD	01a5cdH
	DD	01a5dfH
	DD	01a5e7H
	DD	01a5ebH
	DD	01a5edH
	DD	01a5f7H
	DD	01a605H
	DD	01a609H
	DD	01a61dH
	DD	01a62fH
	DD	01a639H
	DD	01a64bH
	DD	01a64dH
	DD	01a65fH
	DD	01a663H
	DD	01a66bH
	DD	01a681H
	DD	01a693H
	DD	01a69bH
	DD	01a69fH
	DD	01a6a1H
	DD	01a6abH
	DD	01a6b3H
	DD	01a6b9H
	DD	01a6bfH
	DD	01a6c9H
	DD	01a6d7H
	DD	01a6e7H
	DD	01a6efH
	DD	01a6ffH
	DD	01a701H
	DD	01a705H
	DD	01a70dH
	DD	01a737H
	DD	01a73bH
	DD	01a747H
	DD	01a759H
	DD	01a75bH
	DD	01a771H
	DD	01a77dH
	DD	01a785H
	DD	01a797H
	DD	01a7a9H
	DD	01a7adH
	DD	01a7afH
	DD	01a7d1H
	DD	01a7d3H
	DD	01a7d7H
	DD	01a7e5H
	DD	01a7f1H
	DD	01a7f5H
	DD	01a7fdH
	DD	01a809H
	DD	01a80dH
	DD	01a81bH
	DD	01a82bH
	DD	01a857H
	DD	01a85dH
	DD	01a863H
	DD	01a869H
	DD	01a885H
	DD	01a8a3H
	DD	01a8a5H
	DD	01a8b7H
	DD	01a8c3H
	DD	01a8cfH
	DD	01a8d9H
	DD	01a8e1H
	DD	01a8f7H
	DD	01a8f9H
	DD	01a8ffH
	DD	01a903H
	DD	01a915H
	DD	01a91bH
	DD	01a93fH
	DD	01a945H
	DD	01a94dH
	DD	01a951H
	DD	01a953H
	DD	01a957H
	DD	01a95dH
	DD	01a96bH
	DD	01a975H
	DD	01a97bH
	DD	01a981H
	DD	01a98fH
	DD	01a993H
	DD	01a995H
	DD	01a99fH
	DD	01a9a1H
	DD	01a9a7H
	DD	01a9abH
	DD	01a9bfH
	DD	01a9c9H
	DD	01a9d5H
	DD	01a9edH
	DD	01a9f9H
	DD	01aa07H
	DD	01aa11H
	DD	01aa29H
	DD	01aa2fH
	DD	01aa37H
	DD	01aa41H
	DD	01aa4dH
	DD	01aa53H
	DD	01aa55H
	DD	01aa5bH
	DD	01aa67H
	DD	01aa71H
	DD	01aa73H
	DD	01aa8fH
	DD	01aa91H
	DD	01aa9bH
	DD	01aaadH
	DD	01aac5H
	DD	01aad3H
	DD	01aadfH
	DD	01aaf1H
	DD	01aaf7H
	DD	01ab01H
	DD	01ab09H
	DD	01ab13H
	DD	01ab2dH
	DD	01ab33H
	DD	01ab37H
	DD	01ab43H
	DD	01ab4bH
	DD	01ab4fH
	DD	01ab55H
	DD	01ab6fH
	DD	01ab79H
	DD	01ab81H
	DD	01ab8bH
	DD	01ab8dH
	DD	01ab9dH
	DD	01ab9fH
	DD	01aba9H
	DD	01abc3H
	DD	01abcdH
	DD	01abcfH
	DD	01abe1H
	DD	01abe5H
	DD	01abebH
	DD	01abffH
	DD	01ac0bH
	DD	01ac0fH
	DD	01ac15H
	DD	01ac1dH
	DD	01ac29H
	DD	01ac33H
	DD	01ac35H
	DD	01ac47H
	DD	01ac5dH
	DD	01ac5fH
	DD	01ac69H
	DD	01ac95H
	DD	01ac99H
	DD	01acadH
	DD	01acb7H
	DD	01acddH
	DD	01ace1H
	DD	01acefH
	DD	01acfbH
	DD	01ad05H
	DD	01ad07H
	DD	01ad11H
	DD	01ad13H
	DD	01ad17H
	DD	01ad19H
	DD	01ad23H
	DD	01ad31H
	DD	01ad3bH
	DD	01ad43H
	DD	01ad49H
	DD	01ad4fH
	DD	01ad59H
	DD	01ad5fH
	DD	01ad71H
	DD	01ad77H
	DD	01ad89H
	DD	01ada3H
	DD	01adc1H
	DD	01adc7H
	DD	01add7H
	DD	01ade3H
	DD	01adebH
	DD	01adefH
	DD	01adf5H
	DD	01ae03H
	DD	01ae27H
	DD	01ae31H
	DD	01ae51H
	DD	01ae67H
	DD	01ae8dH
	DD	01ae99H
	DD	01ae9dH
	DD	01aeabH
	DD	01aeb5H
	DD	01aebdH
	DD	01aec1H
	DD	01aec9H
	DD	01aed3H
	DD	01aee7H
	DD	01aef1H
	DD	01aef3H
	DD	01af03H
	DD	01af17H
	DD	01af53H
	DD	01af5fH
	DD	01af65H
	DD	01af69H
	DD	01af7bH
	DD	01af8dH
	DD	01af8fH
	DD	01af9bH
	DD	01afa5H
	DD	01afa7H
	DD	01afbfH
	DD	01afc5H
	DD	01afcfH
	DD	01afddH
	DD	01afe3H
	DD	01afe7H
	DD	01afe9H
	DD	01afedH
	DD	01aff5H
	DD	01affbH
	DD	01b005H
	DD	01b00bH
	DD	01b011H
	DD	01b01fH
	DD	01b025H
	DD	01b031H
	DD	01b037H
	DD	01b03bH
	DD	01b059H
	DD	01b077H
	DD	01b089H
	DD	01b08bH
	DD	01b09dH
	DD	01b0a1H
	DD	01b0b3H
	DD	01b0b9H
	DD	01b0d7H
	DD	01b0ddH
	DD	01b0e3H
	DD	01b0e5H
	DD	01b101H
	DD	01b10fH
	DD	01b11fH
	DD	01b121H
	DD	01b133H
	DD	01b13dH
	DD	01b145H
	DD	01b149H
	DD	01b14bH
	DD	01b14fH
	DD	01b155H
	DD	01b15bH
	DD	01b163H
	DD	01b167H
	DD	01b179H
	DD	01b181H
	DD	01b18dH
	DD	01b1b5H
	DD	01b1b7H
	DD	01b1c3H
	DD	01b1c9H
	DD	01b1cdH
	DD	01b1f3H
	DD	01b1ffH
	DD	01b205H
	DD	01b20fH
	DD	01b211H
	DD	01b217H
	DD	01b227H
	DD	01b22dH
	DD	01b253H
	DD	01b257H
	DD	01b26bH
	DD	01b271H
	DD	01b27bH
	DD	01b27dH
	DD	01b295H
	DD	01b29fH
	DD	01b2a5H
	DD	01b2a7H
	DD	01b2c5H
	DD	01b2d5H
	DD	01b2dbH
	DD	01b2e9H
	DD	01b2edH
	DD	01b2f3H
	DD	01b30dH
	DD	01b331H
	DD	01b343H
	DD	01b347H
	DD	01b34fH
	DD	01b353H
	DD	01b36bH
	DD	01b37fH
	DD	01b383H
	DD	01b385H
	DD	01b389H
	DD	01b395H
	DD	01b3a1H
	DD	01b3adH
	DD	01b3b3H
	DD	01b3d9H
	DD	01b3ddH
	DD	01b3e9H
	DD	01b3efH
	DD	01b3fbH
	DD	01b407H
	DD	01b415H
	DD	01b419H
	DD	01b425H
	DD	01b42bH
	DD	01b433H
	DD	01b451H
	DD	01b469H
	DD	01b473H
	DD	01b475H
	DD	01b487H
	DD	01b497H
	DD	01b49dH
	DD	01b4a3H
	DD	01b4a5H
	DD	01b4afH
	DD	01b4b7H
	DD	01b4cdH
	DD	01b4d3H
	DD	01b4d5H
	DD	01b4d9H
	DD	01b4e7H
	DD	01b4f1H
	DD	01b4f7H
	DD	01b4fdH
	DD	01b4ffH
	DD	01b515H
	DD	01b529H
	DD	01b52fH
	DD	01b54dH
	DD	01b551H
	DD	01b557H
	DD	01b565H
	DD	01b569H
	DD	01b57dH
	DD	01b593H
	DD	01b59fH
	DD	01b5bdH
	DD	01b5c3H
	DD	01b5c5H
	DD	01b5d7H
	DD	01b5e1H
	DD	01b5e7H
	DD	01b5efH
	DD	01b5f9H
	DD	01b601H
	DD	01b60bH
	DD	01b619H
	DD	01b623H
	DD	01b635H
	DD	01b647H
	DD	01b64fH
	DD	01b655H
	DD	01b65fH
	DD	01b66dH
	DD	01b671H
	DD	01b677H
	DD	01b679H
	DD	01b67dH
	DD	01b685H
	DD	01b697H
	DD	01b6a1H
	DD	01b6a3H
	DD	01b6a9H
	DD	01b6afH
	DD	01b6c7H
	DD	01b6cbH
	DD	01b6d1H
	DD	01b6d3H
	DD	01b6ddH
	DD	01b6e9H
	DD	01b6ebH
	DD	01b70dH
	DD	01b713H
	DD	01b72dH
	DD	01b74bH
	DD	01b761H
	DD	01b775H
	DD	01b77bH
	DD	01b79fH
	DD	01b7afH
	DD	01b7bbH
	DD	01b7bdH
	DD	01b7c1H
	DD	01b7c7H
	DD	01b7cdH
	DD	01b7d9H
	DD	01b7dbH
	DD	01b7edH
	DD	01b803H
	DD	01b811H
	DD	01b817H
	DD	01b82fH
	DD	01b833H
	DD	01b865H
	DD	01b875H
	DD	01b877H
	DD	01b883H
	DD	01b893H
	DD	01b89fH
	DD	01b8a7H
	DD	01b8bfH
	DD	01b8cbH
	DD	01b8dbH
	DD	01b8edH
	DD	01b905H
	DD	01b90dH
	DD	01b911H
	DD	01b917H
	DD	01b919H
	DD	01b91fH
	DD	01b92bH
	DD	01b937H
	DD	01b947H
	DD	01b953H
	DD	01b965H
	DD	01b973H
	DD	01b979H
	DD	01b97dH
	DD	01b97fH
	DD	01b983H
	DD	01b98fH
	DD	01b991H
	DD	01b99bH
	DD	01b9a7H
	DD	01b9b9H
	DD	01b9bbH
	DD	01b9c1H
	DD	01b9c5H
	DD	01b9d7H
	DD	01b9ddH
	DD	01b9e3H
	DD	01b9ebH
	DD	01b9f7H
	DD	01b9fbH
	DD	01b9fdH
	DD	01ba01H
	DD	01ba07H
	DD	01ba09H
	DD	01ba0fH
	DD	01ba13H
	DD	01ba15H
	DD	01ba19H
	DD	01ba25H
	DD	01ba39H
	DD	01ba3dH
	DD	01ba4bH
	DD	01ba51H
	DD	01ba7fH
	DD	01ba87H
	DD	01baafH
	DD	01bab1H
	DD	01babdH
	DD	01bacdH
	DD	01bacfH
	DD	01bad3H
	DD	01badbH
	DD	01bae5H
	DD	01bae7H
	DD	01bb09H
	DD	01bb1dH
	DD	01bb2dH
	DD	01bb3bH
	DD	01bb51H
	DD	01bb59H
	DD	01bb5dH
	DD	01bb69H
	DD	01bb81H
	DD	01bb83H
	DD	01bb95H
	DD	01bb9fH
	DD	01bbb7H
	DD	01bbd5H
	DD	01bbd7H
	DD	01bbefH
	DD	01bbf9H
	DD	01bc13H
	DD	01bc35H
	DD	01bc37H
	DD	01bc3bH
	DD	01bc43H
	DD	01bc55H
	DD	01bc5fH
	DD	01bc61H
	DD	01bc71H
	DD	01bc73H
	DD	01bc77H
	DD	01bc85H
	DD	01bc91H
	DD	01bc9bH
	DD	01bcadH
	DD	01bcb3H
	DD	01bce3H
	DD	01bcebH
	DD	01bcefH
	DD	01bcf5H
	DD	01bd01H
	DD	01bd0dH
	DD	01bd1bH
	DD	01bd25H
	DD	01bd2bH
	DD	01bd31H
	DD	01bd3fH
	DD	01bd45H
	DD	01bd51H
	DD	01bd5dH
	DD	01bd6fH
	DD	01bd79H
	DD	01bd7bH
	DD	01bd93H
	DD	01bd99H
	DD	01bd9dH
	DD	01bda3H
	DD	01bda9H
	DD	01bdc1H
	DD	01bddfH
	DD	01bdedH
	DD	01bdf1H
	DD	01bdf7H
	DD	01be11H
	DD	01be15H
	DD	01be17H
	DD	01be1bH
	DD	01be29H
	DD	01be2dH
	DD	01be35H
	DD	01be53H
	DD	01be5dH
	DD	01be65H
	DD	01be69H
	DD	01be7bH
	DD	01be87H
	DD	01be8fH
	DD	01be99H
	DD	01bea7H
	DD	01bec3H
	DD	01bec9H
	DD	01bee7H
	DD	01bef3H
	DD	01bf13H
	DD	01bf23H
	DD	01bf29H
	DD	01bf2fH
	DD	01bf37H
	DD	01bf3dH
	DD	01bf73H
	DD	01bf79H
	DD	01bf8bH
	DD	01bf91H
	DD	01bfa1H
	DD	01bfa7H
	DD	01bfa9H
	DD	01bfb5H
	DD	01bfb9H
	DD	01bfd1H
	DD	01bfd3H
	DD	01bfd9H
	DD	01bfe3H
	DD	01bfe5H
	DD	01bfefH
	DD	01bff7H
	DD	01c001H
	DD	01c003H
	DD	01c019H
	DD	01c037H
	DD	01c03dH
	DD	01c045H
	DD	01c049H
	DD	01c051H
	DD	01c055H
	DD	01c05dH
	DD	01c06dH
	DD	01c06fH
	DD	01c079H
	DD	01c08bH
	DD	01c091H
	DD	01c09fH
	DD	01c0abH
	DD	01c0c3H
	DD	01c0c9H
	DD	01c0d5H
	DD	01c0e1H
	DD	01c0fdH
	DD	01c117H
	DD	01c11dH
	DD	01c135H
	DD	01c139H
	DD	01c145H
	DD	01c14bH
	DD	01c14dH
	DD	01c171H
	DD	01c175H
	DD	01c17bH
	DD	01c187H
	DD	01c19bH
	DD	01c1adH
	DD	01c1b3H
	DD	01c1b7H
	DD	01c1bdH
	DD	01c1cfH
	DD	01c1d1H
	DD	01c1dbH
	DD	01c1efH
	DD	01c201H
	DD	01c20bH
	DD	01c217H
	DD	01c225H
	DD	01c231H
	DD	01c23bH
	DD	01c24fH
	DD	01c265H
	DD	01c267H
	DD	01c26dH
	DD	01c277H
	DD	01c279H
	DD	01c27fH
	DD	01c283H
	DD	01c289H
	DD	01c28fH
	DD	01c2a1H
	DD	01c2a3H
	DD	01c2c7H
	DD	01c2ddH
	DD	01c2e5H
	DD	01c303H
	DD	01c30dH
	DD	01c30fH
	DD	01c32bH
	DD	01c339H
	DD	01c343H
	DD	01c35bH
	DD	01c361H
	DD	01c369H
	DD	01c373H
	DD	01c385H
	DD	01c38dH
	DD	01c391H
	DD	01c393H
	DD	01c39dH
	DD	01c3afH
	DD	01c3b5H
	DD	01c3c9H
	DD	01c3cfH
	DD	01c3dfH
	DD	01c3edH
	DD	01c40fH
	DD	01c415H
	DD	01c41dH
	DD	01c427H
	DD	01c42dH
	DD	01c433H
	DD	01c439H
	DD	01c43bH
	DD	01c441H
	DD	01c445H
	DD	01c447H
	DD	01c451H
	DD	01c45fH
	DD	01c463H
	DD	01c46fH
	DD	01c477H
	DD	01c47dH
	DD	01c489H
	DD	01c48dH
	DD	01c493H
	DD	01c495H
	DD	01c4a1H
	DD	01c4a5H
	DD	01c4a7H
	DD	01c4abH
	DD	01c4b3H
	DD	01c4bdH
	DD	01c4bfH
	DD	01c4dbH
	DD	01c4ddH
	DD	01c4fbH
	DD	01c50bH
	DD	01c50dH
	DD	01c513H
	DD	01c529H
	DD	01c53bH
	DD	01c549H
	DD	01c54fH
	DD	01c579H
	DD	01c583H
	DD	01c585H
	DD	01c58bH
	DD	01c591H
	DD	01c5a3H
	DD	01c5adH
	DD	01c5bfH
	DD	01c5c7H
	DD	01c5d1H
	DD	01c5ddH
	DD	01c5dfH
	DD	01c5e9H
	DD	01c60fH
	DD	01c613H
	DD	01c621H
	DD	01c62dH
	DD	01c631H
	DD	01c637H
	DD	01c645H
	DD	01c669H
	DD	01c675H
	DD	01c67fH
	DD	01c687H
	DD	01c693H
	DD	01c69dH
	DD	01c6a3H
	DD	01c6bbH
	DD	01c6c7H
	DD	01c6d5H
	DD	01c6dbH
	DD	01c6dfH
	DD	01c6edH
	DD	01c6f7H
	DD	01c703H
	DD	01c70bH
	DD	01c71bH
	DD	01c733H
	DD	01c735H
	DD	01c739H
	DD	01c73bH
	DD	01c745H
	DD	01c763H
	DD	01c771H
	DD	01c79fH
	DD	01c7b1H
	DD	01c7b7H
	DD	01c7c9H
	DD	01c7cfH
	DD	01c7d1H
	DD	01c7e3H
	DD	01c7efH
	DD	01c7fbH
	DD	01c805H
	DD	01c80bH
	DD	01c835H
	DD	01c837H
	DD	01c83dH
	DD	01c843H
	DD	01c853H
	DD	01c85bH
	DD	01c861H
	DD	01c871H
	DD	01c883H
	DD	01c891H
	DD	01c8a7H
	DD	01c8afH
	DD	01c8bbH
	DD	01c8bfH
	DD	01c8c1H
	DD	01c8c5H
	DD	01c8d9H
	DD	01c8dfH
	DD	01c8e9H
	DD	01c8f5H
	DD	01c8fdH
	DD	01c901H
	DD	01c919H
	DD	01c91fH
	DD	01c92dH
	DD	01c931H
	DD	01c933H
	DD	01c93dH
	DD	01c94fH
	DD	01c96dH
	DD	01c975H
	DD	01c97fH
	DD	01c987H
	DD	01c98dH
	DD	01c9abH
	DD	01c9afH
	DD	01c9c7H
	DD	01c9c9H
	DD	01c9d3H
	DD	01c9d9H
	DD	01c9e7H
	DD	01c9f7H
	DD	01c9f9H
	DD	01ca03H
	DD	01ca0bH
	DD	01ca15H
	DD	01ca21H
	DD	01ca3bH
	DD	01ca47H
	DD	01ca51H
	DD	01ca53H
	DD	01ca69H
	DD	01ca71H
	DD	01ca7bH
	DD	01ca7dH
	DD	01ca8dH
	DD	01caa5H
	DD	01cab3H
	DD	01cab7H
	DD	01cabdH
	DD	01cac3H
	DD	01caf9H
	DD	01cafbH
	DD	01caffH
	DD	01cb07H
	DD	01cb0dH
	DD	01cb19H
	DD	01cb23H
	DD	01cb25H
	DD	01cb3bH
	DD	01cb43H
	DD	01cb49H
	DD	01cb71H
	DD	01cb73H
	DD	01cb8bH
	DD	01cb9bH
	DD	01cba7H
	DD	01cba9H
	DD	01cbafH
	DD	01cbc5H
	DD	01cbc7H
	DD	01cbcdH
	DD	01cbd9H
	DD	01cbdfH
	DD	01cbe3H
	DD	01cbf7H
	DD	01cbfdH
	DD	01cc03H
	DD	01cc0dH
	DD	01cc13H
	DD	01cc1bH
	DD	01cc25H
	DD	01cc31H
	DD	01cc33H
	DD	01cc49H
	DD	01cc4fH
	DD	01cc51H
	DD	01cc5bH
	DD	01cc75H
	DD	01cc79H
	DD	01cc7bH
	DD	01cc81H
	DD	01cc8bH
	DD	01cc97H
	DD	01cc9dH
	DD	01ccb1H
	DD	01ccc7H
	DD	01ccd5H
	DD	01ccd9H
	DD	01ccdbH
	DD	01cce5H
	DD	01cce7H
	DD	01cd11H
	DD	01cd15H
	DD	01cd1bH
	DD	01cd23H
	DD	01cd29H
	DD	01cd2dH
	DD	01cd41H
	DD	01cd4dH
	DD	01cd6fH
	DD	01cd83H
	DD	01cd93H
	DD	01cd99H
	DD	01cd9bH
	DD	01cdadH
	DD	01cdc3H
	DD	01cdc5H
	DD	01cdcbH
	DD	01cde7H
	DD	01cde9H
	DD	01cdedH
	DD	01cdf3H
	DD	01ce01H
	DD	01ce05H
	DD	01ce19H
	DD	01ce47H
	DD	01ce59H
	DD	01ce61H
	DD	01ce65H
	DD	01ce73H
	DD	01ce7fH
	DD	01ce89H
	DD	01ce8bH
	DD	01ce97H
	DD	01ce9dH
	DD	01ceb5H
	DD	01ceb9H
	DD	01cebfH
	DD	01cec7H
	DD	01ceddH
	DD	01cf01H
	DD	01cf0fH
	DD	01cf15H
	DD	01cf2bH
	DD	01cf37H
	DD	01cf3dH
	DD	01cf4bH
	DD	01cf5bH
	DD	01cf5dH
	DD	01cf69H
	DD	01cf85H
	DD	01cf8dH
	DD	01cf91H
	DD	01cf99H
	DD	01cf9fH
	DD	01cfa3H
	DD	01cfb5H
	DD	01cfbdH
	DD	01cfd3H
	DD	01cfdbH
	DD	01cfdfH
	DD	01cfe5H
	DD	01d003H
	DD	01d00fH
	DD	01d011H
	DD	01d023H
	DD	01d02fH
	DD	01d03bH
	DD	01d04dH
	DD	01d059H
	DD	01d06bH
	DD	01d071H
	DD	01d075H
	DD	01d077H
	DD	01d07bH
	DD	01d081H
	DD	01d08fH
	DD	01d093H
	DD	01d0b7H
	DD	01d0bdH
	DD	01d0f3H
	DD	01d0f9H
	DD	01d0ffH
	DD	01d107H
	DD	01d111H
	DD	01d11dH
	DD	01d12bH
	DD	01d12fH
	DD	01d131H
	DD	01d13bH
	DD	01d13dH
	DD	01d143H
	DD	01d159H
	DD	01d15bH
	DD	01d177H
	DD	01d185H
	DD	01d18bH
	DD	01d18fH
	DD	01d197H
	DD	01d1bbH
	DD	01d1c1H
	DD	01d1c5H
	DD	01d1cbH
	DD	01d1e3H
	DD	01d1fbH
	DD	01d1fdH
	DD	01d201H
	DD	01d203H
	DD	01d20fH
	DD	01d219H
	DD	01d23fH
	DD	01d243H
	DD	01d25dH
	DD	01d279H
	DD	01d27bH
	DD	01d285H
	DD	01d297H
	DD	01d2c1H
	DD	01d2cfH
	DD	01d2d9H
	DD	01d2edH
	DD	01d2fdH
	DD	01d2ffH
	DD	01d305H
	DD	01d30bH
	DD	01d311H
	DD	01d327H
	DD	01d33bH
	DD	01d341H
	DD	01d34bH
	DD	01d351H
	DD	01d365H
	DD	01d369H
	DD	01d36bH
	DD	01d377H
	DD	01d37dH
	DD	01d387H
	DD	01d389H
	DD	01d393H
	DD	01d395H
	DD	01d3abH
	DD	01d3b9H
	DD	01d3c3H
	DD	01d3cfH
	DD	01d3dbH
	DD	01d3ddH
	DD	01d3e7H
	DD	01d3f5H
	DD	01d401H
	DD	01d405H
	DD	01d413H
	DD	01d417H
	DD	01d41fH
	DD	01d429H
	DD	01d42bH
	DD	01d43dH
	DD	01d449H
	DD	01d453H
	DD	01d471H
	DD	01d473H
	DD	01d479H
	DD	01d491H
	DD	01d49bH
	DD	01d4a3H
	DD	01d4adH
	DD	01d4afH
	DD	01d4b9H
	DD	01d4cbH
	DD	01d4d1H
	DD	01d4e9H
	DD	01d4efH
	DD	01d4f1H
	DD	01d503H
	DD	01d50dH
	DD	01d50fH
	DD	01d51bH
	DD	01d521H
	DD	01d527H
	DD	01d539H
	DD	01d55dH
	DD	01d563H
	DD	01d567H
	DD	01d575H
	DD	01d581H
	DD	01d587H
	DD	01d591H
	DD	01d59fH
	DD	01d5a9H
	DD	01d5b7H
	DD	01d5d5H
	DD	01d5dbH
	DD	01d5e5H
	DD	01d5ebH
	DD	01d5ffH
	DD	01d60bH
	DD	01d61dH
	DD	01d633H
	DD	01d63fH
	DD	01d647H
	DD	01d64dH
	DD	01d651H
	DD	01d65dH
	DD	01d66bH
	DD	01d66fH
	DD	01d699H
	DD	01d6b7H
	DD	01d6bfH
	DD	01d6dbH
	DD	01d6e7H
	DD	01d6edH
	DD	01d6f3H
	DD	01d6f9H
	DD	01d701H
	DD	01d70bH
	DD	01d71fH
	DD	01d72bH
	DD	01d72fH
	DD	01d741H
	DD	01d747H
	DD	01d755H
	DD	01d75fH
	DD	01d765H
	DD	01d771H
	DD	01d773H
	DD	01d785H
	DD	01d789H
	DD	01d791H
	DD	01d7a1H
	DD	01d7a3H
	DD	01d7adH
	DD	01d7bbH
	DD	01d7bfH
	DD	01d7cbH
	DD	01d7ebH
	DD	01d7f1H
	DD	01d7f7H
	DD	01d7fdH
	DD	01d801H
	DD	01d80fH
	DD	01d813H
	DD	01d81fH
	DD	01d827H
	DD	01d82dH
	DD	01d839H
	DD	01d843H
	DD	01d84bH
	DD	01d855H
	DD	01d857H
	DD	01d861H
	DD	01d869H
	DD	01d86dH
	DD	01d86fH
	DD	01d873H
	DD	01d891H
	DD	01d8a5H
	DD	01d8a9H
	DD	01d8afH
	DD	01d8b5H
	DD	01d8bbH
	DD	01d8bdH
	DD	01d8cfH
	DD	01d8e5H
	DD	01d8e7H
	DD	01d8ebH
	DD	01d8f9H
	DD	01d923H
	DD	01d933H
	DD	01d93fH
	DD	01d945H
	DD	01d951H
	DD	01d953H
	DD	01d95dH
	DD	01d965H
	DD	01d98dH
	DD	01d9abH
	DD	01d9b3H
	DD	01d9b7H
	DD	01d9c3H
	DD	01d9cbH
	DD	01d9ddH
	DD	01d9e1H
	DD	01d9e9H
	DD	01d9efH
	DD	01d9f5H
	DD	01d9ffH
	DD	01da05H
	DD	01da07H
	DD	01da0dH
	DD	01da17H
	DD	01da19H
	DD	01da23H
	DD	01da3bH
	DD	01da4dH
	DD	01da5fH
	DD	01da61H
	DD	01da67H
	DD	01da6dH
	DD	01da7dH
	DD	01da8fH
	DD	01da95H
	DD	01da9dH
	DD	01daa3H
	DD	01dab3H
	DD	01dabbH
	DD	01dacbH
	DD	01dad1H
	DD	01dad7H
	DD	01dae3H
	DD	01dae9H
	DD	01daebH
	DD	01daf7H
	DD	01db07H
	DD	01db09H
	DD	01db15H
	DD	01db1fH
	DD	01db21H
	DD	01db25H
	DD	01db3dH
	DD	01db57H
	DD	01db61H
	DD	01db6fH
	DD	01db79H
	DD	01db7fH
	DD	01dba3H
	DD	01dbbbH
	DD	01dbbdH
	DD	01dbf3H
	DD	01dbfdH
	DD	01dc0bH
	DD	01dc1bH
	DD	01dc21H
	DD	01dc35H
	DD	01dc41H
	DD	01dc4bH
	DD	01dc51H
	DD	01dc5dH
	DD	01dc5fH
	DD	01dc6bH
	DD	01dc6fH
	DD	01dc89H
	DD	01dc8dH
	DD	01dc9bH
	DD	01dca5H
	DD	01dcabH
	DD	01dcadH
	DD	01dcb1H
	DD	01dcb7H
	DD	01dcb9H
	DD	01dcc3H
	DD	01dcc5H
	DD	01dcd5H
	DD	01dce1H
	DD	01dcf3H
	DD	01dd05H
	DD	01dd13H
	DD	01dd23H
	DD	01dd25H
	DD	01dd37H
	DD	01dd3dH
	DD	01dd59H
	DD	01dd5bH
	DD	01dd5fH
	DD	01dd61H
	DD	01dd6bH
	DD	01dd77H
	DD	01dd8bH
	DD	01dd97H
	DD	01dd9bH
	DD	01dda1H
	DD	01dda7H
	DD	01ddbbH
	DD	01ddd1H
	DD	01ddd3H
	DD	01ddd7H
	DD	01ddebH
	DD	01ddfbH
	DD	01de13H
	DD	01de15H
	DD	01de19H
	DD	01de1fH
	DD	01de21H
	DD	01de4bH
	DD	01de51H
	DD	01de55H
	DD	01de67H
	DD	01de6dH
	DD	01de79H
	DD	01de81H
	DD	01de85H
	DD	01de87H
	DD	01de8dH
	DD	01de9fH
	DD	01dea5H
	DD	01debdH
	DD	01dec1H
	DD	01ded3H
	DD	01dee5H
	DD	01dee7H
	DD	01def1H
	DD	01def3H
	DD	01df1bH
	DD	01df1dH
	DD	01df27H
	DD	01df45H
	DD	01df4dH
	DD	01df5fH
	DD	01df75H
	DD	01df77H
	DD	01df81H
	DD	01df89H
	DD	01df99H
	DD	01dfa5H
	DD	01dfc3H
	DD	01dfcbH
	DD	01dfd1H
	DD	01dfd7H
	DD	01dfe1H
	DD	01dfedH
	DD	01dff3H
	DD	01dff5H
	DD	01e007H
	DD	01e00bH
	DD	01e029H
	DD	01e031H
	DD	01e03bH
	DD	01e049H
	DD	01e04dH
	DD	01e053H
	DD	01e05bH
	DD	01e079H
	DD	01e07fH
	DD	01e089H
	DD	01e097H
	DD	01e0a9H
	DD	01e0b3H
	DD	01e0c5H
	DD	01e0cbH
	DD	01e0d3H
	DD	01e0e9H
	DD	01e0f1H
	DD	01e0f7H
	DD	01e107H
	DD	01e121H
	DD	01e137H
	DD	01e143H
	DD	01e149H
	DD	01e151H
	DD	01e15dH
	DD	01e167H
	DD	01e17bH
	DD	01e185H
	DD	01e199H
	DD	01e1abH
	DD	01e1afH
	DD	01e1bbH
	DD	01e1cdH
	DD	01e1edH
	DD	01e1f1H
	DD	01e1f3H
	DD	01e205H
	DD	01e209H
	DD	01e20fH
	DD	01e21bH
	DD	01e223H
	DD	01e229H
	DD	01e22fH
	DD	01e239H
	DD	01e241H
	DD	01e257H
	DD	01e263H
	DD	01e265H
	DD	01e26bH
	DD	01e26fH
	DD	01e27dH
	DD	01e287H
	DD	01e29bH
	DD	01e29fH
	DD	01e2a1H
	DD	01e2bdH
	DD	01e2bfH
	DD	01e2c9H
	DD	01e2d1H
	DD	01e2e3H
	DD	01e2efH
	DD	01e2f5H
	DD	01e305H
	DD	01e30dH
	DD	01e313H
	DD	01e31dH
	DD	01e335H
	DD	01e33bH
	DD	01e347H
	DD	01e34fH
	DD	01e353H
	DD	01e355H
	DD	01e359H
	DD	01e36dH
	DD	01e38bH
	DD	01e38fH
	DD	01e39bH
	DD	01e3a9H
	DD	01e3adH
	DD	01e3b5H
	DD	01e3b9H
	DD	01e3cdH
	DD	01e3d7H
	DD	01e3efH
	DD	01e407H
	DD	01e413H
	DD	01e41bH
	DD	01e425H
	DD	01e431H
	DD	01e445H
	DD	01e44bH
	DD	01e44fH
	DD	01e455H
	DD	01e45dH
	DD	01e461H
	DD	01e475H
	DD	01e4a3H
	DD	01e4b7H
	DD	01e4c1H
	DD	01e4d9H
	DD	01e4dbH
	DD	01e4e5H
	DD	01e4ebH
	DD	01e4f3H
	DD	01e4f9H
	DD	01e50bH
	DD	01e515H
	DD	01e517H
	DD	01e521H
	DD	01e527H
	DD	01e535H
	DD	01e547H
	DD	01e557H
	DD	01e559H
	DD	01e575H
	DD	01e583H
	DD	01e589H
	DD	01e58dH
	DD	01e58fH
	DD	01e595H
	DD	01e5b1H
	DD	01e5b3H
	DD	01e5b7H
	DD	01e5bdH
	DD	01e5bfH
	DD	01e5cbH
	DD	01e5cfH
	DD	01e60bH
	DD	01e60dH
	DD	01e611H
	DD	01e61fH
	DD	01e62bH
	DD	01e637H
	DD	01e63dH
	DD	01e649H
	DD	01e64dH
	DD	01e661H
	DD	01e671H
	DD	01e67dH
	DD	01e67fH
	DD	01e691H
	DD	01e697H
	DD	01e6a1H
	DD	01e6b9H
	DD	01e6d9H
	DD	01e6e3H
	DD	01e6fdH
	DD	01e701H
	DD	01e707H
	DD	01e715H
	DD	01e71bH
	DD	01e71fH
	DD	01e72dH
	DD	01e731H
	DD	01e743H
	DD	01e751H
	DD	01e757H
	DD	01e761H
	DD	01e763H
	DD	01e769H
	DD	01e76dH
	DD	01e76fH
	DD	01e779H
	DD	01e77fH
	DD	01e793H
	DD	01e797H
	DD	01e7afH
	DD	01e7b5H
	DD	01e7e1H
	DD	01e7ebH
	DD	01e7edH
	DD	01e7f7H
	DD	01e817H
	DD	01e833H
	DD	01e835H
	DD	01e83bH
	DD	01e83fH
	DD	01e84bH
	DD	01e859H
	DD	01e865H
	DD	01e87dH
	DD	01e887H
	DD	01e8a5H
	DD	01e8adH
	DD	01e8b3H
	DD	01e8b9H
	DD	01e8bdH
	DD	01e8bfH
	DD	01e8cbH
	DD	01e8d5H
	DD	01e8ddH
	DD	01e8ffH
	DD	01e90dH
	DD	01e911H
	DD	01e917H
	DD	01e923H
	DD	01e925H
	DD	01e92fH
	DD	01e93bH
	DD	01e94dH
	DD	01e955H
	DD	01e967H
	DD	01e973H
	DD	01e977H
	DD	01e97fH
	DD	01e991H
	DD	01e99bH
	DD	01e9a9H
	DD	01e9bbH
	DD	01e9c7H
	DD	01e9cbH
	DD	01e9d7H
	DD	01e9dfH
	DD	01e9efH
	DD	01e9f5H
	DD	01ea01H
	DD	01ea0dH
	DD	01ea1fH
	DD	01ea39H
	DD	01ea43H
	DD	01ea45H
	DD	01ea57H
	DD	01ea63H
	DD	01ea6fH
	DD	01ea97H
	DD	01ea9dH
	DD	01eab1H
	DD	01eab5H
	DD	01eabbH
	DD	01eac7H
	DD	01eac9H
	DD	01ead3H
	DD	01eadbH
	DD	01eae5H
	DD	01eaf3H
	DD	01eaf7H
	DD	01eafdH
	DD	01eb0bH
	DD	01eb0fH
	DD	01eb15H
	DD	01eb23H
	DD	01eb29H
	DD	01eb2fH
	DD	01eb39H
	DD	01eb51H
	DD	01eb5dH
	DD	01eb5fH
	DD	01eb6bH
	DD	01eb75H
	DD	01eb7dH
	DD	01eba7H
	DD	01ebbfH
	DD	01ebc9H
	DD	01ebcbH
	DD	01ebe1H
	DD	01ebe7H
	DD	01ebe9H
	DD	01ebedH
	DD	01ebf5H
	DD	01ec07H
	DD	01ec0bH
	DD	01ec31H
	DD	01ec3bH
	DD	01ec3dH
	DD	01ec43H
	DD	01ec47H
	DD	01ec4fH
	DD	01ec55H
	DD	01ec59H
	DD	01ec5fH
	DD	01ec73H
	DD	01ec7fH
	DD	01ec91H
	DD	01ec9bH
	DD	01ecafH
	DD	01ecb3H
	DD	01ecbfH
	DD	01ecc7H
	DD	01ecddH
	DD	01ecf7H
	DD	01ed03H
	DD	01ed0fH
	DD	01ed13H
	DD	01ed15H
	DD	01ed19H
	DD	01ed21H
	DD	01ed31H
	DD	01ed3fH
	DD	01ed63H
	DD	01ed67H
	DD	01ed6dH
	DD	01ed73H
	DD	01ed81H
	DD	01ed85H
	DD	01ed8dH
	DD	01ed97H
	DD	01edbdH
	DD	01edd5H
	DD	01ede1H
	DD	01edebH
	DD	01edf9H
	DD	01edfdH
	DD	01ee09H
	DD	01ee11H
	DD	01ee17H
	DD	01ee1bH
	DD	01ee1dH
	DD	01ee23H
	DD	01ee35H
	DD	01ee4dH
	DD	01ee53H
	DD	01ee57H
	DD	01ee77H
	DD	01ee89H
	DD	01ee93H
	DD	01ee95H
	DD	01eea7H
	DD	01eeb1H
	DD	01eebdH
	DD	01eedbH
	DD	01eee3H
	DD	01eeefH
	DD	01eef9H
	DD	01eeffH
	DD	01ef0dH
	DD	01ef13H
	DD	01ef17H
	DD	01ef1fH
	DD	01ef25H
	DD	01ef29H
	DD	01ef3dH
	DD	01ef67H
	DD	01ef6bH
	DD	01ef77H
	DD	01ef83H
	DD	01ef89H
	DD	01ef8bH
	DD	01efc1H
	DD	01efcbH
	DD	01efdfH
	DD	01efe5H
	DD	01eff1H
	DD	01eff7H
	DD	01f00dH
	DD	01f037H
	DD	01f039H
	DD	01f03dH
	DD	01f04bH
	DD	01f067H
	DD	01f069H
	DD	01f07fH
	DD	01f093H
	DD	01f09dH
	DD	01f0a3H
	DD	01f0b5H
	DD	01f0bbH
	DD	01f0d5H
	DD	01f0e7H
	DD	01f0f1H
	DD	01f0f3H
	DD	01f109H
	DD	01f10fH
	DD	01f111H
	DD	01f11dH
	DD	01f127H
	DD	01f12dH
	DD	01f139H
	DD	01f13bH
	DD	01f141H
	DD	01f145H
	DD	01f159H
	DD	01f163H
	DD	01f16fH
	DD	01f183H
	DD	01f18dH
	DD	01f1a7H
	DD	01f1abH
	DD	01f1bfH
	DD	01f1d7H
	DD	01f1ddH
	DD	01f1f9H
	DD	01f1ffH
	DD	01f205H
	DD	01f213H
	DD	01f229H
	DD	01f235H
	DD	01f23dH
	DD	01f25bH
	DD	01f25fH
	DD	01f267H
	DD	01f26dH
	DD	01f271H
	DD	01f277H
	DD	01f279H
	DD	01f295H
	DD	01f29bH
	DD	01f2a1H
	DD	01f2a9H
	DD	01f2afH
	DD	01f2b5H
	DD	01f2bfH
	DD	01f2c1H
	DD	01f2cbH
	DD	01f2d7H
	DD	01f2ddH
	DD	01f2dfH
	DD	01f2e5H
	DD	01f2efH
	DD	01f2f5H
	DD	01f2fbH
	DD	01f303H
	DD	01f313H
	DD	01f325H
	DD	01f33fH
	DD	01f349H
	DD	01f34bH
	DD	01f35dH
	DD	01f363H
	DD	01f369H
	DD	01f373H
	DD	01f37bH
	DD	01f381H
	DD	01f385H
	DD	01f3a9H
	DD	01f3b1H
	DD	01f3bbH
	DD	01f3cfH
	DD	01f3e5H
	DD	01f3ebH
	DD	01f3fdH
	DD	01f415H
	DD	01f421H
	DD	01f42fH
	DD	01f435H
	DD	01f463H
	DD	01f46fH
	DD	01f471H
	DD	01f477H
	DD	01f493H
	DD	01f499H
	DD	01f49fH
	DD	01f4adH
	DD	01f4bdH
	DD	01f4c9H
	DD	01f4cbH
	DD	01f4d5H
	DD	01f4ddH
	DD	01f4edH
	DD	01f4efH
	DD	01f501H
	DD	01f511H
	DD	01f51fH
	DD	01f523H
	DD	01f537H
	DD	01f541H
	DD	01f547H
	DD	01f553H
	DD	01f555H
	DD	01f55bH
	DD	01f55fH
	DD	01f579H
	DD	01f585H
	DD	01f589H
	DD	01f58fH
	DD	01f59bH
	DD	01f59dH
	DD	01f5afH
	DD	01f5b5H
	DD	01f5c1H
	DD	01f5cdH
	DD	01f5d3H
	DD	01f5d9H
	DD	01f5ddH
	DD	01f5e3H
	DD	01f5e9H
	DD	01f5fdH
	DD	01f607H
	DD	01f609H
	DD	01f625H
	DD	01f627H
	DD	01f633H
	DD	01f64fH
	DD	01f657H
	DD	01f65bH
	DD	01f66dH
	DD	01f675H
	DD	01f691H
	DD	01f693H
	DD	01f697H
	DD	01f69dH
	DD	01f6a5H
	DD	01f6abH
	DD	01f6b5H
	DD	01f6cdH
	DD	01f6ebH
	DD	01f6edH
	DD	01f6f9H
	DD	01f6ffH
	DD	01f72dH
	DD	01f733H
	DD	01f73fH
	DD	01f741H
	DD	01f745H
	DD	01f759H
	DD	01f75dH
	DD	01f769H
	DD	01f76fH
	DD	01f787H
	DD	01f79bH
	DD	01f7abH
	DD	01f7adH
	DD	01f7b7H
	DD	01f7bfH
	DD	01f7c9H
	DD	01f7cbH
	DD	01f7d5H
	DD	01f7d7H
	DD	01f7dbH
	DD	01f7e1H
	DD	01f7e9H
	DD	01f7f3H
	DD	01f7ffH
	DD	01f80dH
	DD	01f819H
	DD	01f825H
	DD	01f83bH
	DD	01f841H
	DD	01f849H
	DD	01f859H
	DD	01f85fH
	DD	01f861H
	DD	01f867H
	DD	01f891H
	DD	01f8a3H
	DD	01f8a9H
	DD	01f8adH
	DD	01f8b9H
	DD	01f8c5H
	DD	01f8c7H
	DD	01f8cdH
	DD	01f8efH
	DD	01f8fdH
	DD	01f901H
	DD	01f907H
	DD	01f909H
	DD	01f90dH
	DD	01f921H
	DD	01f93dH
	DD	01f943H
	DD	01f951H
	DD	01f963H
	DD	01f979H
	DD	01f97bH
	DD	01f98bH
	DD	01f99fH
	DD	01f9a3H
	DD	01f9a9H
	DD	01f9b1H
	DD	01f9b5H
	DD	01f9bdH
	DD	01f9d3H
	DD	01f9d9H
	DD	01f9dbH
	DD	01f9e5H
	DD	01f9edH
	DD	01f9f7H
	DD	01f9f9H
	DD	01f9fdH
	DD	01fa03H
	DD	01fa11H
	DD	01fa2dH
	DD	01fa33H
	DD	01fa35H
	DD	01fa39H
	DD	01fa47H
	DD	01fa5dH
	DD	01fa5fH
	DD	01fa69H
	DD	01fa6bH
	DD	01fa87H
	DD	01faabH
	DD	01fab7H
	DD	01fac5H
	DD	01fac9H
	DD	01fad5H
	DD	01faddH
	DD	01fae3H
	DD	01fae9H
	DD	01fb01H
	DD	01fb0bH
	DD	01fb31H
	DD	01fb3dH
	DD	01fb5fH
	DD	01fb65H
	DD	01fb6dH
	DD	01fb7dH
	DD	01fb7fH
	DD	01fb91H
	DD	01fba1H
	DD	01fba7H
	DD	01fbafH
	DD	01fbb3H
	DD	01fbd3H
	DD	01fbe5H
	DD	01fbebH
	DD	01fbfbH
	DD	01fc03H
	DD	01fc09H
	DD	01fc15H
	DD	01fc19H
	DD	01fc1fH
	DD	01fc27H
	DD	01fc33H
	DD	01fc49H
	DD	01fc4fH
	DD	01fc63H
	DD	01fc7bH
	DD	01fc87H
	DD	01fc97H
	DD	01fc99H
	DD	01fca3H
	DD	01fcafH
	DD	01fcc1H
	DD	01fccdH
	DD	01fcd3H
	DD	01fcd5H
	DD	01fcdbH
	DD	01fce7H
	DD	01fcffH
	DD	01fd03H
	DD	01fd21H
	DD	01fd27H
	DD	01fd2dH
	DD	01fd3bH
	DD	01fd3fH
	DD	01fd41H
	DD	01fd4bH
	DD	01fd5fH
	DD	01fd69H
	DD	01fd6bH
	DD	01fd77H
	DD	01fd87H
	DD	01fd8fH
	DD	01fd99H
	DD	01fda5H
	DD	01fdadH
	DD	01fdb3H
	DD	01fdb9H
	DD	01fdd1H
	DD	01fdd5H
	DD	01fddbH
	DD	01fde3H
	DD	01fdf3H
	DD	01fdf9H
	DD	01fe13H
	DD	01fe1dH
	DD	01fe3bH
	DD	01fe3dH
	DD	01fe47H
	DD	01fe49H
	DD	01fe4fH
	DD	01fe53H
	DD	01fe59H
	DD	01fe5bH
	DD	01fe61H
	DD	01fe79H
	DD	01fe7fH
	DD	01fe85H
	DD	01fe8bH
	DD	01fea9H
	DD	01fed1H
	DD	01fedfH
	DD	01fee3H
	DD	01fef7H
	DD	01fefbH
	DD	01ff01H
	DD	01ff0dH
	DD	01ff19H
	DD	01ff1bH
	DD	01ff2bH
	DD	01ff39H
	DD	01ff6fH
	DD	01ff8dH
	DD	01ff99H
	DD	01ff9dH
	DD	01ffa5H
	DD	01ffabH
	DD	01ffc1H
	DD	01ffc3H
	DD	01ffcfH
	DD	01ffe1H
	DD	01fff3H
	DD	01fff7H
	DD	01ffffH
	DD	02001dH
	DD	020027H
	DD	020029H
	DD	020039H
	DD	020047H
	DD	02004dH
	DD	020063H
	DD	020083H
	DD	02008dH
	DD	020095H
	DD	02009fH
	DD	0200b1H
	DD	0200b3H
	DD	0200c3H
	DD	0200ddH
	DD	0200e1H
	DD	0200e7H
	DD	0200efH
	DD	0200f5H
	DD	0200f9H
	DD	02011dH
	DD	020123H
	DD	02012bH
	DD	020135H
	DD	020155H
	DD	020167H
	DD	02016dH
	DD	020171H
	DD	020177H
	DD	020179H
	DD	020195H
	DD	020197H
	DD	0201a1H
	DD	0201a9H
	DD	0201adH
	DD	0201b3H
	DD	0201bfH
	DD	0201d7H
	DD	0201e9H
	DD	0201fdH
	DD	020207H
	DD	02021bH
	DD	020221H
	DD	02022bH
	DD	020237H
	DD	020239H
	DD	020257H
	DD	020267H
	DD	020275H
	DD	02027bH
	DD	02027fH
	DD	020281H
	DD	020293H
	DD	02029fH
	DD	0202a5H
	DD	0202afH
	DD	0202bbH
	DD	0202c1H
	DD	0202c3H
	DD	0202c7H
	DD	0202d5H
	DD	0202fdH
	DD	0202ffH
	DD	020309H
	DD	020315H
	DD	020333H
	DD	020335H
	DD	02033bH
	DD	020345H
	DD	020357H
	DD	02035dH
	DD	020363H
	DD	020365H
	DD	02036bH
	DD	020377H
	DD	020381H
	DD	0203a1H
	DD	0203b3H
	DD	0203cfH
	DD	0203d1H
	DD	0203dbH
	DD	0203e7H
	DD	020407H
	DD	02040dH
	DD	020411H
	DD	020429H
	DD	020437H
	DD	02043dH
	DD	020449H
	DD	02044dH
	DD	020467H
	DD	020485H
	DD	020489H
	DD	020491H
	DD	020497H
	DD	0204a1H
	DD	0204a7H
	DD	0204bbH
	DD	0204bfH
	DD	0204cbH
	DD	0204d9H
	DD	0204e9H
	DD	0204ebH
	DD	0204fbH
	DD	020509H
	DD	02050fH
	DD	020513H
	DD	02051fH
	DD	020533H
	DD	020539H
	DD	020545H
	DD	020555H
	DD	020557H
	DD	020575H
	DD	02058bH
	DD	020593H
	DD	02059fH
	DD	0205abH
	DD	0205afH
	DD	0205b1H
	DD	0205b5H
	DD	0205bdH
	DD	0205c3H
	DD	0205edH
	DD	0205ffH
	DD	020603H
	DD	02060bH
	DD	02060fH
	DD	020617H
	DD	02061dH
	DD	020627H
	DD	020635H
	DD	02063bH
	DD	020647H
	DD	020651H
	DD	020659H
	DD	02065dH
	DD	020663H
	DD	020665H
	DD	020671H
	DD	020683H
	DD	02068dH
	DD	02068fH
	DD	020695H
	DD	020699H
	DD	02069bH
	DD	0206d1H
	DD	0206e1H
	DD	0206f3H
	DD	0206f9H
	DD	0206fbH
	DD	0206ffH
	DD	020717H
	DD	02071dH
	DD	02072fH
	DD	020741H
	DD	020753H
	DD	020755H
	DD	020759H
	DD	020761H
	DD	020767H
	DD	02076bH
	DD	02077dH
	DD	020795H
	DD	0207a9H
	DD	0207afH
	DD	0207bbH
	DD	0207cdH
	DD	0207d1H
	DD	0207dfH
	DD	0207e9H
	DD	0207efH
	DD	0207f5H
	DD	0207fdH
	DD	020801H
	DD	020821H
	DD	020825H
	DD	020831H
	DD	02083fH
	DD	020843H
	DD	020851H
	DD	02085dH
	DD	020879H
	DD	020885H
	DD	02088dH
	DD	020897H
	DD	02089dH
	DD	02089fH
	DD	0208a3H
	DD	0208b7H
	DD	0208c7H
	DD	0208c9H
	DD	0208cfH
	DD	0208d9H
	DD	0208e5H
	DD	0208e7H
	DD	020903H
	DD	02090bH
	DD	02090fH
	DD	02091bH
	DD	020929H
	DD	02093fH
	DD	020947H
	DD	02094bH
	DD	020969H
	DD	020975H
	DD	02097bH
	DD	02098fH
	DD	0209a5H
	DD	0209a7H
	DD	0209b7H
	DD	0209c3H
	DD	0209cfH
	DD	0209ddH
	DD	0209ffH
	DD	020a01H
	DD	020a11H
	DD	020a19H
	DD	020a25H
	DD	020a29H
	DD	020a3bH
	DD	020a41H
	DD	020a4dH
	DD	020a4fH
	DD	020a55H
	DD	020a5bH
	DD	020a65H
	DD	020a89H
	DD	020a95H
	DD	020aa9H
	DD	020ab3H
	DD	020ab5H
	DD	020ac7H
	DD	020ad3H
	DD	020addH
	DD	020af1H
	DD	020af5H
	DD	020b1fH
	DD	020b3dH
	DD	020b4bH
	DD	020b4fH
	DD	020b5bH
	DD	020b5dH
	DD	020b69H
	DD	020b6fH
	DD	020b91H
	DD	020b97H
	DD	020b9fH
	DD	020ba5H
	DD	020babH
	DD	020bbdH
	DD	020bc1H
	DD	020bc7H
	DD	020bc9H
	DD	020bcdH
	DD	020bf1H
	DD	020c09H
	DD	020c11H
	DD	020c1bH
	DD	020c21H
	DD	020c2fH
	DD	020c3fH
	DD	020c45H
	DD	020c4bH
	DD	020c53H
	DD	020c63H
	DD	020c71H
	DD	020c77H
	DD	020c7dH
	DD	020c8fH
	DD	020c93H
	DD	020c95H
	DD	020cb7H
	DD	020cbdH
	DD	020cc3H
	DD	020cc5H
	DD	020cd1H
	DD	020cd7H
	DD	020cdbH
	DD	020ce1H
	DD	020ce3H
	DD	020cffH
	DD	020d01H
	DD	020d11H
	DD	020d25H
	DD	020d2bH
	DD	020d47H
	DD	020d59H
	DD	020d67H
	DD	020d6bH
	DD	020d71H
	DD	020db5H
	DD	020dbbH
	DD	020dbfH
	DD	020dc1H
	DD	020dc5H
	DD	020dd1H
	DD	020defH
	DD	020e0dH
	DD	020e15H
	DD	020e19H
	DD	020e1bH
	DD	020e2bH
	DD	020e33H
	DD	020e4bH
	DD	020e55H
	DD	020e61H
	DD	020e79H
	DD	020e85H
	DD	020e97H
	DD	020eb5H
	DD	020eb7H
	DD	020ec3H
	DD	020ec9H
	DD	020ed3H
	DD	020ed9H
	DD	020ee7H
	DD	020efdH
	DD	020f05H
	DD	020f09H
	DD	020f0bH
	DD	020f23H
	DD	020f27H
	DD	020f4dH
	DD	020f57H
	DD	020f5fH
	DD	020f69H
	DD	020f6bH
	DD	020f75H
	DD	020f83H
	DD	020f89H
	DD	020f93H
	DD	020fa5H
	DD	020fb1H
	DD	020fbdH
	DD	020fcfH
	DD	020fdbH
	DD	020fefH
	DD	021005H
	DD	02100dH
	DD	021019H
	DD	02101dH
	DD	021029H
	DD	02102bH
	DD	021035H
	DD	021049H
	DD	021059H
	DD	021067H
	DD	02106dH
	DD	021071H
	DD	021073H
	DD	021085H
	DD	021097H
	DD	0210a1H
	DD	0210b3H
	DD	0210b5H
	DD	0210b9H
	DD	0210c7H
	DD	0210ddH
	DD	0210dfH
	DD	0210ebH
	DD	0210f1H
	DD	021103H
	DD	021107H
	DD	021109H
	DD	021119H
	DD	021125H
	DD	021127H
	DD	02112bH
	DD	02112dH
	DD	021137H
	DD	021149H
	DD	021157H
	DD	02116dH
	DD	021187H
	DD	021193H
	DD	02119dH
	DD	0211a5H
	DD	0211a9H
	DD	0211afH
	DD	0211b1H
	DD	0211b7H
	DD	0211bdH
	DD	0211c1H
	DD	0211c7H
	DD	0211d5H
	DD	0211dfH
	DD	0211e1H
	DD	0211edH
	DD	0211f7H
	DD	021211H
	DD	021215H
	DD	021227H
	DD	021229H
	DD	02122fH
	DD	021233H
	DD	02123fH
	DD	02124dH
	DD	021265H
	DD	02126bH
	DD	021277H
	DD	021295H
	DD	0212a1H
	DD	0212abH
	DD	0212b3H
	DD	0212cfH
	DD	0212d5H
	DD	0212dbH
	DD	0212e7H
	DD	0212e9H
	DD	0212f9H
	DD	021301H
	DD	021329H
	DD	02132bH
	DD	02134dH
	DD	02135bH
	DD	021361H
	DD	02136bH
	DD	021379H
	DD	021383H
	DD	021385H
	DD	02139dH
	DD	0213a3H
	DD	0213afH
	DD	0213c5H
	DD	0213cbH
	DD	0213e3H
	DD	0213f1H
	DD	0213fdH
	DD	021401H
	DD	02140fH
	DD	021419H
	DD	02141fH
	DD	02142dH
	DD	021437H
	DD	021445H
	DD	021451H
	DD	021455H
	DD	02146fH
	DD	021475H
	DD	02147fH
	DD	021487H
	DD	02148dH
	DD	021491H
	DD	021497H
	DD	02149fH
	DD	0214a9H
	DD	0214b5H
	DD	0214bbH
	DD	0214c9H
	DD	0214cdH
	DD	0214cfH
	DD	0214d3H
	DD	0214e1H
	DD	0214e5H
	DD	0214edH
	DD	0214ffH
	DD	021505H
	DD	02150fH
	DD	021517H
	DD	021521H
	DD	021523H
	DD	021535H
	DD	02153fH
	DD	021547H
	DD	02154bH
	DD	021553H
	DD	021559H
	DD	02155dH
	DD	021563H
	DD	02156fH
	DD	02157dH
	DD	021599H
	DD	02159bH
	DD	02159fH
	DD	0215adH
	DD	0215c9H
	DD	0215cbH
	DD	0215d1H
	DD	0215f3H
	DD	0215f5H
	DD	021605H
	DD	021607H
	DD	021617H
	DD	02161dH
	DD	021623H
	DD	02162fH
	DD	021631H
	DD	021641H
	DD	021649H
	DD	02166bH
	DD	02166dH
	DD	021689H
	DD	021691H
	DD	02169bH
	DD	02169dH
	DD	0216afH
	DD	0216b3H
	DD	0216b9H
	DD	0216c1H
	DD	0216efH
	DD	0216f5H
	DD	0216f7H
	DD	021703H
	DD	02170dH
	DD	021713H
	DD	02171bH
	DD	02171fH
	DD	021721H
	DD	021727H
	DD	021745H
	DD	021775H
	DD	02177fH
	DD	021781H
	DD	02179dH
	DD	02179fH
	DD	0217abH
	DD	0217b7H
	DD	0217bbH
	DD	0217c1H
	DD	0217d9H
	DD	0217dfH
	DD	0217e7H
	DD	0217edH
	DD	0217f1H
	DD	0217f9H
	DD	021803H
	DD	021817H
	DD	021823H
	DD	021839H
	DD	02183fH
	DD	021857H
	DD	021869H
	DD	02187bH
	DD	02187dH
	DD	021889H
	DD	02188fH
	DD	021893H
	DD	021899H
	DD	0218a7H
	DD	0218abH
	DD	0218b1H
	DD	0218b7H
	DD	0218c5H
	DD	0218ddH
	DD	0218e3H
	DD	0218e7H
	DD	0218edH
	DD	021905H
	DD	02190bH
	DD	021913H
	DD	021923H
	DD	02192fH
	DD	021941H
	DD	02195fH
	DD	021965H
	DD	021973H
	DD	021979H
	DD	02197dH
	DD	021997H
	DD	0219a1H
	DD	0219a7H
	DD	0219b5H
	DD	0219bbH
	DD	0219e3H
	DD	0219ebH
	DD	0219f1H
	DD	0219fbH
	DD	021a09H
	DD	021a0fH
	DD	021a2bH
	DD	021a31H
	DD	021a3fH
	DD	021a4bH
	DD	021a63H
	DD	021a67H
	DD	021a79H
	DD	021a8bH
	DD	021a8dH
	DD	021a91H
	DD	021ab5H
	DD	021ab7H
	DD	021ac7H
	DD	021acdH
	DD	021ad5H
	DD	021adbH
	DD	021ae5H
	DD	021affH
	DD	021b09H
	DD	021b0fH
	DD	021b17H
	DD	021b39H
	DD	021b45H
	DD	021b4bH
	DD	021b57H
	DD	021b5dH
	DD	021b5fH
	DD	021b75H
	DD	021b7bH
	DD	021b81H
	DD	021b9bH
	DD	021b9fH
	DD	021badH
	DD	021bb3H
	DD	021bc3H
	DD	021bc5H
	DD	021bcfH
	DD	021bd5H
	DD	021be1H
	DD	021bffH
	DD	021c01H
	DD	021c07H
	DD	021c0bH
	DD	021c2bH
	DD	021c31H
	DD	021c47H
	DD	021c4fH
	DD	021c53H
	DD	021c61H
	DD	021c6dH
	DD	021c83H
	DD	021c85H
	DD	021c95H
	DD	021ca1H
	DD	021ca3H
	DD	021ca7H
	DD	021cbbH
	DD	021cc1H
	DD	021cd1H
	DD	021cd3H
	DD	021cddH
	DD	021ce5H
	DD	021cfdH
	DD	021d01H
	DD	021d0fH
	DD	021d15H
	DD	021d33H
	DD	021d3fH
	DD	021d43H
	DD	021d49H
	DD	021d4bH
	DD	021d51H
	DD	021d55H
	DD	021d5bH
	DD	021d67H
	DD	021d79H
	DD	021d85H
	DD	021d8dH
	DD	021d91H
	DD	021d97H
	DD	021da5H
	DD	021db7H
	DD	021dbbH
	DD	021de7H
	DD	021debH
	DD	021df3H
	DD	021e0bH
	DD	021e29H
	DD	021e2dH
	DD	021e2fH
	DD	021e45H
	DD	021e4dH
	DD	021e59H
	DD	021e6fH
	DD	021e75H
	DD	021e83H
	DD	021e89H
	DD	021e8dH
	DD	021e93H
	DD	021ea5H
	DD	021eabH
	DD	021eb9H
	DD	021ecfH
	DD	021ed7H
	DD	021ee1H
	DD	021f0dH
	DD	021f19H
	DD	021f3bH
	DD	021f47H
	DD	021f53H
	DD	021f65H
	DD	021f71H
	DD	021f73H
	DD	021f7dH
	DD	021fa1H
	DD	021fa9H
	DD	021fb3H
	DD	021fbfH
	DD	021fc1H
	DD	021fe9H
	DD	022003H
	DD	022009H
	DD	02201bH
	DD	022021H
	DD	022025H
	DD	022027H
	DD	02202dH
	DD	022031H
	DD	022045H
	DD	02204bH
	DD	02204fH
	DD	022061H
	DD	022067H
	DD	022069H
	DD	02207bH
	DD	022081H
	DD	022085H
	DD	022091H
	DD	02209fH
	DD	0220a5H
	DD	0220afH
	DD	0220c1H
	DD	0220c3H
	DD	0220dbH
	DD	0220dfH
	DD	0220e5H
	DD	0220edH
	DD	0220f7H
	DD	022111H
	DD	02211bH
	DD	022133H
	DD	022145H
	DD	022147H
	DD	02214dH
	DD	022159H
	DD	022163H
	DD	02216bH
	DD	02218dH
	DD	02218fH
	DD	0221a1H
	DD	0221b1H
	DD	0221b7H
	DD	0221bdH
	DD	0221c9H
	DD	0221d1H
	DD	0221dbH
	DD	0221e3H
	DD	0221e9H
	DD	0221efH
	DD	02220bH
	DD	022219H
	DD	022225H
	DD	022237H
	DD	02223dH
	DD	022255H
	DD	02225fH
	DD	02226bH
	DD	022273H
	DD	02227dH
	DD	022283H
	DD	022291H
	DD	0222a3H
	DD	0222a7H
	DD	0222bfH
	DD	0222c1H
	DD	0222cdH
	DD	0222d3H
	DD	0222d7H
	DD	0222dfH
	DD	0222e9H
	DD	022315H
	DD	022319H
	DD	022325H
	DD	022327H
	DD	02234fH
	DD	02235bH
	DD	02236fH
	DD	02237fH
	DD	022387H
	DD	02238bH
	DD	022391H
	DD	02239fH
	DD	0223a5H
	DD	0223afH
	DD	0223bdH
	DD	0223c3H
	DD	0223cdH
	DD	0223d9H
	DD	0223e7H
	DD	0223edH
	DD	0223f9H
	DD	022409H
	DD	02241dH
	DD	022421H
	DD	02242dH
	DD	022433H
	DD	02243fH
	DD	02244bH
	DD	02245dH
	DD	022471H
	DD	022477H
	DD	02247bH
	DD	022481H
	DD	022483H
	DD	022487H
	DD	02249bH
	DD	0224a1H
	DD	0224a5H
	DD	0224b9H
	DD	0224bdH
	DD	0224e9H
	DD	0224efH
	DD	0224f5H
	DD	022505H
	DD	022507H
	DD	02250dH
	DD	02252bH
	DD	022531H
	DD	02253bH
	DD	022543H
	DD	022549H
	DD	022553H
	DD	022555H
	DD	02255fH
	DD	022573H
	DD	022577H
	DD	022585H
	DD	022589H
	DD	02258bH
	DD	022591H
	DD	0225adH
	DD	0225b9H
	DD	0225bbH
	DD	0225c5H
	DD	0225d7H
	DD	0225d9H
	DD	0225e5H
	DD	0225ebH
	DD	0225fdH
	DD	02260dH
	DD	02261bH
	DD	02261fH
	DD	022625H
	DD	022627H
	DD	02263fH
	DD	022643H
	DD	022645H
	DD	02265bH
	DD	02265dH
	DD	022661H
	DD	02266dH
	DD	022681H
	DD	02268bH
	DD	0226b1H
	DD	0226b7H
	DD	0226bdH
	DD	0226dfH
	DD	0226f1H
	DD	022705H
	DD	02270bH
	DD	022711H
	DD	022717H
	DD	02272dH
	DD	022733H
	DD	022741H
	DD	02274bH
	DD	022765H
	DD	022769H
	DD	02277bH
	DD	02277dH
	DD	02278fH
	DD	022799H
	DD	0227a5H
	DD	0227a7H
	DD	0227b1H
	DD	0227b9H
	DD	0227c9H
	DD	0227cfH
	DD	0227d5H
	DD	0227ddH
	DD	0227e3H
	DD	0227f5H
	DD	0227fbH
	DD	0227ffH
	DD	022807H
	DD	022829H
	DD	02282fH
	DD	02283bH
	DD	022855H
	DD	02285bH
	DD	022865H
	DD	02287fH
	DD	022883H
	DD	022895H
	DD	0228a9H
	DD	0228b9H
	DD	0228bbH
	DD	0228c5H
	DD	0228c7H
	DD	0228d9H
	DD	0228e3H
	DD	0228efH
	DD	022913H
	DD	022921H
	DD	02292dH
	DD	022933H
	DD	022937H
	DD	02293dH
	DD	022945H
	DD	022951H
	DD	022955H
	DD	022963H
	DD	022967H
	DD	02296dH
	DD	02296fH
	DD	022979H
	DD	022981H
	DD	02298bH
	DD	02298dH
	DD	022997H
	DD	0229a3H
	DD	0229c1H
	DD	0229c7H
	DD	0229c9H
	DD	0229cdH
	DD	0229e1H
	DD	0229ebH
	DD	0229f3H
	DD	022a05H
	DD	022a09H
	DD	022a1bH
	DD	022a1dH
	DD	022a27H
	DD	022a2fH
	DD	022a53H
	DD	022a5dH
	DD	022a6bH
	DD	022a71H
	DD	022a75H
	DD	022a87H
	DD	022a89H
	DD	022a93H
	DD	022aa7H
	DD	022ab7H
	DD	022ac3H
	DD	022acfH
	DD	022ad7H
	DD	022ae1H
	DD	022ae9H
	DD	022aedH
	DD	022af3H
	DD	022b11H
	DD	022b13H
	DD	022b1fH
	DD	022b2bH
	DD	022b47H
	DD	022b4dH
	DD	022b4fH
	DD	022b59H
	DD	022b67H
	DD	022b6dH
	DD	022b71H
	DD	022b83H
	DD	022b89H
	DD	022b8fH
	DD	022b97H
	DD	022b9dH
	DD	022bbfH
	DD	022bd9H
	DD	022befH
	DD	022bf7H
	DD	022c15H
	DD	022c21H
	DD	022c2dH
	DD	022c37H
	DD	022c43H
	DD	022c55H
	DD	022c5bH
	DD	022c61H
	DD	022c75H
	DD	022c85H
	DD	022ca5H
	DD	022cc1H
	DD	022cc9H
	DD	022ccfH
	DD	022cd3H
	DD	022cd9H
	DD	022cdfH
	DD	022ce7H
	DD	022cedH
	DD	022cfdH
	DD	022cffH
	DD	022d09H
	DD	022d0fH
	DD	022d11H
	DD	022d1bH
	DD	022d41H
	DD	022d51H
	DD	022d69H
	DD	022d6bH
	DD	022d77H
	DD	022d8dH
	DD	022da5H
	DD	022da7H
	DD	022db3H
	DD	022dc3H
	DD	022dc5H
	DD	022dcfH
	DD	022ddbH
	DD	022df5H
	DD	022df9H
	DD	022e13H
	DD	022e17H
	DD	022e19H
	DD	022e31H
	DD	022e37H
	DD	022e3bH
	DD	022e5bH
	DD	022e65H
	DD	022e73H
	DD	022e79H
	DD	022e7dH
	DD	022e83H
	DD	022e85H
	DD	022e91H
	DD	022ecdH
	DD	022ed7H
	DD	022ef5H
	DD	022f03H
	DD	022f07H
	DD	022f09H
	DD	022f21H
	DD	022f25H
	DD	022f37H
	DD	022f49H
	DD	022f5dH
	DD	022f87H
	DD	022f8bH
	DD	022f91H
	DD	022f99H
	DD	022f9dH
	DD	022f9fH
	DD	022fb1H
	DD	022fb7H
	DD	022fbbH
	DD	022fe1H
	DD	022fe5H
	DD	022ffdH
	DD	02301bH
	DD	023029H
	DD	023035H
	DD	02303bH
	DD	023053H
	DD	023065H
	DD	02306bH
	DD	023075H
	DD	02307bH
	DD	023081H
	DD	02308dH
	DD	02308fH
	DD	023095H
	DD	023099H
	DD	02309fH
	DD	0230a7H
	DD	0230b1H
	DD	0230bfH
	DD	0230cfH
	DD	0230d1H
	DD	0230d5H
	DD	0230e9H
	DD	0230f9H
	DD	023101H
	DD	02310dH
	DD	023123H
	DD	023125H
	DD	023135H
	DD	02313dH
	DD	023147H
	DD	023153H
	DD	02315fH
	DD	023167H
	DD	023171H
	DD	02317fH
	DD	0231a3H
	DD	0231afH
	DD	0231b5H
	DD	0231bfH
	DD	0231c5H
	DD	0231cdH
	DD	0231d3H
	DD	0231d7H
	DD	0231d9H
	DD	023201H
	DD	023207H
	DD	023209H
	DD	023225H
	DD	02324bH
	DD	023251H
	DD	023263H
	DD	023269H
	DD	02326dH
	DD	02327fH
	DD	02328dH
	DD	02329fH
	DD	0232a5H
	DD	0232bdH
	DD	0232c7H
	DD	0232c9H
	DD	0232e7H
	DD	02330bH
	DD	023321H
	DD	023323H
	DD	023327H
	DD	023329H
	DD	02332dH
	DD	02334bH
	DD	02335fH
	DD	023371H
	DD	023377H
	DD	02337dH
	DD	023383H
	DD	02338fH
	DD	0233a1H
	DD	0233abH
	DD	0233b3H
	DD	0233b7H
	DD	0233c3H
	DD	0233d5H
	DD	0233ddH
	DD	0233fbH
	DD	0233ffH
	DD	023417H
	DD	023419H
	DD	02341dH
	DD	02342bH
	DD	023437H
	DD	023443H
	DD	02344dH
	DD	02345fH
	DD	023461H
	DD	023471H
	DD	02347fH
	DD	02349bH
	DD	02349dH
	DD	0234b3H
	DD	0234b9H
	DD	0234c1H
	DD	0234c7H
	DD	0234cdH
	DD	0234d1H
	DD	0234e3H
	DD	0234f5H
	DD	023513H
	DD	02351bH
	DD	02351fH
	DD	02353dH
	DD	023545H
	DD	02354fH
	DD	02355bH
	DD	023561H
	DD	02356fH
	DD	023575H
	DD	02357bH
	DD	023585H
	DD	02358bH
	DD	023597H
	DD	0235b1H
	DD	0235bdH
	DD	0235c7H
	DD	0235cfH
	DD	0235f3H
	DD	0235f7H
	DD	0235f9H
	DD	023603H
	DD	023615H
	DD	023623H
	DD	02362dH
	DD	023641H
	DD	023647H
	DD	02364dH
	DD	023657H
	DD	02366fH
	DD	023671H
	DD	02367dH
	DD	023687H
	DD	02368dH
	DD	023693H
	DD	0236a7H
	DD	0236adH
	DD	0236c3H
	DD	0236d5H
	DD	0236e1H
	DD	0236edH
	DD	0236f3H
	DD	023719H
	DD	023729H
	DD	023737H
	DD	02373dH
	DD	023743H
	DD	023765H
	DD	02376bH
	DD	023773H
	DD	023783H
	DD	023789H
	DD	023797H
	DD	02379bH
	DD	0237c5H
	DD	0237d1H
	DD	0237e5H
	DD	0237efH
	DD	0237f7H
	DD	023809H
	DD	02380fH
	DD	023819H
	DD	023821H
	DD	02382bH
	DD	023833H
	DD	023837H
	DD	02383fH
	DD	023845H
	DD	02384fH
	DD	02385dH
	DD	023867H
	DD	023869H
	DD	02386dH
	DD	02387bH
	DD	023887H
	DD	02388bH
	DD	02388dH
	DD	0238a9H
	DD	0238b5H
	DD	0238c1H
	DD	0238c3H
	DD	0238e1H
	DD	0238e5H
	DD	0238ebH
	DD	0238fdH
	DD	02390fH
	DD	023911H
	DD	023917H
	DD	023927H
	DD	02392dH
	DD	023939H
	DD	02393bH
	DD	023959H
	DD	02395dH
	DD	02395fH
	DD	02396bH
	DD	023971H
	DD	023987H
	DD	02398fH
	DD	02399bH
	DD	02399fH
	DD	0239a5H
	DD	0239c5H
	DD	0239d7H
	DD	0239e9H
	DD	0239efH
	DD	023a0bH
	DD	023a0dH
	DD	023a1dH
	DD	023a2bH
	DD	023a2fH
	DD	023a31H
	DD	023a43H
	DD	023a47H
	DD	023a59H
	DD	023a5bH
	DD	023a65H
	DD	023a67H
	DD	023a71H
	DD	023a83H
	DD	023a89H
	DD	023a8bH
	DD	023a8fH
	DD	023a9dH
	DD	023aadH
	DD	023ab3H
	DD	023ac5H
	DD	023addH
	DD	023af1H
	DD	023afdH
	DD	023b0fH
	DD	023b15H
	DD	023b1bH
	DD	023b25H
	DD	023b2dH
	DD	023b3fH
	DD	023b49H
	DD	023b61H
	DD	023b73H
	DD	023b79H
	DD	023b7bH
	DD	023b85H
	DD	023b8dH
	DD	023b93H
	DD	023babH
	DD	023bb7H
	DD	023bc1H
	DD	023bcdH
	DD	023bcfH
	DD	023bd5H
	DD	023be7H
	DD	023bf1H
	DD	023bf7H
	DD	023c05H
	DD	023c11H
	DD	023c2dH
	DD	023c51H
	DD	023c57H
	DD	023c59H
	DD	023c5fH
	DD	023c6bH
	DD	023c6fH
	DD	023c83H
	DD	023c95H
	DD	023cabH
	DD	023cb1H
	DD	023cb9H
	DD	023ccfH
	DD	023cd7H
	DD	023cedH
	DD	023cf5H
	DD	023cf9H
	DD	023cfbH
	DD	023d0dH
	DD	023d1fH
	DD	023d37H
	DD	023d3dH
	DD	023d4fH
	DD	023d59H
	DD	023d71H
	DD	023d77H
	DD	023d83H
	DD	023d91H
	DD	023d95H
	DD	023d9bH
	DD	023da1H
	DD	023da9H
	DD	023dcbH
	DD	023dcdH
	DD	023de5H
	DD	023de9H
	DD	023df5H
	DD	023dfdH
	DD	023e09H
	DD	023e21H
	DD	023e27H
	DD	023e2bH
	DD	023e2dH
	DD	023e43H
	DD	023e55H
	DD	023e57H
	DD	023e67H
	DD	023e81H
	DD	023e8bH
	DD	023e91H
	DD	023e99H
	DD	023ea3H
	DD	023ec1H
	DD	023ec3H
	DD	023ecfH
	DD	023edbH
	DD	023eebH
	DD	023efdH
	DD	023f09H
	DD	023f0bH
	DD	023f15H
	DD	023f1bH
	DD	023f1dH
	DD	023f35H
	DD	023f3fH
	DD	023f53H
	DD	023f59H
	DD	023f5dH
	DD	023f63H
	DD	023f6fH
	DD	023f77H
	DD	023f83H
	DD	023f8dH
	DD	023f93H
	DD	023f99H
	DD	023fb1H
	DD	023fbfH
	DD	023fc5H
	DD	023fc9H
	DD	023fd1H
	DD	023fdbH
	DD	023ff9H
	DD	023ffbH
	DD	024001H
	DD	024019H
	DD	02401fH
	DD	02402fH
	DD	02403dH
	DD	024055H
	DD	02405bH
	DD	02405fH
	DD	024065H
	DD	024073H
	DD	02407fH
	DD	024097H
	DD	02409dH
	DD	0240a1H
	DD	0240adH
	DD	0240bfH
	DD	0240cdH
	DD	0240d7H
	DD	0240d9H
	DD	0240e9H
	DD	0240f7H
	DD	0240fdH
	DD	02410fH
	DD	02411bH
	DD	02411fH
	DD	024131H
	DD	024139H
	DD	02413dH
	DD	024143H
	DD	02414bH
	DD	024151H
	DD	024157H
	DD	024163H
	DD	024173H
	DD	02418dH
	DD	024193H
	DD	024197H
	DD	0241a9H
	DD	0241cfH
	DD	0241e1H
	DD	0241edH
	DD	024209H
	DD	02421dH
	DD	02422dH
	DD	024235H
	DD	02425dH
	DD	02425fH
	DD	024269H
	DD	02426fH
	DD	02427bH
	DD	02429bH
	DD	0242abH
	DD	0242b3H
	DD	0242b7H
	DD	0242b9H
	DD	0242bdH
	DD	0242cbH
	DD	0242e1H
	DD	0242e7H
	DD	0242e9H
	DD	0242efH
	DD	024305H
	DD	024313H
	DD	024319H
	DD	024337H
	DD	02434dH
	DD	02434fH
	DD	02436bH
	DD	024373H
	DD	024389H
	DD	02438fH
	DD	02439dH
	DD	0243a3H
	DD	0243afH
	DD	0243b3H
	DD	0243bbH
	DD	0243cdH
	DD	0243d7H
	DD	0243e9H
	DD	0243f5H
	DD	0243f7H
	DD	024403H
	DD	024415H
	DD	024421H
	DD	024425H
	DD	024433H
	DD	024439H
	DD	024445H
	DD	02445dH
	DD	024463H
	DD	024481H
	DD	024493H
	DD	024499H
	DD	02449fH
	DD	0244b7H
	DD	0244bbH
	DD	0244bdH
	DD	0244d3H
	DD	0244d5H
	DD	0244e7H
	DD	0244f1H
	DD	0244f3H
	DD	0244f7H
	DD	02450bH
	DD	02451bH
	DD	02452dH
	DD	02452fH
	DD	024539H
	DD	024551H
	DD	02455dH
	DD	024575H
	DD	02457bH
	DD	02457dH
	DD	024583H
	DD	024589H
	DD	02459bH
	DD	0245b1H
	DD	0245b9H
	DD	0245bfH
	DD	0245c3H
	DD	0245c5H
	DD	0245d5H
	DD	0245ddH
	DD	0245e1H
	DD	0245ffH
	DD	024605H
	DD	024613H
	DD	02461dH
	DD	024623H
	DD	024629H
	DD	02463dH
	DD	024641H
	DD	024643H
	DD	02464dH
	DD	024655H
	DD	02465fH
	DD	02466bH
	DD	02466dH
	DD	024677H
	DD	024679H
	DD	02467fH
	DD	024697H
	DD	0246a1H
	DD	0246a7H
	DD	0246a9H
	DD	0246b5H
	DD	0246bfH
	DD	0246cdH
	DD	0246ddH
	DD	0246f7H
	DD	024701H
	DD	024703H
	DD	024709H
	DD	024715H
	DD	024727H
	DD	024731H
	DD	02473dH
	DD	02474bH
	DD	024755H
	DD	02475dH
	DD	024767H
	DD	02477bH
	DD	024781H
	DD	024785H
	DD	024791H
	DD	024797H
	DD	0247a3H
	DD	0247a9H
	DD	0247abH
	DD	0247afH
	DD	0247c1H
	DD	0247d3H
	DD	0247f1H
	DD	0247f3H
	DD	0247f9H
	DD	0247ffH
	DD	02480fH
	DD	024811H
	DD	02481bH
	DD	02481dH
	DD	024827H
	DD	02482fH
	DD	024839H
	DD	02483bH
	DD	02484bH
	DD	024863H
	DD	024877H
	DD	02487bH
	DD	02487dH
	DD	0248b9H
	DD	0248cfH
	DD	0248d1H
	DD	0248d5H
	DD	0248e1H
	DD	0248e3H
	DD	0248f5H
	DD	0248ffH
	DD	024907H
	DD	02490bH
	DD	02491fH
	DD	02492bH
	DD	024943H
	DD	02494dH
	DD	02494fH
	DD	024965H
	DD	02496bH
	DD	024971H
	DD	024985H
	DD	02498bH
	DD	024995H
	DD	024997H
	DD	0249a1H
	DD	0249b3H
	DD	0249c1H
	DD	0249d1H
	DD	0249d3H
	DD	0249e9H
	DD	0249f1H
	DD	0249fbH
	DD	024a19H
	DD	024a25H
	DD	024a2dH
	DD	024a33H
	DD	024a3dH
	DD	024a43H
	DD	024a49H
	DD	024a4bH
	DD	024a51H
	DD	024a5bH
	DD	024a73H
	DD	024a87H
	DD	024a99H
	DD	024ab1H
	DD	024ab5H
	DD	024abbH
	DD	024ac1H
	DD	024ac3H
	DD	024ac9H
	DD	024acdH
	DD	024acfH
	DD	024adfH
	DD	024ae7H
	DD	024b0fH
	DD	024b1bH
	DD	024b1dH
	DD	024b33H
	DD	024b39H
	DD	024b47H
	DD	024b65H
	DD	024b69H
	DD	024b6bH
	DD	024b6fH
	DD	024b81H
	DD	024b87H
	DD	024b8dH
	DD	024b9bH
	DD	024b9fH
	DD	024ba7H
	DD	024bc9H
	DD	024be1H
	DD	024be7H
	DD	024bf5H
	DD	024bfbH
	DD	024c05H
	DD	024c17H
	DD	024c1fH
	DD	024c2bH
	DD	024c37H
	DD	024c3bH
	DD	024c3dH
	DD	024c4fH
	DD	024c53H
	DD	024c59H
	DD	024c79H
	DD	024c83H
	DD	024ca9H
	DD	024cb3H
	DD	024cc1H
	DD	024cd7H
	DD	024cefH
	DD	024cf1H
	DD	024cfbH
	DD	024d07H
	DD	024d0dH
	DD	024d2bH
	DD	024d31H
	DD	024d3fH
	DD	024d55H
	DD	024d61H
	DD	024d63H
	DD	024d69H
	DD	024d6dH
	DD	024d75H
	DD	024d7bH
	DD	024d87H
	DD	024d91H
	DD	024dafH
	DD	024db1H
	DD	024db7H
	DD	024dc3H
	DD	024dcdH
	DD	024dcfH
	DD	024ddfH
	DD	024de1H
	DD	024de5H
	DD	024df3H
	DD	024e09H
	DD	024e0bH
	DD	024e11H
	DD	024e33H
	DD	024e51H
	DD	024e65H
	DD	024e71H
	DD	024e75H
	DD	024e7bH
	DD	024e81H
	DD	024e83H
	DD	024e95H
	DD	024ea1H
	DD	024eadH
	DD	024ec5H
	DD	024ec9H
	DD	024ecbH
	DD	024ecfH
	DD	024ed5H
	DD	024ee9H
	DD	024eefH
	DD	024ef9H
	DD	024f07H
	DD	024f29H
	DD	024f2bH
	DD	024f2fH
	DD	024f3dH
	DD	024f53H
	DD	024f55H
	DD	024f5fH
	DD	024f65H
	DD	024f7fH
	DD	024f85H
	DD	024f89H
	DD	024f9bH
	DD	024fafH
	DD	024fb5H
	DD	024fbbH
	DD	024fcbH
	DD	024fd3H
	DD	024fddH
	DD	024fe3H
	DD	024febH
	DD	024ff1H
	DD	024ffdH
	DD	025001H
	DD	025009H
	DD	025015H
	DD	02501bH
	DD	02502dH
	DD	025033H
	DD	025037H
	DD	025039H
	DD	02504fH
	DD	025055H
	DD	02505bH
	DD	025063H
	DD	025073H
	DD	025079H
	DD	025081H
	DD	025087H
	DD	02508dH
	DD	025097H
	DD	0250a5H
	DD	0250b1H
	DD	0250b5H
	DD	0250d9H
	DD	0250dbH
	DD	0250e7H
	DD	0250ebH
	DD	0250f7H
	DD	025105H
	DD	025109H
	DD	025121H
	DD	025127H
	DD	025129H
	DD	02513fH
	DD	02514bH
	DD	025159H
	DD	02515dH
	DD	02515fH
	DD	025165H
	DD	025181H
	DD	025183H
	DD	02519fH
	DD	0251a1H
	DD	0251c3H
	DD	0251d1H
	DD	0251dbH
	DD	0251ddH
	DD	0251e7H
	DD	0251e9H
	DD	0251ffH
	DD	02520dH
	DD	025211H
	DD	025213H
	DD	02521dH
	DD	02522fH
	DD	02523bH
	DD	025253H
	DD	025277H
	DD	02527dH
	DD	025285H
	DD	02528bH
	DD	025295H
	DD	02529bH
	DD	0252a7H
	DD	0252afH
	DD	0252b9H
	DD	0252cbH
	DD	0252dfH
	DD	0252e5H
	DD	0252e9H
	DD	0252f7H
	DD	02532bH
	DD	025339H
	DD	02533dH
	DD	025345H
	DD	025349H
	DD	025357H
	DD	025361H
	DD	025363H
	DD	025367H
	DD	02536dH
	DD	025379H
	DD	02537bH
	DD	02538bH
	DD	02538dH
	DD	0253b5H
	DD	0253c7H
	DD	0253d3H
	DD	0253d5H
	DD	0253dbH
	DD	0253f3H
	DD	0253f7H
	DD	025415H
	DD	025417H
	DD	025429H
	DD	02542fH
	DD	025435H
	DD	02543fH
	DD	025441H
	DD	025451H
	DD	02545fH
	DD	025469H
	DD	02548dH
	DD	025493H
	DD	025499H
	DD	0254b1H
	DD	0254bfH
	DD	0254c9H
	DD	0254cfH
	DD	0254d7H
	DD	0254e9H
	DD	0254f3H
	DD	0254f5H
	DD	025501H
	DD	025505H
	DD	025507H
	DD	02550bH
	DD	025513H
	DD	025519H
	DD	02552fH
	DD	025541H
	DD	025543H
	DD	02554dH
	DD	02556bH
	DD	02556dH
	DD	025573H
	DD	025579H
	DD	02557fH
	DD	025595H
	DD	02559dH
	DD	0255a1H
	DD	0255a9H
	DD	0255e3H
	DD	0255ebH
	DD	0255efH
	DD	0255f1H
	DD	0255f5H
	DD	025601H
	DD	025613H
	DD	025619H
	DD	02562dH
	DD	025631H
	DD	02563fH
	DD	025667H
	DD	02569fH
	DD	0256abH
	DD	0256b5H
	DD	0256b7H
	DD	0256bdH
	DD	0256c1H
	DD	0256c7H
	DD	0256e1H
	DD	0256e7H
	DD	0256f9H
	DD	0256ffH
	DD	025709H
	DD	02570fH
	DD	02571bH
	DD	025723H
	DD	02573fH
	DD	025741H
	DD	02574dH
	DD	025753H
	DD	02575dH
	DD	025763H
	DD	025769H
	DD	025771H
	DD	02577dH
	DD	02578fH
	DD	02579bH
	DD	0257a5H
	DD	0257a7H
	DD	0257b1H
	DD	0257b3H
	DD	0257b9H
	DD	0257bdH
	DD	0257d5H
	DD	0257dbH
	DD	0257f5H
	DD	025807H
	DD	02580bH
	DD	025817H
	DD	025829H
	DD	025831H
	DD	025859H
	DD	025865H
	DD	025877H
	DD	025885H
	DD	02588bH
	DD	02588fH
	DD	025895H
	DD	02589dH
	DD	0258a3H
	DD	0258d9H
	DD	0258f1H
	DD	02590fH
	DD	025915H
	DD	02591fH
	DD	025921H
	DD	025937H
	DD	025939H
	DD	025949H
	DD	025955H
	DD	02595bH
	DD	02595dH
	DD	025961H
	DD	025987H
	DD	02598dH
	DD	025991H
	DD	0259abH
	DD	0259bbH
	DD	0259c9H
	DD	0259cdH
	DD	0259d3H
	DD	0259d9H
	DD	0259dfH
	DD	0259e1H
	DD	0259e7H
	DD	0259f1H
	DD	0259ffH
	DD	025a0fH
	DD	025a29H
	DD	025a2dH
	DD	025a2fH
	DD	025a45H
	DD	025a47H
	DD	025a63H
	DD	025a65H
	DD	025a75H
	DD	025a83H
	DD	025a87H
	DD	025a9bH
	DD	025aa5H
	DD	025aa7H
	DD	025ab3H
	DD	025abfH
	DD	025ac9H
	DD	025ad1H
	DD	025addH
	DD	025ae3H
	DD	025aefH
	DD	025b01H
	DD	025b05H
	DD	025b13H
	DD	025b29H
	DD	025b31H
	DD	025b37H
	DD	025b47H
	DD	025b5bH
	DD	025b77H
	DD	025b7dH
	DD	025b85H
	DD	025b9bH
	DD	025bafH
	DD	025bcbH
	DD	025bcdH
	DD	025bd3H
	DD	025bddH
	DD	025bdfH
	DD	025bf5H
	DD	025bfbH
	DD	025bfdH
	DD	025c13H
	DD	025c2bH
	DD	025c2dH
	DD	025c39H
	DD	025c43H
	DD	025c4bH
	DD	025c63H
	DD	025c67H
	DD	025c6dH
	DD	025c7bH
	DD	025c81H
	DD	025c91H
	DD	025ca3H
	DD	025ca5H
	DD	025cafH
	DD	025cb7H
	DD	025cc7H
	DD	025cd9H
	DD	025ce1H
	DD	025cf7H
	DD	025cf9H
	DD	025cfdH
	DD	025d03H
	DD	025d11H
	DD	025d2fH
	DD	025d35H
	DD	025d39H
	DD	025d3fH
	DD	025d65H
	DD	025d6fH
	DD	025d7bH
	DD	025d81H
	DD	025d89H
	DD	025d93H
	DD	025da7H
	DD	025dbdH
	DD	025dc9H
	DD	025dcbH
	DD	025dcfH
	DD	025defH
	DD	025e01H
	DD	025e11H
	DD	025e19H
	DD	025e1fH
	DD	025e23H
	DD	025e37H
	DD	025e41H
	DD	025e43H
	DD	025e49H
	DD	025e53H
	DD	025e5fH
	DD	025e73H
	DD	025e85H
	DD	025e9bH
	DD	025ea3H
	DD	025ea7H
	DD	025eb5H
	DD	025ebfH
	DD	025ec5H
	DD	025eebH
	DD	025ef1H
	DD	025ef5H
	DD	025ef7H
	DD	025efbH
	DD	025f07H
	DD	025f15H
	DD	025f1fH
	DD	025f33H
	DD	025f3dH
	DD	025f45H
	DD	025f51H
	DD	025f6dH
	DD	025f75H
	DD	025f81H
	DD	025f91H
	DD	025f93H
	DD	025fa5H
	DD	025fb1H
	DD	025fbbH
	DD	025fbdH
	DD	025fc9H
	DD	025fcfH
	DD	025fd9H
	DD	025fe5H
	DD	025febH
	DD	026005H
	DD	026009H
	DD	02600fH
	DD	026017H
	DD	026029H
	DD	02602dH
	DD	026033H
	DD	02603bH
	DD	026045H
	DD	026047H
	DD	02604bH
	DD	026053H
	DD	02605dH
	DD	026063H
	DD	02607dH
	DD	026081H
	DD	026087H
	DD	026095H
	DD	026099H
	DD	0260a1H
	DD	0260adH
	DD	0260b9H
	DD	0260c9H
	DD	0260cbH
	DD	0260d5H
	DD	0260d7H
	DD	0260efH
	DD	0260f3H
	DD	0260f5H
	DD	026111H
	DD	026167H
	DD	02616bH
	DD	026173H
	DD	026189H
	DD	02619bH
	DD	02619dH
	DD	0261a7H
	DD	0261b9H
	DD	0261cdH
	DD	0261d7H
	DD	0261dfH
	DD	0261e3H
	DD	0261ebH
	DD	0261f7H
	DD	0261fdH
	DD	026239H
	DD	026243H
	DD	026245H
	DD	026251H
	DD	02625dH
	DD	026261H
	DD	026263H
	DD	02626dH
	DD	026293H
	DD	02629fH
	DD	0262a9H
	DD	0262bbH
	DD	0262c1H
	DD	0262c9H
	DD	0262d3H
	DD	026303H
	DD	026305H
	DD	026315H
	DD	026333H
	DD	026347H
	DD	02634bH
	DD	02634dH
	DD	02635fH
	DD	026369H
	DD	02637bH
	DD	0263a1H
	DD	0263adH
	DD	0263b1H
	DD	0263b9H
	DD	0263cbH
	DD	0263cfH
	DD	0263d7H
	DD	0263e1H
	DD	0263f3H
	DD	0263ffH
	DD	026405H
	DD	026407H
	DD	02640bH
	DD	026413H
	DD	02641fH
	DD	026423H
	DD	02642fH
	DD	026437H
	DD	02643dH
	DD	02644dH
	DD	02646dH
	DD	02647dH
	DD	02647fH
	DD	026491H
	DD	026497H
	DD	0264a1H
	DD	0264a9H
	DD	0264d7H
	DD	0264e3H
	DD	0264e5H
	DD	0264f1H
	DD	02650dH
	DD	02650fH
	DD	026527H
	DD	02652bH
	DD	026533H
	DD	02654fH
	DD	026555H
	DD	02655bH
	DD	02656dH
	DD	026579H
	DD	02657bH
	DD	026581H
	DD	026585H
	DD	026599H
	DD	0265afH
	DD	0265b5H
	DD	0265c7H
	DD	0265cdH
	DD	0265d5H
	DD	0265ebH
	DD	0265f9H
	DD	0265fdH
	DD	026605H
	DD	026617H
	DD	02661bH
	DD	026621H
	DD	026623H
	DD	02662dH
	DD	02662fH
	DD	02663bH
	DD	02663fH
	DD	026645H
	DD	02664bH
	DD	026657H
	DD	026659H
	DD	02665dH
	DD	02665fH
	DD	02666bH
	DD	026677H
	DD	02667bH
	DD	026689H
	DD	02668fH
	DD	0266a5H
	DD	0266a7H
	DD	0266b3H
	DD	0266d1H
	DD	0266e3H
	DD	0266f3H
	DD	0266f5H
	DD	0266f9H
	DD	026711H
	DD	026725H
	DD	02672bH
	DD	026731H
	DD	026749H
	DD	02674fH
	DD	026753H
	DD	026767H
	DD	026777H
	DD	026779H
	DD	026783H
	DD	02678bH
	DD	0267bbH
	DD	0267c5H
	DD	0267c7H
	DD	0267d1H
	DD	0267e3H
	DD	0267e5H
	DD	0267efH
	DD	026819H
	DD	026825H
	DD	02682bH
	DD	026833H
	DD	026849H
	DD	02684bH
	DD	026861H
	DD	026867H
	DD	026875H
	DD	02687fH
	DD	026887H
	DD	02688dH
	DD	026891H
	DD	0268abH
	DD	0268b5H
	DD	0268c1H
	DD	0268c9H
	DD	0268cdH
	DD	0268d3H
	DD	0268ebH
	DD	0268edH
	DD	0268ffH
	DD	026927H
	DD	02692fH
	DD	026933H
	DD	026939H
	DD	026941H
	DD	02694dH
	DD	02695fH
	DD	026977H
	DD	02697dH
	DD	0269a1H
	DD	0269b1H
	DD	0269bdH
	DD	0269bfH
	DD	0269d1H
	DD	0269edH
	DD	0269f9H
	DD	026a01H
	DD	026a13H
	DD	026a17H
	DD	026a19H
	DD	026a23H
	DD	026a35H
	DD	026a3dH
	DD	026a55H
	DD	026a5fH
	DD	026a79H
	DD	026a85H
	DD	026a8fH
	DD	026a95H
	DD	026a97H
	DD	026a9bH
	DD	026aa3H
	DD	026ab9H
	DD	026ac7H
	DD	026ad3H
	DD	026addH
	DD	026aebH
	DD	026af1H
	DD	026b19H
	DD	026b2bH
	DD	026b37H
	DD	026b3fH
	DD	026b49H
	DD	026b57H
	DD	026b63H
	DD	026b67H
	DD	026b6dH
	DD	026b75H
	DD	026b7fH
	DD	026b85H
	DD	026b93H
	DD	026b99H
	DD	026b9dH
	DD	026ba9H
	DD	026bb7H
	DD	026bc1H
	DD	026bc7H
	DD	026bebH
	DD	026c0bH
	DD	026c1bH
	DD	026c1dH
	DD	026c27H
	DD	026c29H
	DD	026c33H
	DD	026c39H
	DD	026c47H
	DD	026c53H
	DD	026c7bH
	DD	026c81H
	DD	026c8fH
	DD	026c93H
	DD	026ca1H
	DD	026cbdH
	DD	026ccbH
	DD	026ccfH
	DD	026cddH
	DD	026cefH
	DD	026d05H
	DD	026d11H
	DD	026d25H
	DD	026d29H
	DD	026d2fH
	DD	026d53H
	DD	026d61H
	DD	026d67H
	DD	026d79H
	DD	026d89H
	DD	026d8fH
	DD	026db5H
	DD	026db9H
	DD	026dbfH
	DD	026dc1H
	DD	026dcbH
	DD	026dd7H
	DD	026dd9H
	DD	026ddfH
	DD	026de9H
	DD	026df7H
	DD	026dfbH
	DD	026e01H
	DD	026e37H
	DD	026e3dH
	DD	026e4fH
	DD	026e57H
	DD	026e69H
	DD	026e73H
	DD	026e75H
	DD	026e81H
	DD	026e9dH
	DD	026eabH
	DD	026eafH
	DD	026ebdH
	DD	026ec7H
	DD	026ecdH
	DD	026ee1H
	DD	026ee7H
	DD	026eedH
	DD	026ef1H
	DD	026f03H
	DD	026f0bH
	DD	026f0fH
	DD	026f21H
	DD	026f33H
	DD	026f35H
	DD	026f41H
	DD	026f4bH
	DD	026f51H
	DD	026f53H
	DD	026f65H
	DD	026f81H
	DD	026f87H
	DD	026f8dH
	DD	026f8fH
	DD	026fb3H
	DD	026fb7H
	DD	026fb9H
	DD	026fc3H
	DD	026fd1H
	DD	026fd5H
	DD	026fdbH
	DD	026fe9H
	DD	026ff9H
	DD	026ffbH
	DD	027013H
	DD	027019H
	DD	02701dH
	DD	027023H
	DD	02702bH
	DD	02702fH
	DD	027031H
	DD	027037H
	DD	027043H
	DD	027059H
	DD	02705fH
	DD	02706dH
	DD	027071H
	DD	02707dH
	DD	02707fH
	DD	02709bH
	DD	0270a7H
	DD	0270bbH
	DD	0270c1H
	DD	0270e9H
	DD	0270ebH
	DD	027101H
	DD	027109H
	DD	027113H
	DD	02711fH
	DD	027121H
	DD	027131H
	DD	027149H
	DD	02714fH
	DD	027151H
	DD	027157H
	DD	02715bH
	DD	02715dH
	DD	027175H
	DD	02718dH
	DD	02719fH
	DD	0271a3H
	DD	0271a9H
	DD	0271b7H
	DD	0271c9H
	DD	0271cfH
	DD	0271d9H
	DD	0271e7H
	DD	0271f3H
	DD	0271fdH
	DD	027235H
	DD	027239H
	DD	02723fH
	DD	027257H
	DD	027265H
	DD	02726fH
	DD	027275H
	DD	027283H
	DD	02728dH
	DD	027293H
	DD	027299H
	DD	0272a7H
	DD	0272b9H
	DD	0272c5H
	DD	0272e1H
	DD	0272e3H
	DD	0272f3H
	DD	0272fbH
	DD	02731dH
	DD	027329H
	DD	027343H
	DD	027347H
	DD	02734fH
	DD	02735bH
	DD	02736bH
	DD	02736dH
	DD	027373H
	DD	02737dH
	DD	02737fH
	DD	027389H
	DD	02738bH
	DD	027397H
	DD	02739dH
	DD	0273a9H
	DD	0273afH
	DD	0273b9H
	DD	0273c5H
	DD	0273c7H
	DD	0273d3H
	DD	0273e3H
	DD	0273efH
	DD	0273f1H
	DD	0273f5H
	DD	02740dH
	DD	027415H
	DD	027427H
	DD	02742dH
	DD	027431H
	DD	02743dH
	DD	027449H
	DD	02745dH
	DD	02746dH
	DD	02746fH
	DD	027473H
	DD	027487H
	DD	02748bH
	DD	0274a5H
	DD	0274c7H
	DD	0274c9H
	DD	0274d5H
	DD	0274e5H
	DD	0274f1H
	DD	0274f9H
	DD	027509H
	DD	02750fH
	DD	027517H
	DD	02751dH
	DD	027523H
	DD	02752fH
	DD	02753fH
	DD	027545H
	DD	027563H
	DD	027571H
	DD	027575H
	DD	02757dH
	DD	027587H
	DD	02758fH
	DD	0275b1H
	DD	0275c5H
	DD	0275d1H
	DD	0275d5H
	DD	0275efH
	DD	0275f3H
	DD	027601H
	DD	027617H
	DD	02761dH
	DD	02762bH
	DD	027635H
	DD	02763bH
	DD	02763dH
	DD	027653H
	DD	027661H
	DD	02766bH
	DD	02767fH
	DD	027683H
	DD	0276adH
	DD	0276b3H
	DD	0276b5H
	DD	0276bfH
	DD	0276dfH
	DD	0276e3H
	DD	0276f1H
	DD	0276f7H
	DD	0276fbH
	DD	027707H
	DD	027719H
	DD	02771bH
	DD	027721H
	DD	027725H
	DD	027737H
	DD	02773fH
	DD	02774bH
	DD	02775bH
	DD	027767H
	DD	027769H
	DD	02777bH
	DD	027793H
	DD	0277b5H
	DD	0277c1H
	DD	0277c3H
	DD	0277cdH
	DD	0277cfH
	DD	0277d9H
	DD	0277e1H
	DD	0277ebH
	DD	0277edH
	DD	0277f3H
	DD	0277f7H
	DD	02780fH
	DD	027827H
	DD	02782fH
	DD	02784dH
	DD	027851H
	DD	027857H
	DD	027859H
	DD	027877H
	DD	027881H
	DD	027883H
	DD	02789bH
	DD	0278a5H
	DD	0278b1H
	DD	0278b3H
	DD	0278b9H
	DD	0278bfH
	DD	0278cfH
	DD	0278d7H
	DD	0278dbH
	DD	0278e1H
	DD	027905H
	DD	02790bH
	DD	02791fH
	DD	02792bH
	DD	02793dH
	DD	027947H
	DD	02795fH
	DD	0279a1H
	DD	0279adH
	DD	0279b5H
	DD	0279cbH
	DD	0279d1H
	DD	0279d7H
	DD	0279ddH
	DD	0279e5H
	DD	0279efH
	DD	0279f1H
	DD	0279f5H
	DD	027a27H
	DD	027a37H
	DD	027a55H
	DD	027a57H
	DD	027a6dH
	DD	027a73H
	DD	027a87H
	DD	027a93H
	DD	027a99H
	DD	027aa9H
	DD	027abdH
	DD	027ac3H
	DD	027ad5H
	DD	027adbH
	DD	027adfH
	DD	027ae1H
	DD	027af9H
	DD	027afdH
	DD	027b03H
	DD	027b11H
	DD	027b21H
	DD	027b29H
	DD	027b33H
	DD	027b3fH
	DD	027b45H
	DD	027b51H
	DD	027b59H
	DD	027b6fH
	DD	027b75H
	DD	027b7bH
	DD	027b83H
	DD	027b8fH
	DD	027b95H
	DD	027b99H
	DD	027ba7H
	DD	027babH
	DD	027bb3H
	DD	027bbdH
	DD	027bbfH
	DD	027bdbH
	DD	027be3H
	DD	027be7H
	DD	027c05H
	DD	027c07H
	DD	027c0dH
	DD	027c17H
	DD	027c1fH
	DD	027c25H
	DD	027c2bH
	DD	027c41H
	DD	027c49H
	DD	027c55H
	DD	027c5bH
	DD	027c65H
	DD	027c79H
	DD	027c83H
	DD	027c9bH
	DD	027c9dH
	DD	027cadH
	DD	027cb5H
	DD	027cbbH
	DD	027ccbH
	DD	027ccdH
	DD	027cd3H
	DD	027cf5H
	DD	027cf7H
	DD	027d25H
	DD	027d2dH
	DD	027d37H
	DD	027d39H
	DD	027d4bH
	DD	027d4fH
	DD	027d61H
	DD	027d63H
	DD	027d6dH
	DD	027d79H
	DD	027d7fH
	DD	027d8bH
	DD	027d97H
	DD	027dabH
	DD	027db1H
	DD	027dbbH
	DD	027debH
	DD	027dedH
	DD	027df9H
	DD	027dffH
	DD	027e09H
	DD	027e17H
	DD	027e23H
	DD	027e27H
	DD	027e41H
	DD	027e4bH
	DD	027e51H
	DD	027e53H
	DD	027e59H
	DD	027e69H
	DD	027e8dH
	DD	027e95H
	DD	027e99H
	DD	027e9bH
	DD	027e9fH
	DD	027ebdH
	DD	027ed7H
	DD	027ee9H
	DD	027eefH
	DD	027ef5H
	DD	027f11H
	DD	027f1dH
	DD	027f25H
	DD	027f2bH
	DD	027f31H
	DD	027f35H
	DD	027f3bH
	DD	027f4dH
	DD	027f59H
	DD	027f5fH
	DD	027f71H
	DD	027f91H
	DD	027f95H
	DD	027f9dH
	DD	027fa9H
	DD	027fbbH
	DD	027fc5H
	DD	027fcdH
	DD	027fe3H
	DD	027febH
	DD	028001H
	DD	028007H
	DD	02800dH
	DD	028013H
	DD	028015H
	DD	02801fH
	DD	02802bH
	DD	02803dH
	DD	028045H
	DD	028057H
	DD	028085H
	DD	02808bH
	DD	02808dH
	DD	028093H
	DD	028097H
	DD	028099H
	DD	02809dH
	DD	0280abH
	DD	0280b7H
	DD	0280c7H
	DD	0280d3H
	DD	0280d9H
	DD	0280e7H
	DD	0280f9H
	DD	0280fdH
	DD	028111H
	DD	028115H
	DD	028133H
	DD	028135H
	DD	02814dH
	DD	028157H
	DD	02815fH
	DD	028169H
	DD	028171H
	DD	028187H
	DD	028189H
	DD	02818fH
	DD	028199H
	DD	02819bH
	DD	0281abH
	DD	0281b7H
	DD	0281c3H
	DD	0281cbH
	DD	0281d5H
	DD	0281e1H
	DD	0281f5H
	DD	028205H
	DD	02820bH
	DD	028213H
	DD	028219H
	DD	028223H
	DD	02823dH
	DD	028243H
	DD	02824dH
	DD	02824fH
	DD	02825bH
	DD	02825fH
	DD	028261H
	DD	028277H
	DD	02827dH
	DD	028297H
	DD	0282a1H
	DD	0282b3H
	DD	0282d9H
	DD	0282e5H
	DD	0282ebH
	DD	0282f7H
	DD	028309H
	DD	02830dH
	DD	02830fH
	DD	028313H
	DD	02832dH
	DD	028337H
	DD	028345H
	DD	02834bH
	DD	02835dH
	DD	028363H
	DD	028379H
	DD	028387H
	DD	02839fH
	DD	0283a3H
	DD	0283b5H
	DD	0283c9H
	DD	0283d5H
	DD	0283dfH
	DD	0283e5H
	DD	0283e7H
	DD	028411H
	DD	02841dH
	DD	02842fH
	DD	028459H
	DD	028463H
	DD	02847bH
	DD	028487H
	DD	028489H
	DD	0284adH
	DD	0284b1H
	DD	0284b7H
	DD	0284b9H
	DD	0284c3H
	DD	0284d7H
	DD	0284dbH
	DD	0284e1H
	DD	0284efH
	DD	02850dH
	DD	028529H
	DD	028535H
	DD	02853dH
	DD	028553H
	DD	02855bH
	DD	02856dH
	DD	028571H
	DD	02857fH
	DD	0285a7H
	DD	0285adH
	DD	0285bfH
	DD	0285c1H
	DD	0285c5H
	DD	0285d3H
	DD	0285dfH
	DD	0285e5H
	DD	0285f7H
	DD	028603H
	DD	028607H
	DD	02860fH
	DD	028615H
	DD	02863dH
	DD	028643H
	DD	028649H
	DD	028651H
	DD	028657H
	DD	02865dH
	DD	028667H
	DD	028687H
	DD	028693H
	DD	028697H
	DD	02869dH
	DD	0286a5H
	DD	0286afH
	DD	0286b1H
	DD	0286b7H
	DD	0286c1H
	DD	0286d3H
	DD	0286d5H
	DD	0286e1H
	DD	0286ebH
	DD	0286f1H
	DD	028715H
	DD	028723H
	DD	028729H
	DD	028745H
	DD	028747H
	DD	02874bH
	DD	02874dH
	DD	028751H
	DD	028757H
	DD	028759H
	DD	028775H
	DD	028793H
	DD	0287a7H
	DD	0287b3H
	DD	0287b9H
	DD	0287c5H
	DD	0287c9H
	DD	0287e1H
	DD	0287f5H
	DD	0287fbH
	DD	0287ffH
	DD	02880dH
	DD	02882bH
	DD	028835H
	DD	02883bH
	DD	028849H
	DD	02885fH
	DD	02887dH
	DD	028885H
	DD	02888bH
	DD	02888fH
	DD	02889bH
	DD	0288afH
	DD	0288c1H
	DD	0288d3H
	DD	028903H
	DD	028907H
	DD	02890dH
	DD	028919H
	DD	028927H
	DD	02892dH
	DD	02893fH
	DD	02894bH
	DD	02895dH
	DD	028967H
	DD	028973H
	DD	028981H
	DD	028991H
	DD	028999H
	DD	02899dH
	DD	02899fH
	DD	0289afH
	DD	0289cdH
	DD	0289cfH
	DD	0289d5H
	DD	0289dbH
	DD	0289f9H
	DD	0289ffH
	DD	028a03H
	DD	028a09H
	DD	028a11H
	DD	028a1dH
	DD	028a39H
	DD	028a47H
	DD	028a57H
	DD	028a8dH
	DD	028aa1H
	DD	028aa7H
	DD	028aabH
	DD	028ac5H
	DD	028ac9H
	DD	028acbH
	DD	028ad1H
	DD	028ad5H
	DD	028adbH
	DD	028ae3H
	DD	028ae7H
	DD	028af3H
	DD	028b01H
	DD	028b0bH
	DD	028b0dH
	DD	028b17H
	DD	028b25H
	DD	028b2fH
	DD	028b43H
	DD	028b53H
	DD	028b55H
	DD	028b7dH
	DD	028b7fH
	DD	028b8fH
	DD	028b97H
	DD	028ba7H
	DD	028bb9H
	DD	028bbbH
	DD	028bbfH
	DD	028bc1H
	DD	028bc5H
	DD	028bcdH
	DD	028bd3H
	DD	028bd7H
	DD	028bfdH
	DD	028c07H
	DD	028c13H
	DD	028c25H
	DD	028c37H
	DD	028c3dH
	DD	028c43H
	DD	028c4bH
	DD	028c61H
	DD	028c69H
	DD	028c6dH
	DD	028c6fH
	DD	028c79H
	DD	028c7fH
	DD	028c87H
	DD	028c8bH
	DD	028c9fH
	DD	028ca5H
	DD	028ca9H
	DD	028cafH
	DD	028cbbH
	DD	028cc3H
	DD	028cc9H
	DD	028ccdH
	DD	028ccfH
	DD	028cedH
	DD	028cf7H
	DD	028d05H
	DD	028d09H
	DD	028d17H
	DD	028d1dH
	DD	028d2dH
	DD	028d35H
	DD	028d51H
	DD	028d5dH
	DD	028d63H
	DD	028d65H
	DD	028d8dH
	DD	028d8fH
	DD	028d95H
	DD	028da1H
	DD	028dabH
	DD	028dadH
	DD	028dd5H
	DD	028de1H
	DD	028defH
	DD	028df5H
	DD	028dffH
	DD	028e05H
	DD	028e0dH
	DD	028e11H
	DD	028e13H
	DD	028e19H
	DD	028e2fH
	DD	028e3bH
	DD	028e43H
	DD	028e61H
	DD	028e71H
	DD	028e77H
	DD	028ea9H
	DD	028eadH
	DD	028ebbH
	DD	028ec5H
	DD	028ec7H
	DD	028ecbH
	DD	028ed1H
	DD	028ed9H
	DD	028eefH
	DD	028efdH
	DD	028f03H
	DD	028f1fH
	DD	028f31H
	DD	028f43H
	DD	028f4fH
	DD	028f5bH
	DD	028f61H
	DD	028f63H
	DD	028f79H
	DD	028f81H
	DD	028fb5H
	DD	028fb7H
	DD	028fc1H
	DD	028fc7H
	DD	028fcfH
	DD	028fd3H
	DD	028fdbH
	DD	028fe7H
	DD	028fedH
	DD	029011H
	DD	029023H
	DD	029033H
	DD	02904dH
	DD	029057H
	DD	02905dH
	DD	029065H
	DD	02906bH
	DD	029083H
	DD	029087H
	DD	029093H
	DD	029099H
	DD	0290adH
	DD	0290bfH
	DD	0290cfH
	DD	0290d7H
	DD	029101H
	DD	029105H
	DD	029113H
	DD	029123H
	DD	029137H
	DD	02913dH
	DD	029147H
	DD	02914dH
	DD	029155H
	DD	029159H
	DD	029165H
	DD	029183H
	DD	02918bH
	DD	02919bH
	DD	0291a1H
	DD	0291c7H
	DD	0291d9H
	DD	0291f1H
	DD	029201H
	DD	029203H
	DD	029209H
	DD	02920fH
	DD	029221H
	DD	02922bH
	DD	029233H
	DD	02924bH
	DD	02924fH
	DD	029255H
	DD	02925dH
	DD	02926fH
	DD	029297H
	DD	029299H
	DD	0292a9H
	DD	0292b5H
	DD	0292b7H
	DD	0292c3H
	DD	0292e1H
	DD	0292e5H
	DD	0292f9H
	DD	029309H
	DD	02930fH
	DD	02931bH
	DD	029321H
	DD	029327H
	DD	029339H
	DD	029341H
	DD	02934dH
	DD	029363H
	DD	029393H
	DD	02939fH
	DD	0293a5H
	DD	0293b7H
	DD	0293bdH
	DD	0293c3H
	DD	0293c5H
	DD	0293d1H
	DD	0293e9H
	DD	0293efH
	DD	029411H
	DD	02941fH
	DD	02942bH
	DD	02942fH
	DD	029431H
	DD	02943bH
	DD	029459H
	DD	029467H
	DD	02946bH
	DD	02946dH
	DD	029477H
	DD	029485H
	DD	029489H
	DD	029497H
	DD	0294a9H
	DD	0294bfH
	DD	0294c7H
	DD	0294d9H
	DD	0294ddH
	DD	0294efH
	DD	029501H
	DD	029503H
	DD	029519H
	DD	02951bH
	DD	029521H
	DD	02952bH
	DD	029543H
	DD	02955bH
	DD	029561H
	DD	029567H
	DD	029569H
	DD	02956fH
	DD	02957bH
	DD	02957fH
	DD	029591H
	DD	029599H
	DD	02959dH
	DD	0295b7H
	DD	0295c1H
	DD	0295d3H
	DD	0295f1H
	DD	0295ffH
	DD	02960bH
	DD	029611H
	DD	029615H
	DD	02961dH
	DD	029633H
	DD	02963bH
	DD	029651H
	DD	02965fH
	DD	02966fH
	DD	029677H
	DD	029687H
	DD	02969bH
	DD	0296a1H
	DD	0296a7H
	DD	0296b1H
	DD	0296b9H
	DD	0296bdH
	DD	0296c3H
	DD	0296d1H
	DD	0296dbH
	DD	0296ddH
	DD	0296edH
	DD	029705H
	DD	029717H
	DD	029719H
	DD	029729H
	DD	029731H
	DD	029737H
	DD	02973dH
	DD	029759H
	DD	02975fH
	DD	029767H
	DD	02976dH
	DD	029773H
	DD	029783H
	DD	0297a1H
	DD	0297a3H
	DD	0297b5H
	DD	0297b9H
	DD	0297bfH
	DD	0297cdH
	DD	0297d1H
	DD	0297d7H
	DD	0297dfH
	DD	0297e5H
	DD	029803H
	DD	029807H
	DD	029813H
	DD	029825H
	DD	02982dH
	DD	02983fH
	DD	029849H
	DD	02984fH
	DD	029861H
	DD	029873H
	DD	029875H
	DD	02987fH
	DD	02988bH
	DD	02989dH
	DD	0298b7H
	DD	0298c3H
	DD	0298cdH
	DD	0298d5H
	DD	0298dfH
	DD	0298e5H
	DD	0298f3H
	DD	0298f7H
	DD	0298ffH
	DD	029903H
	DD	029909H
	DD	029917H
	DD	02991bH
	DD	029927H
	DD	029935H
	DD	02993bH
	DD	029957H
	DD	029965H
	DD	02996bH
	DD	02996fH
	DD	029971H
	DD	02997bH
	DD	029981H
	DD	029983H
	DD	02998fH
	DD	029995H
	DD	029999H
	DD	0299adH
	DD	0299c9H
	DD	0299cfH
	DD	0299e9H
	DD	0299f3H
	DD	029a01H
	DD	029a07H
	DD	029a0dH
	DD	029a29H
	DD	029a2bH
	DD	029a37H
	DD	029a3dH
	DD	029a53H
	DD	029a6bH
	DD	029a71H
	DD	029a83H
	DD	029a89H
	DD	029a91H
	DD	029a97H
	DD	029aadH
	DD	029ac1H
	DD	029acdH
	DD	029ad3H
	DD	029ad7H
	DD	029af5H
	DD	029afdH
	DD	029b07H
	DD	029b09H
	DD	029b0fH
	DD	029b15H
	DD	029b19H
	DD	029b31H
	DD	029b39H
	DD	029b3dH
	DD	029b4bH
	DD	029b55H
	DD	029b5bH
	DD	029b63H
	DD	029b69H
	DD	029b79H
	DD	029b81H
	DD	029b87H
	DD	029b93H
	DD	029ba9H
	DD	029bafH
	DD	029bc9H
	DD	029bcdH
	DD	029bdbH
	DD	029bffH
	DD	029c0fH
	DD	029c15H
	DD	029c23H
	DD	029c27H
	DD	029c29H
	DD	029c2dH
	DD	029c45H
	DD	029c47H
	DD	029c53H
	DD	029c5fH
	DD	029c7bH
	DD	029c99H
	DD	029c9bH
	DD	029c9fH
	DD	029ca1H
	DD	029cabH
	DD	029cc3H
	DD	029ce1H
	DD	029cf3H
	DD	029cf5H
	DD	029cffH
	DD	029d07H
	DD	029d1dH
	DD	029d23H
	DD	029d35H
	DD	029d41H
	DD	029d4dH
	DD	029d77H
	DD	029d89H
	DD	029d8bH
	DD	029da3H
	DD	029dafH
	DD	029db9H
	DD	029dcbH
	DD	029dcdH
	DD	029dd1H
	DD	029dd9H
	DD	029de3H
	DD	029dfdH
	DD	029e09H
	DD	029e13H
	DD	029e15H
	DD	029e21H
	DD	029e27H
	DD	029e33H
	DD	029e3fH
	DD	029e61H
	DD	029e6dH
	DD	029e75H
	DD	029e79H
	DD	029e85H
	DD	029e8bH
	DD	029e97H
	DD	029e99H
	DD	029e9fH
	DD	029eb1H
	DD	029ebbH
	DD	029ec1H
	DD	029ec7H
	DD	029ed5H
	DD	029eedH
	DD	029ef1H
	DD	029ef3H
	DD	029f11H
	DD	029f17H
	DD	029f1bH
	DD	029f23H
	DD	029f2fH
	DD	029f33H
	DD	029f4bH
	DD	029f57H
	DD	029f5dH
	DD	029f65H
	DD	029f69H
	DD	029f71H
	DD	029f8dH
	DD	029f93H
	DD	029f99H
	DD	029fa1H
	DD	029fabH
	DD	029fe1H
	DD	029fe9H
	DD	029ff5H
	DD	029ffbH
	DD	029fffH
	DD	02a011H
	DD	02a025H
	DD	02a02fH
	DD	02a03dH
	DD	02a041H
	DD	02a05fH
	DD	02a073H
	DD	02a079H
	DD	02a07dH
	DD	02a089H
	DD	02a08bH
	DD	02a095H
	DD	02a0a7H
	DD	02a0b5H
	DD	02a0b9H
	DD	02a0bbH
	DD	02a0bfH
	DD	02a0d3H
	DD	02a0e3H
	DD	02a0f7H
	DD	02a0fbH
	DD	02a109H
	DD	02a113H
	DD	02a119H
	DD	02a121H
	DD	02a12bH
	DD	02a137H
	DD	02a13fH
	DD	02a145H
	DD	02a155H
	DD	02a16fH
	DD	02a17bH
	DD	02a185H
	DD	02a187H
	DD	02a18bH
	DD	02a191H
	DD	02a197H
	DD	02a199H
	DD	02a1c9H
	DD	02a1dbH
	DD	02a1e5H
	DD	02a1e7H
	DD	02a1fdH
	DD	02a209H
	DD	02a211H
	DD	02a21dH
	DD	02a227H
	DD	02a22dH
	DD	02a235H
	DD	02a23bH
	DD	02a23fH
	DD	02a24bH
	DD	02a259H
	DD	02a263H
	DD	02a269H
	DD	02a271H
	DD	02a277H
	DD	02a281H
	DD	02a289H
	DD	02a28fH
	DD	02a2a5H
	DD	02a2adH
	DD	02a2b1H
	DD	02a2c5H
	DD	02a2cfH
	DD	02a2d7H
	DD	02a2f3H
	DD	02a301H
	DD	02a307H
	DD	02a31dH
	DD	02a331H
	DD	02a335H
	DD	02a33bH
	DD	02a343H
	DD	02a347H
	DD	02a34dH
	DD	02a353H
	DD	02a385H
	DD	02a3a9H
	DD	02a3adH
	DD	02a3b5H
	DD	02a3bbH
	DD	02a3c1H
	DD	02a3c7H
	DD	02a3ddH
	DD	02a3dfH
	DD	02a3efH
	DD	02a3fdH
	DD	02a403H
	DD	02a419H
	DD	02a41fH
	DD	02a42bH
	DD	02a451H
	DD	02a455H
	DD	02a45dH
	DD	02a479H
	DD	02a47fH
	DD	02a485H
	DD	02a487H
	DD	02a497H
	DD	02a499H
	DD	02a4a3H
	DD	02a4c1H
	DD	02a4cfH
	DD	02a4d3H
	DD	02a4d9H
	DD	02a4ebH
	DD	02a4edH
	DD	02a4f1H
	DD	02a4fdH
	DD	02a523H
	DD	02a52dH
	DD	02a52fH
	DD	02a575H
	DD	02a577H
	DD	02a5a1H
	DD	02a5abH
	DD	02a5b3H
	DD	02a5b9H
	DD	02a5bdH
	DD	02a5dbH
	DD	02a5e3H
	DD	02a5e7H
	DD	02a5edH
	DD	02a5f9H
	DD	02a605H
	DD	02a61fH
	DD	02a631H
	DD	02a63dH
	DD	02a64fH
	DD	02a653H
	DD	02a65bH
	DD	02a665H
	DD	02a667H
	DD	02a673H
	DD	02a677H
	DD	02a683H
	DD	02a68bH
	DD	02a691H
	DD	02a6a1H
	DD	02a6adH
	DD	02a6afH
	DD	02a6cdH
	DD	02a6d1H
	DD	02a6d3H
	DD	02a6d7H
	DD	02a6efH
	DD	02a6fbH
	DD	02a703H
	DD	02a70fH
	DD	02a71bH
	DD	02a725H
	DD	02a72bH
	DD	02a743H
	DD	02a749H
	DD	02a755H
	DD	02a75dH
	DD	02a763H
	DD	02a76dH
	DD	02a791H
	DD	02a799H
	DD	02a79dH
	DD	02a7a9H
	DD	02a7b7H
	DD	02a7c1H
	DD	02a7c3H
	DD	02a7dfH
	DD	02a7e1H
	DD	02a7edH
	DD	02a7f3H
	DD	02a7f7H
	DD	02a7fdH
	DD	02a7ffH
	DD	02a80bH
	DD	02a815H
	DD	02a829H
	DD	02a839H
	DD	02a83fH
	DD	02a845H
	DD	02a84dH
	DD	02a859H
	DD	02a875H
	DD	02a88dH
	DD	02a8a1H
	DD	02a8b1H
	DD	02a8b3H
	DD	02a8b7H
	DD	02a8c9H
	DD	02a8d1H
	DD	02a8dbH
	DD	02a8e7H
	DD	02a8f9H
	DD	02a8fbH
	DD	02a901H
	DD	02a90bH
	DD	02a91fH
	DD	02a935H
	DD	02a947H
	DD	02a94dH
	DD	02a95fH
	DD	02a96bH
	DD	02a979H
	DD	02a983H
	DD	02a985H
	DD	02a991H
	DD	02a997H
	DD	02a99bH
	DD	02a9bfH
	DD	02a9c5H
	DD	02a9e9H
	DD	02a9ebH
	DD	02a9f7H
	DD	02aa07H
	DD	02aa15H
	DD	02aa19H
	DD	02aa27H
	DD	02aa2dH
	DD	02aa39H
	DD	02aa3dH
	DD	02aa43H
	DD	02aa51H
	DD	02aa57H
	DD	02aa6fH
	DD	02aa81H
	DD	02aa91H
	DD	02aa9dH
	DD	02aaa9H
	DD	02aaabH
	DD	02aaafH
	DD	02aab5H
	DD	02aacfH
	DD	02aae5H
	DD	02aaedH
	DD	02ab03H
	DD	02ab0bH
	DD	02ab1dH
	DD	02ab2dH
	DD	02ab35H
	DD	02ab3bH
	DD	02ab45H
	DD	02ab51H
	DD	02ab53H
	DD	02ab5fH
	DD	02ab6fH
	DD	02ab8dH
	DD	02ab8fH
	DD	02ab9bH
	DD	02aba5H
	DD	02abbfH
	DD	02abd5H
	DD	02abdbH
	DD	02abddH
	DD	02abe7H
	DD	02abe9H
	DD	02abffH
	DD	02ac19H
	DD	02ac25H
	DD	02ac6bH
	DD	02ac7dH
	DD	02ac9dH
	DD	02aca3H
	DD	02acadH
	DD	02acbbH
	DD	02acc7H
	DD	02accdH
	DD	02acdfH
	DD	02ace5H
	DD	02acf5H
	DD	02ad01H
	DD	02ad1fH
	DD	02ad21H
	DD	02ad2bH
	DD	02ad33H
	DD	02ad49H
	DD	02ad57H
	DD	02ad5dH
	DD	02ad67H
	DD	02ad79H
	DD	02ad85H
	DD	02ad8bH
	DD	02ad9fH
	DD	02ada3H
	DD	02adb7H
	DD	02add5H
	DD	02adf1H
	DD	02ae05H
	DD	02ae0fH
	DD	02ae11H
	DD	02ae21H
	DD	02ae2fH
	DD	02ae39H
	DD	02ae47H
	DD	02ae4bH
	DD	02ae53H
	DD	02ae5dH
	DD	02ae6bH
	DD	02ae6fH
	DD	02ae89H
	DD	02ae8dH
	DD	02ae8fH
	DD	02aea5H
	DD	02aea7H
	DD	02aec3H
	DD	02aed5H
	DD	02aeddH
	DD	02aee3H
	DD	02aeedH
	DD	02aef3H
	DD	02af01H
	DD	02af13H
	DD	02af19H
	DD	02af25H
	DD	02af2fH
	DD	02af41H
	DD	02af43H
	DD	02af4dH
	DD	02af59H
	DD	02af5bH
	DD	02af6bH
	DD	02af77H
	DD	02af79H
	DD	02af91H
	DD	02af95H
	DD	02af97H
	DD	02afa9H
	DD	02afafH
	DD	02afb3H
	DD	02afb5H
	DD	02afbfH
	DD	02afd1H
	DD	02afd7H
	DD	02afd9H
	DD	02affbH
	DD	02b001H
	DD	02b019H
	DD	02b01fH
	DD	02b021H
	DD	02b033H
	DD	02b03fH
	DD	02b049H
	DD	02b04fH
	DD	02b055H
	DD	02b05dH
	DD	02b063H
	DD	02b06dH
	DD	02b073H
	DD	02b085H
	DD	02b0abH
	DD	02b0afH
	DD	02b0bdH
	DD	02b0c1H
	DD	02b0c7H
	DD	02b0c9H
	DD	02b0cdH
	DD	02b0dbH
	DD	02b0e1H
	DD	02b0e5H
	DD	02b0f1H
	DD	02b0ffH
	DD	02b105H
	DD	02b111H
	DD	02b11dH
	DD	02b121H
	DD	02b123H
	DD	02b12fH
	DD	02b14bH
	DD	02b14dH
	DD	02b153H
	DD	02b169H
	DD	02b171H
	DD	02b177H
	DD	02b17bH
	DD	02b17dH
	DD	02b189H
	DD	02b193H
	DD	02b199H
	DD	02b1a5H
	DD	02b1a7H
	DD	02b1adH
	DD	02b1bdH
	DD	02b1cfH
	DD	02b1d5H
	DD	02b1d7H
	DD	02b1e1H
	DD	02b1e3H
	DD	02b1f5H
	DD	02b201H
	DD	02b20bH
	DD	02b225H
	DD	02b23bH
	DD	02b247H
	DD	02b249H
	DD	02b265H
	DD	02b26bH
	DD	02b271H
	DD	02b289H
	DD	02b28bH
	DD	02b295H
	DD	02b297H
	DD	02b29dH
	DD	02b2a7H
	DD	02b2a9H
	DD	02b2b3H
	DD	02b2d1H
	DD	02b2d9H
	DD	02b2f7H
	DD	02b303H
	DD	02b307H
	DD	02b319H
	DD	02b31bH
	DD	02b31fH
	DD	02b325H
	DD	02b337H
	DD	02b351H
	DD	02b357H
	DD	02b35dH
	DD	02b36fH
	DD	02b373H
	DD	02b375H
	DD	02b37bH
	DD	02b393H
	DD	02b3c3H
	DD	02b3cdH
	DD	02b3d5H
	DD	02b3d9H
	DD	02b3e7H
	DD	02b3ebH
	DD	02b40fH
	DD	02b415H
	DD	02b439H
	DD	02b43bH
	DD	02b441H
	DD	02b447H
	DD	02b457H
	DD	02b469H
	DD	02b475H
	DD	02b483H
	DD	02b495H
	DD	02b4a7H
	DD	02b4abH
	DD	02b4b9H
	DD	02b4c3H
	DD	02b4e3H
	DD	02b4e7H
	DD	02b501H
	DD	02b50dH
	DD	02b513H
	DD	02b517H
	DD	02b519H
	DD	02b53bH
	DD	02b541H
	DD	02b549H
	DD	02b54fH
	DD	02b555H
	DD	02b567H
	DD	02b57dH
	DD	02b583H
	DD	02b591H
	DD	02b5b5H
	DD	02b5c1H
	DD	02b5d7H
	DD	02b5efH
	DD	02b60dH
	DD	02b60fH
	DD	02b61bH
	DD	02b64bH
	DD	02b64fH
	DD	02b661H
	DD	02b663H
	DD	02b67bH
	DD	02b67fH
	DD	02b685H
	DD	02b693H
	DD	02b69fH
	DD	02b6afH
	DD	02b6b1H
	DD	02b6dbH
	DD	02b6dfH
	DD	02b6e1H
	DD	02b6e5H
	DD	02b6f3H
	DD	02b6f9H
	DD	02b6fdH
	DD	02b709H
	DD	02b717H
	DD	02b71dH
	DD	02b721H
	DD	02b72fH
	DD	02b73bH
	DD	02b751H
	DD	02b765H
	DD	02b775H
	DD	02b777H
	DD	02b793H
	DD	02b795H
	DD	02b7abH
	DD	02b7adH
	DD	02b7b7H
	DD	02b7c5H
	DD	02b7cfH
	DD	02b7ddH
	DD	02b7e7H
	DD	02b7f9H
	DD	02b807H
	DD	02b80bH
	DD	02b81fH
	DD	02b82fH
	DD	02b837H
	DD	02b847H
	DD	02b849H
	DD	02b853H
	DD	02b855H
	DD	02b871H
	DD	02b87dH
	DD	02b883H
	DD	02b897H
	DD	02b89dH
	DD	02b8adH
	DD	02b8afH
	DD	02b8b9H
	DD	02b8d9H
	DD	02b8ddH
	DD	02b8e3H
	DD	02b8f1H
	DD	02b907H
	DD	02b909H
	DD	02b90fH
	DD	02b925H
	DD	02b931H
	DD	02b937H
	DD	02b939H
	DD	02b945H
	DD	02b951H
	DD	02b963H
	DD	02b969H
	DD	02b97fH
	DD	02b981H
	DD	02b987H
	DD	02b98bH
	DD	02b9a5H
	DD	02b9a9H
	DD	02b9abH
	DD	02b9b1H
	DD	02b9b5H
	DD	02b9bdH
	DD	02b9c3H
	DD	02b9cfH
	DD	02b9d3H
	DD	02b9f9H
	DD	02ba03H
	DD	02ba05H
	DD	02ba09H
	DD	02ba41H
	DD	02ba45H
	DD	02ba5dH
	DD	02ba69H
	DD	02ba6fH
	DD	02ba77H
	DD	02ba7dH
	DD	02ba81H
	DD	02ba83H
	DD	02ba8fH
	DD	02baa5H
	DD	02baabH
	DD	02bab9H
	DD	02babdH
	DD	02bac9H
	DD	02bad1H
	DD	02bad7H
	DD	02badbH
	DD	02baddH
	DD	02bae9H
	DD	02baf3H
	DD	02baf5H
	DD	02bafbH
	DD	02bb07H
	DD	02bb1dH
	DD	02bb2bH
	DD	02bb4dH
	DD	02bb55H
	DD	02bb59H
	DD	02bb61H
	DD	02bb6bH
	DD	02bb71H
	DD	02bb8bH
	DD	02bb91H
	DD	02bb9bH
	DD	02bba3H
	DD	02bba7H
	DD	02bbafH
	DD	02bbc7H
	DD	02bbd9H
	DD	02bbdfH
	DD	02bbe5H
	DD	02bc03H
	DD	02bc09H
	DD	02bc0dH
	DD	02bc21H
	DD	02bc2bH
	DD	02bc3dH
	DD	02bc45H
	DD	02bc51H
	DD	02bc57H
	DD	02bc75H
	DD	02bc79H
	DD	02bc7fH
	DD	02bc97H
	DD	02bc9dH
	DD	02bca9H
	DD	02bcb5H
	DD	02bcb7H
	DD	02bcc1H
	DD	02bccfH
	DD	02bcd3H
	DD	02bce5H
	DD	02bcedH
	DD	02bcf1H
	DD	02bcfdH
	DD	02bd05H
	DD	02bd0fH
	DD	02bd17H
	DD	02bd1bH
	DD	02bd29H
	DD	02bd3fH
	DD	02bd47H
	DD	02bd4dH
	DD	02bd5dH
	DD	02bd6bH
	DD	02bd75H
	DD	02bd7bH
	DD	02bd7dH
	DD	02bd87H
	DD	02bd89H
	DD	02bd93H
	DD	02bda7H
	DD	02bdb1H
	DD	02bdc3H
	DD	02bdc9H
	DD	02bdcbH
	DD	02bdd7H
	DD	02bde7H
	DD	02bde9H
	DD	02bdedH
	DD	02be05H
	DD	02be07H
	DD	02be19H
	DD	02be1fH
	DD	02be25H
	DD	02be43H
	DD	02be59H
	DD	02be5fH
	DD	02be65H
	DD	02be6bH
	DD	02be6dH
	DD	02be73H
	DD	02be79H
	DD	02be89H
	DD	02beb9H
	DD	02bebbH
	DD	02bebfH
	DD	02bec5H
	DD	02becdH
	DD	02bed3H
	DD	02bee3H
	DD	02beebH
	DD	02beefH
	DD	02bef1H
	DD	02bef5H
	DD	02bf01H
	DD	02bf0dH
	DD	02bf15H
	DD	02bf1fH
	DD	02bf21H
	DD	02bf27H
	DD	02bf37H
	DD	02bf4bH
	DD	02bf55H
	DD	02bf67H
	DD	02bf69H
	DD	02bf6dH
	DD	02bf81H
	DD	02bfa9H
	DD	02bfc1H
	DD	02bfd3H
	DD	02bfd5H
	DD	02bff3H
	DD	02bffdH
	DD	02c009H
	DD	02c00fH
	DD	02c011H
	DD	02c017H
	DD	02c023H
	DD	02c027H
	DD	02c039H
	DD	02c03fH
	DD	02c041H
	DD	02c053H
	DD	02c057H
	DD	02c05dH
	DD	02c06bH
	DD	02c071H
	DD	02c07bH
	DD	02c089H
	DD	02c093H
	DD	02c09bH
	DD	02c0a7H
	DD	02c0bdH
	DD	02c0c3H
	DD	02c0d5H
	DD	02c0efH
	DD	02c0f9H
	DD	02c10bH
	DD	02c111H
	DD	02c117H
	DD	02c11fH
	DD	02c135H
	DD	02c13bH
	DD	02c13dH
	DD	02c143H
	DD	02c153H
	DD	02c159H
	DD	02c189H
	DD	02c18fH
	DD	02c195H
	DD	02c1a7H
	DD	02c1bbH
	DD	02c1c7H
	DD	02c1ddH
	DD	02c1fbH
	DD	02c20dH
	DD	02c20fH
	DD	02c225H
	DD	02c22bH
	DD	02c239H
	DD	02c23dH
	DD	02c23fH
	DD	02c24bH
	DD	02c26fH
	DD	02c287H
	DD	02c293H
	DD	02c2abH
	DD	02c2d5H
	DD	02c2dfH
	DD	02c309H
	DD	02c30bH
	DD	02c31bH
	DD	02c327H
	DD	02c32fH
	DD	02c345H
	DD	02c347H
	DD	02c359H
	DD	02c35fH
	DD	02c383H
	DD	02c395H
	DD	02c3a5H
	DD	02c3bfH
	DD	02c3c9H
	DD	02c3cfH
	DD	02c3d1H
	DD	02c3dbH
	DD	02c3ddH
	DD	02c3e3H
	DD	02c3fbH
	DD	02c405H
	DD	02c419H
	DD	02c41dH
	DD	02c423H
	DD	02c431H
	DD	02c435H
	DD	02c437H
	DD	02c471H
	DD	02c48bH
	DD	02c495H
	DD	02c497H
	DD	02c4a1H
	DD	02c4adH
	DD	02c4bfH
	DD	02c4d1H
	DD	02c4d3H
	DD	02c4fbH
	DD	02c4fdH
	DD	02c509H
	DD	02c513H
	DD	02c521H
	DD	02c52dH
	DD	02c531H
	DD	02c563H
	DD	02c567H
	DD	02c569H
	DD	02c573H
	DD	02c587H
	DD	02c5a3H
	DD	02c5a5H
	DD	02c5bdH
	DD	02c5cfH
	DD	02c5d5H
	DD	02c5d9H
	DD	02c5e1H
	DD	02c5ebH
	DD	02c5f7H
	DD	02c5fdH
	DD	02c5ffH
	DD	02c603H
	DD	02c611H
	DD	02c61bH
	DD	02c61dH
	DD	02c635H
	DD	02c64dH
	DD	02c66fH
	DD	02c671H
	DD	02c681H
	DD	02c683H
	DD	02c68fH
	DD	02c699H
	DD	02c69fH
	DD	02c6a7H
	DD	02c6abH
	DD	02c6b7H
	DD	02c6c5H
	DD	02c6cfH
	DD	02c6ddH
	DD	02c6edH
	DD	02c6f9H
	DD	02c6fbH
	DD	02c70bH
	DD	02c70dH
	DD	02c719H
	DD	02c71fH
	DD	02c729H
	DD	02c72bH
	DD	02c749H
	DD	02c753H
	DD	02c755H
	DD	02c75bH
	DD	02c75fH
	DD	02c76bH
	DD	02c771H
	DD	02c773H
	DD	02c77dH
	DD	02c78fH
	DD	02c797H
	DD	02c7a1H
	DD	02c7a3H
	DD	02c7b9H
	DD	02c7c1H
	DD	02c7d9H
	DD	02c7dfH
	DD	02c7e3H
	DD	02c7f5H
	DD	02c807H
	DD	02c819H
	DD	02c825H
	DD	02c83dH
	DD	02c843H
	DD	02c845H
	DD	02c851H
	DD	02c873H
	DD	02c875H
	DD	02c891H
	DD	02c897H
	DD	02c89fH
	DD	02c8abH
	DD	02c8b5H
	DD	02c8c3H
	DD	02c8c7H
	DD	02c8c9H
	DD	02c8d9H
	DD	02c8e7H
	DD	02c8edH
	DD	02c8f7H
	DD	02c909H
	DD	02c915H
	DD	02c921H
	DD	02c933H
	DD	02c93bH
	DD	02c941H
	DD	02c947H
	DD	02c94bH
	DD	02c959H
	DD	02c963H
	DD	02c96fH
	DD	02c971H
	DD	02c97dH
	DD	02c981H
	DD	02c983H
	DD	02c999H
	DD	02c99fH
	DD	02c9adH
	DD	02c9b7H
	DD	02c9b9H
	DD	02c9dbH
	DD	02c9f5H
	DD	02c9fbH
	DD	02ca05H
	DD	02ca13H
	DD	02ca1dH
	DD	02ca25H
	DD	02ca37H
	DD	02ca43H
	DD	02ca49H
	DD	02ca53H
	DD	02ca67H
	DD	02ca6dH
	DD	02ca73H
	DD	02ca89H
	DD	02ca8fH
	DD	02ca91H
	DD	02ca95H
	DD	02caa9H
	DD	02caadH
	DD	02cab9H
	DD	02cac5H
	DD	02cad7H
	DD	02caefH
	DD	02cafdH
	DD	02cb01H
	DD	02cb07H
	DD	02cb13H
	DD	02cb1bH
	DD	02cb31H
	DD	02cb33H
	DD	02cb4fH
	DD	02cb6fH
	DD	02cb7fH
	DD	02cb97H
	DD	02cba3H
	DD	02cbcfH
	DD	02cbdbH
	DD	02cbdfH
	DD	02cbf3H
	DD	02cbf9H
	DD	02cc03H
	DD	02cc05H
	DD	02cc0bH
	DD	02cc15H
	DD	02cc17H
	DD	02cc21H
	DD	02cc2fH
	DD	02cc35H
	DD	02cc41H
	DD	02cc4dH
	DD	02cc51H
	DD	02cc57H
	DD	02cc5dH
	DD	02cc65H
	DD	02cc8dH
	DD	02cc8fH
	DD	02cc9bH
	DD	02cca5H
	DD	02ccb1H
	DD	02ccb7H
	DD	02ccbfH
	DD	02ccc9H
	DD	02cccbH
	DD	02cccfH
	DD	02ccd5H
	DD	02ccd7H
	DD	02cce3H
	DD	02cce7H
	DD	02cd11H
	DD	02cd13H
	DD	02cd19H
	DD	02cd1dH
	DD	02cd23H
	DD	02cd29H
	DD	02cd3bH
	DD	02cd55H
	DD	02cd6dH
	DD	02cd83H
	DD	02cd8bH
	DD	02cd91H
	DD	02cd9bH
	DD	02cd9dH
	DD	02cda1H
	DD	02cdd1H
	DD	02cdd3H
	DD	02cdf5H
	DD	02ce01H
	DD	02ce0fH
	DD	02ce15H
	DD	02ce3fH
	DD	02ce45H
	DD	02ce49H
	DD	02ce63H
	DD	02ce6dH
	DD	02ce6fH
	DD	02ce87H
	DD	02ce8dH
	DD	02ce97H
	DD	02cea3H
	DD	02cea5H
	DD	02ceabH
	DD	02cec3H
	DD	02cec7H
	DD	02cecdH
	DD	02cedfH
	DD	02cee7H
	DD	02ceebH
	DD	02cef9H
	DD	02cf09H
	DD	02cf11H
	DD	02cf17H
	DD	02cf2fH
	DD	02cf35H
	DD	02cf45H
	DD	02cf59H
	DD	02cf5dH
	DD	02cf75H
	DD	02cf7bH
	DD	02cf7dH
	DD	02cf87H
	DD	02cf93H
	DD	02cfa7H
	DD	02cfb1H
	DD	02cfc3H
	DD	02cfcfH
	DD	02cfd1H
	DD	02cfd7H
	DD	02cfe3H
	DD	02cff5H
	DD	02d001H
	DD	02d00dH
	DD	02d011H
	DD	02d01fH
	DD	02d031H
	DD	02d059H
	DD	02d061H
	DD	02d079H
	DD	02d07fH
	DD	02d08fH
	DD	02d09dH
	DD	02d0a7H
	DD	02d0a9H
	DD	02d0bfH
	DD	02d0c5H
	DD	02d0cbH
	DD	02d0e9H
	DD	02d0efH
	DD	02d0f7H
	DD	02d0fbH
	DD	02d101H
	DD	02d11fH
	DD	02d121H
	DD	02d133H
	DD	02d137H
	DD	02d139H
	DD	02d149H
	DD	02d14bH
	DD	02d15dH
	DD	02d16fH
	DD	02d175H
	DD	02d17fH
	DD	02d187H
	DD	02d191H
	DD	02d197H
	DD	02d19dH
	DD	02d1b1H
	DD	02d1c9H
	DD	02d1f7H
	DD	02d1fdH
	DD	02d1ffH
	DD	02d205H
	DD	02d20bH
	DD	02d21bH
	DD	02d22fH
	DD	02d245H
	DD	02d247H
	DD	02d251H
	DD	02d275H
	DD	02d27dH
	DD	02d287H
	DD	02d289H
	DD	02d2a1H
	DD	02d2a5H
	DD	02d2a7H
	DD	02d2bdH
	DD	02d2c3H
	DD	02d2dbH
	DD	02d2e1H
	DD	02d2e7H
	DD	02d2edH
	DD	02d2efH
	DD	02d2f5H
	DD	02d301H
	DD	02d30bH
	DD	02d323H
	DD	02d32bH
	DD	02d331H
	DD	02d33dH
	DD	02d341H
	DD	02d349H
	DD	02d34fH
	DD	02d359H
	DD	02d35fH
	DD	02d365H
	DD	02d385H
	DD	02d391H
	DD	02d39bH
	DD	02d3b3H
	DD	02d3cbH
	DD	02d3d3H
	DD	02d3d7H
	DD	02d3ddH
	DD	02d3ebH
	DD	02d3efH
	DD	02d40fH
	DD	02d413H
	DD	02d419H
	DD	02d41bH
	DD	02d439H
	DD	02d455H
	DD	02d461H
	DD	02d47bH
	DD	02d485H
	DD	02d48bH
	DD	02d493H
	DD	02d4afH
	DD	02d4b7H
	DD	02d4bbH
	DD	02d4bdH
	DD	02d4c3H
	DD	02d4c7H
	DD	02d4cfH
	DD	02d4d5H
	DD	02d4dfH
	DD	02d4e1H
	DD	02d4f9H
	DD	02d4ffH
	DD	02d515H
	DD	02d529H
	DD	02d533H
	DD	02d54dH
	DD	02d551H
	DD	02d553H
	DD	02d55dH
	DD	02d563H
	DD	02d56bH
	DD	02d56fH
	DD	02d57bH
	DD	02d589H
	DD	02d593H
	DD	02d595H
	DD	02d599H
	DD	02d5a7H
	DD	02d5bdH
	DD	02d5c5H
	DD	02d5d5H
	DD	02d5dbH
	DD	02d5ddH
	DD	02d5e7H
	DD	02d5e9H
	DD	02d5f9H
	DD	02d60dH
	DD	02d611H
	DD	02d625H
	DD	02d629H
	DD	02d62fH
	DD	02d63dH
	DD	02d643H
	DD	02d65bH
	DD	02d65fH
	DD	02d665H
	DD	02d667H
	DD	02d673H
	DD	02d683H
	DD	02d689H
	DD	02d697H
	DD	02d69dH
	DD	02d6a3H
	DD	02d6a7H
	DD	02d6b5H
	DD	02d6b9H
	DD	02d6c1H
	DD	02d6d7H
	DD	02d6f1H
	DD	02d6f7H
	DD	02d6fbH
	DD	02d701H
	DD	02d707H
	DD	02d725H
	DD	02d72dH
	DD	02d731H
	DD	02d733H
	DD	02d74bH
	DD	02d74fH
	DD	02d763H
	DD	02d773H
	DD	02d775H
	DD	02d77fH
	DD	02d787H
	DD	02d78dH
	DD	02d793H
	DD	02d79fH
	DD	02d7abH
	DD	02d7bbH
	DD	02d7bdH
	DD	02d7c7H
	DD	02d7cdH
	DD	02d7e7H
	DD	02d809H
	DD	02d80bH
	DD	02d817H
	DD	02d81dH
	DD	02d833H
	DD	02d845H
	DD	02d853H
	DD	02d865H
	DD	02d86fH
	DD	02d871H
	DD	02d8b7H
	DD	02d8c9H
	DD	02d8d5H
	DD	02d8d7H
	DD	02d8dbH
	DD	02d8e9H
	DD	02d8fbH
	DD	02d905H
	DD	02d917H
	DD	02d919H
	DD	02d91dH
	DD	02d92fH
	DD	02d937H
	DD	02d941H
	DD	02d94dH
	DD	02d953H
	DD	02d955H
	DD	02d967H
	DD	02d96dH
	DD	02d977H
	DD	02d985H
	DD	02d989H
	DD	02d98bH
	DD	02d995H
	DD	02d9a9H
	DD	02d9afH
	DD	02d9d9H
	DD	02d9ebH
	DD	02d9f5H
	DD	02d9f7H
	DD	02d9fdH
	DD	02da03H
	DD	02da09H
	DD	02da25H
	DD	02da43H
	DD	02da4fH
	DD	02da7bH
	DD	02da81H
	DD	02da93H
	DD	02daa3H
	DD	02daa9H
	DD	02dabbH
	DD	02dabdH
	DD	02dac1H
	DD	02dac9H
	DD	02dad3H
	DD	02dae7H
	DD	02daf3H
	DD	02daf7H
	DD	02daf9H
	DD	02dafdH
	DD	02db03H
	DD	02db05H
	DD	02db1bH
	DD	02db23H
	DD	02db29H
	DD	02db2dH
	DD	02db35H
	DD	02db39H
	DD	02db4bH
	DD	02db51H
	DD	02db53H
	DD	02db57H
	DD	02db65H
	DD	02db89H
	DD	02db8dH
	DD	02dba7H
	DD	02dbc9H
	DD	02dbcbH
	DD	02dbd5H
	DD	02dbe1H
	DD	02dbe7H
	DD	02dbedH
	DD	02dbf3H
	DD	02dbfbH
	DD	02dc01H
	DD	02dc11H
	DD	02dc19H
	DD	02dc1fH
	DD	02dc29H
	DD	02dc31H
	DD	02dc47H
	DD	02dc4dH
	DD	02dc4fH
	DD	02dc55H
	DD	02dc73H
	DD	02dc79H
	DD	02dc8bH
	DD	02dc9bH
	DD	02dca7H
	DD	02dcb5H
	DD	02dccdH
	DD	02dcefH
	DD	02dcf1H
	DD	02dcf5H
	DD	02dcf7H
	DD	02dd03H
	DD	02dd0dH
	DD	02dd15H
	DD	02dd27H
	DD	02dd33H
	DD	02dd3fH
	DD	02dd49H
	DD	02dd67H
	DD	02dd73H
	DD	02dd8bH
	DD	02dd91H
	DD	02ddafH
	DD	02ddc3H
	DD	02ddd5H
	DD	02dddfH
	DD	02dde5H
	DD	02ddebH
	DD	02ddf9H
	DD	02de03H
	DD	02de05H
	DD	02de11H
	DD	02de17H
	DD	02de1bH
	DD	02de2fH
	DD	02de3bH
	DD	02de45H
	DD	02de53H
	DD	02de6bH
	DD	02de71H
	DD	02de75H
	DD	02de7dH
	DD	02decbH
	DD	02dee9H
	DD	02deefH
	DD	02def3H
	DD	02deffH
	DD	02df0bH
	DD	02df13H
	DD	02df1dH
	DD	02df25H
	DD	02df59H
	DD	02df65H
	DD	02df71H
	DD	02df79H
	DD	02df83H
	DD	02df8bH
	DD	02df8fH
	DD	02df97H
	DD	02df9dH
	DD	02dfa3H
	DD	02dfadH
	DD	02dfbfH
	DD	02dfc7H
	DD	02dfd1H
	DD	02dfe5H
	DD	02dff1H
	DD	02dff7H
	DD	02e001H
	DD	02e00fH
	DD	02e015H
	DD	02e01bH
	DD	02e02bH
	DD	02e039H
	DD	02e043H
	DD	02e04bH
	DD	02e067H
	DD	02e06fH
	DD	02e075H
	DD	02e093H
	DD	02e0a3H
	DD	02e0bbH
	DD	02e0c1H
	DD	02e0cdH
	DD	02e0d9H
	DD	02e0edH
	DD	02e105H
	DD	02e109H
	DD	02e10fH
	DD	02e115H
	DD	02e11dH
	DD	02e123H
	DD	02e127H
	DD	02e12fH
	DD	02e139H
	DD	02e151H
	DD	02e15fH
	DD	02e16bH
	DD	02e177H
	DD	02e181H
	DD	02e19bH
	DD	02e19fH
	DD	02e1a1H
	DD	02e1abH
	DD	02e1b9H
	DD	02e1bdH
	DD	02e1bfH
	DD	02e1c5H
	DD	02e1dbH
	DD	02e1efH
	DD	02e1ffH
	DD	02e205H
	DD	02e20bH
	DD	02e20dH
	DD	02e219H
	DD	02e21dH
	DD	02e237H
	DD	02e247H
	DD	02e253H
	DD	02e259H
	DD	02e25bH
	DD	02e271H
	DD	02e273H
	DD	02e285H
	DD	02e28bH
	DD	02e2c7H
	DD	02e2d3H
	DD	02e2ddH
	DD	02e2dfH
	DD	02e2f1H
	DD	02e303H
	DD	02e30fH
	DD	02e327H
	DD	02e32dH
	DD	02e337H
	DD	02e343H
	DD	02e345H
	DD	02e349H
	DD	02e357H
	DD	02e37bH
	DD	02e37fH
	DD	02e399H
	DD	02e3a3H
	DD	02e3a5H
	DD	02e3a9H
	DD	02e3b1H
	DD	02e3c1H
	DD	02e3cdH
	DD	02e3cfH
	DD	02e3d9H
	DD	02e3dfH
	DD	02e3edH
	DD	02e3f9H
	DD	02e3fdH
	DD	02e3ffH
	DD	02e417H
	DD	02e41bH
	DD	02e421H
	DD	02e427H
	DD	02e433H
	DD	02e435H
	DD	02e445H
	DD	02e44dH
	DD	02e453H
	DD	02e459H
	DD	02e46bH
	DD	02e477H
	DD	02e48fH
	DD	02e499H
	DD	02e49fH
	DD	02e4adH
	DD	02e4b1H
	DD	02e4b3H
	DD	02e4cbH
	DD	02e4d5H
	DD	02e4ddH
	DD	02e4e7H
	DD	02e4fbH
	DD	02e501H
	DD	02e505H
	DD	02e511H
	DD	02e525H
	DD	02e52fH
	DD	02e53dH
	DD	02e547H
	DD	02e565H
	DD	02e567H
	DD	02e579H
	DD	02e57fH
	DD	02e59bH
	DD	02e59dH
	DD	02e5a3H
	DD	02e5b5H
	DD	02e5b9H
	DD	02e5bfH
	DD	02e5cdH
	DD	02e5d9H
	DD	02e5e9H
	DD	02e5fbH
	DD	02e5fdH
	DD	02e609H
	DD	02e60fH
	DD	02e619H
	DD	02e61fH
	DD	02e625H
	DD	02e62dH
	DD	02e64bH
	DD	02e64fH
	DD	02e663H
	DD	02e66fH
	DD	02e68dH
	DD	02e691H
	DD	02e6a9H
	DD	02e6b1H
	DD	02e6c3H
	DD	02e6cfH
	DD	02e6e5H
	DD	02e6ffH
	DD	02e723H
	DD	02e729H
	DD	02e735H
	DD	02e73fH
	DD	02e74bH
	DD	02e759H
	DD	02e75dH
	DD	02e769H
	DD	02e771H
	DD	02e77bH
	DD	02e783H
	DD	02e795H
	DD	02e79fH
	DD	02e7a1H
	DD	02e7b3H
	DD	02e7b7H
	DD	02e7c3H
	DD	02e7c9H
	DD	02e807H
	DD	02e82bH
	DD	02e83bH
	DD	02e841H
	DD	02e849H
	DD	02e84fH
	DD	02e86dH
	DD	02e871H
	DD	02e873H
	DD	02e877H
	DD	02e87fH
	DD	02e88fH
	DD	02e895H
	DD	02e8a9H
	DD	02e8afH
	DD	02e8b9H
	DD	02e8c1H
	DD	02e8cbH
	DD	02e8cdH
	DD	02e8ebH
	DD	02e8f5H
	DD	02e8f7H
	DD	02e8fdH
	DD	02e921H
	DD	02e927H
	DD	02e92bH
	DD	02e931H
	DD	02e93fH
	DD	02e943H
	DD	02e949H
	DD	02e957H
	DD	02e95bH
	DD	02e967H
	DD	02e96dH
	DD	02e975H
	DD	02e97bH
	DD	02e997H
	DD	02e9a9H
	DD	02e9abH
	DD	02e9b5H
	DD	02e9bdH
	DD	02e9c1H
	DD	02e9c9H
	DD	02ea03H
	DD	02ea15H
	DD	02ea2dH
	DD	02ea33H
	DD	02ea39H
	DD	02ea3fH
	DD	02ea47H
	DD	02ea51H
	DD	02ea5fH
	DD	02ea71H
	DD	02ea7bH
	DD	02ea8fH
	DD	02ea93H
	DD	02eaa1H
	DD	02eaa5H
	DD	02eaa7H
	DD	02eab9H
	DD	02eac5H
	DD	02ead5H
	DD	02eafbH
	DD	02eaffH
	DD	02eb05H
	DD	02eb11H
	DD	02eb13H
	DD	02eb31H
	DD	02eb41H
	DD	02eb43H
	DD	02eb6bH
	DD	02eb6dH
	DD	02eb79H
	DD	02ebb5H
	DD	02ebd1H
	DD	02ebd7H
	DD	02ebd9H
	DD	02ebddH
	DD	02ebe3H
	DD	02ebe5H
	DD	02ebebH
	DD	02ebf1H
	DD	02ec03H
	DD	02ec09H
	DD	02ec13H
	DD	02ec15H
	DD	02ec1fH
	DD	02ec2bH
	DD	02ec2dH
	DD	02ec31H
	DD	02ec3fH
	DD	02ec49H
	DD	02ec4bH
	DD	02ec5bH
	DD	02ec6fH
	DD	02ec85H
	DD	02ec8bH
	DD	02eca9H
	DD	02ecb5H
	DD	02ecb7H
	DD	02ecbdH
	DD	02ecc9H
	DD	02eccdH
	DD	02ecd3H
	DD	02ecdbH
	DD	02ece5H
	DD	02ed03H
	DD	02ed05H
	DD	02ed1dH
	DD	02ed27H
	DD	02ed2fH
	DD	02ed39H
	DD	02ed3bH
	DD	02ed53H
	DD	02ed57H
	DD	02ed59H
	DD	02ed5dH
	DD	02ed75H
	DD	02ed9bH
	DD	02ed9fH
	DD	02eda7H
	DD	02edb9H
	DD	02edd1H
	DD	02ede1H
	DD	02ede9H
	DD	02edffH
	DD	02ee07H
	DD	02ee0dH
	DD	02ee1dH
	DD	02ee25H
	DD	02ee2bH
	DD	02ee2fH
	DD	02ee35H
	DD	02ee5bH
	DD	02ee61H
	DD	02ee67H
	DD	02ee71H
	DD	02ee79H
	DD	02ee85H
	DD	02ee95H
	DD	02eea1H
	DD	02eeadH
	DD	02eebbH
	DD	02eebfH
	DD	02eec1H
	DD	02eee5H
	DD	02eee9H
	DD	02eeefH
	DD	02eefbH
	DD	02ef03H
	DD	02ef07H
	DD	02ef0fH
	DD	02ef33H
	DD	02ef3dH
	DD	02ef3fH
	DD	02ef43H
	DD	02ef55H
	DD	02ef57H
	DD	02ef5bH
	DD	02ef75H
	DD	02ef79H
	DD	02ef7fH
	DD	02ef87H
	DD	02ef97H
	DD	02efafH
	DD	02efcdH
	DD	02efcfH
	DD	02eff1H
	DD	02eff3H
	DD	02f011H
	DD	02f01bH
	DD	02f023H
	DD	02f029H
	DD	02f02dH
	DD	02f03bH
	DD	02f045H
	DD	02f047H
	DD	02f04bH
	DD	02f059H
	DD	02f063H
	DD	02f065H
	DD	02f069H
	DD	02f075H
	DD	02f077H
	DD	02f07dH
	DD	02f09bH
	DD	02f0a5H
	DD	02f0b9H
	DD	02f0e1H
	DD	02f0e7H
	DD	02f0edH
	DD	02f0f5H
	DD	02f0ffH
	DD	02f10dH
	DD	02f117H
	DD	02f11fH
	DD	02f12bH
	DD	02f131H
	DD	02f141H
	DD	02f14fH
	DD	02f155H
	DD	02f15bH
	DD	02f16dH
	DD	02f173H
	DD	02f177H
	DD	02f179H
	DD	02f195H
	DD	02f19bH
	DD	02f1a3H
	DD	02f1b5H
	DD	02f1c1H
	DD	02f1cbH
	DD	02f1d1H
	DD	02f1d3H
	DD	02f1dfH
	DD	02f1ebH
	DD	02f1f1H
	DD	02f1f5H
	DD	02f207H
	DD	02f213H
	DD	02f21bH
	DD	02f221H
	DD	02f231H
	DD	02f245H
	DD	02f26dH
	DD	02f273H
	DD	02f27bH
	DD	02f281H
	DD	02f28bH
	DD	02f29dH
	DD	02f29fH
	DD	02f2a5H
	DD	02f2b1H
	DD	02f2dbH
	DD	02f2dfH
	DD	02f2edH
	DD	02f303H
	DD	02f315H
	DD	02f32fH
	DD	02f339H
	DD	02f34dH
	DD	02f357H
	DD	02f35dH
	DD	02f363H
	DD	02f365H
	DD	02f36bH
	DD	02f371H
	DD	02f38fH
	DD	02f399H
	DD	02f3a1H
	DD	02f3a7H
	DD	02f3abH
	DD	02f3b7H
	DD	02f3bdH
	DD	02f3d5H
	DD	02f3e3H
	DD	02f3e9H
	DD	02f405H
	DD	02f40dH
	DD	02f417H
	DD	02f425H
	DD	02f429H
	DD	02f43dH
	DD	02f441H
	DD	02f443H
	DD	02f447H
	DD	02f453H
	DD	02f471H
	DD	02f47fH
	DD	02f48fH
	DD	02f4a7H
	DD	02f4bbH
	DD	02f4bfH
	DD	02f4cdH
	DD	02f4d7H
	DD	02f4ddH
	DD	02f4e3H
	DD	02f4ebH
	DD	02f4fdH
	DD	02f501H
	DD	02f507H
	DD	02f513H
	DD	02f515H
	DD	02f531H
	DD	02f537H
	DD	02f543H
	DD	02f545H
	DD	02f54fH
	DD	02f551H
	DD	02f555H
	DD	02f55bH
	DD	02f563H
	DD	02f591H
	DD	02f593H
	DD	02f597H
	DD	02f59fH
	DD	02f5a5H
	DD	02f5bbH
	DD	02f5c9H
	DD	02f5d3H
	DD	02f5e1H
	DD	02f5ebH
	DD	02f609H
	DD	02f615H
	DD	02f617H
	DD	02f623H
	DD	02f627H
	DD	02f62dH
	DD	02f635H
	DD	02f641H
	DD	02f647H
	DD	02f65dH
	DD	02f665H
	DD	02f677H
	DD	02f683H
	DD	02f695H
	DD	02f69bH
	DD	02f6bfH
	DD	02f6d7H
	DD	02f6dbH
	DD	02f6ddH
	DD	02f705H
	DD	02f713H
	DD	02f731H
	DD	02f743H
	DD	02f749H
	DD	02f76dH
	DD	02f77fH
	DD	02f78bH
	DD	02f7a7H
	DD	02f7afH
	DD	02f7b3H
	DD	02f7cbH
	DD	02f7d9H
	DD	02f7dfH
	DD	02f7efH
	DD	02f809H
	DD	02f815H
	DD	02f81fH
	DD	02f831H
	DD	02f857H
	DD	02f85dH
	DD	02f863H
	DD	02f86fH
	DD	02f879H
	DD	02f87bH
	DD	02f87fH
	DD	02f893H
	DD	02f899H
	DD	02f89dH
	DD	02f8a3H
	DD	02f8a9H
	DD	02f8bdH
	DD	02f8cfH
	DD	02f8d3H
	DD	02f8f9H
	DD	02f8fdH
	DD	02f903H
	DD	02f90bH
	DD	02f917H
	DD	02f92dH
	DD	02f92fH
	DD	02f933H
	DD	02f935H
	DD	02f94bH
	DD	02f953H
	DD	02f95fH
	DD	02f965H
	DD	02f975H
	DD	02f993H
	DD	02f9a1H
	DD	02f9a5H
	DD	02f9adH
	DD	02f9cfH
	DD	02f9d5H
	DD	02f9e3H
	DD	02f9e7H
	DD	02f9e9H
	DD	02f9edH
	DD	02f9ffH
	DD	02fa05H
	DD	02fa11H
	DD	02fa1fH
	DD	02fa31H
	DD	02fa37H
	DD	02fa3bH
	DD	02fa41H
	DD	02fa55H
	DD	02fa59H
	DD	02fa5bH
	DD	02fa79H
	DD	02fa7dH
	DD	02fa83H
	DD	02fa9dH
	DD	02faa9H
	DD	02fab5H
	DD	02fabbH
	DD	02fac7H
	DD	02facdH
	DD	02fad1H
	DD	02faefH
	DD	02faf7H
	DD	02fb01H
	DD	02fb0dH
	DD	02fb0fH
	DD	02fb19H
	DD	02fb1fH
	DD	02fb3dH
	DD	02fb49H
	DD	02fb4fH
	DD	02fb55H
	DD	02fb63H
	DD	02fb73H
	DD	02fb81H
	DD	02fb8dH
	DD	02fb97H
	DD	02fba5H
	DD	02fba9H
	DD	02fbb7H
	DD	02fbc7H
	DD	02fbd3H
	DD	02fbd5H
	DD	02fbfdH
	DD	02fc09H
	DD	02fc0fH
	DD	02fc4bH
	DD	02fc5dH
	DD	02fc6bH
	DD	02fc71H
	DD	02fc7dH
	DD	02fc93H
	DD	02fc95H
	DD	02fc99H
	DD	02fc9bH
	DD	02fc9fH
	DD	02fca7H
	DD	02fcb1H
	DD	02fcc5H
	DD	02fccbH
	DD	02fccfH
	DD	02fce1H
	DD	02fce9H
	DD	02fd17H
	DD	02fd1dH
	DD	02fd2bH
	DD	02fd2fH
	DD	02fd35H
	DD	02fd43H
	DD	02fd49H
	DD	02fd4fH
	DD	02fd59H
	DD	02fd5bH
	DD	02fd7fH
	DD	02fd83H
	DD	02fd85H
	DD	02fd89H
	DD	02fd97H
	DD	02fd9dH
	DD	02fda3H
	DD	02fdc1H
	DD	02fdc7H
	DD	02fdcbH
	DD	02fdd3H
	DD	02fde9H
	DD	02fdf1H
	DD	02fdf7H
	DD	02fe0fH
	DD	02fe15H
	DD	02fe2bH
	DD	02fe3fH
	DD	02fe49H
	DD	02fe4bH
	DD	02fe51H
	DD	02fe55H
	DD	02fe5bH
	DD	02fe61H
	DD	02fe69H
	DD	02fe97H
	DD	02feafH
	DD	02feb5H
	DD	02feb7H
	DD	02fec3H
	DD	02fecfH
	DD	02fed3H
	DD	02feebH
	DD	02fef1H
	DD	02ff1bH
	DD	02ff23H
	DD	02ff4dH
	DD	02ff57H
	DD	02ff65H
	DD	02ff6bH
	DD	02ff7dH
	DD	02ff93H
	DD	02ff95H
	DD	02ffa7H
	DD	02ffabH
	DD	02ffbdH
	DD	02ffbfH
	DD	02ffc5H
	DD	02ffd1H
	DD	02ffe3H
	DD	02ffe7H
	DD	02fff5H
	DD	030005H
	DD	030023H
	DD	030031H
	DD	030035H
	DD	030037H
	DD	030049H
	DD	03004fH
	DD	03005bH
	DD	030065H
	DD	03006dH
	DD	030077H
	DD	030083H
	DD	03008fH
	DD	0300a1H
	DD	0300a3H
	DD	0300bfH
	DD	0300d1H
	DD	0300dfH
	DD	0300e5H
	DD	0300f5H
	DD	030107H
	DD	030109H
	DD	03010fH
	DD	030125H
	DD	03012bH
	DD	030137H
	DD	03013fH
	DD	030161H
	DD	03017fH
	DD	030181H
	DD	03018bH
	DD	030191H
	DD	03019fH
	DD	0301a9H
	DD	0301c3H
	DD	0301c7H
	DD	0301d5H
	DD	0301dbH
	DD	0301e1H
	DD	0301edH
	DD	0301fdH
	DD	030203H
	DD	030211H
	DD	03021bH
	DD	030227H
	DD	030229H
	DD	030253H
	DD	030257H
	DD	030265H
	DD	030271H
	DD	03027bH
	DD	030289H
	DD	03028dH
	DD	030295H
	DD	030299H
	DD	03029fH
	DD	0302adH
	DD	0302b1H
	DD	0302b3H
	DD	0302bfH
	DD	0302dbH
	DD	0302ddH
	DD	0302e3H
	DD	0302efH
	DD	0302f9H
	DD	0302fbH
	DD	030305H
	DD	030307H
	DD	03030dH
	DD	03032bH
	DD	03032fH
	DD	030341H
	DD	03034dH
	DD	030367H
	DD	030383H
	DD	030391H
	DD	0303a3H
	DD	0303afH
	DD	0303bfH
	DD	0303c1H
	DD	0303c5H
	DD	0303ddH
	DD	0303dfH
	DD	0303e9H
	DD	0303f5H
	DD	030409H
	DD	03040fH
	DD	030413H
	DD	03042dH
	DD	030433H
	DD	030439H
	DD	030443H
	DD	03044fH
	DD	030451H
	DD	03046dH
	DD	030479H
	DD	03047fH
	DD	030487H
	DD	03048dH
	DD	030493H
	DD	0304abH
	DD	0304afH
	DD	0304c7H
	DD	0304cdH
	DD	0304ffH
	DD	030503H
	DD	030505H
	DD	030515H
	DD	030521H
	DD	030527H
	DD	03052dH
	DD	03053bH
	DD	030545H
	DD	030547H
	DD	03054bH
	DD	030551H
	DD	030553H
	DD	03057dH
	DD	030581H
	DD	03058fH
	DD	03059bH
	DD	03059fH
	DD	0305b9H
	DD	0305c3H
	DD	0305cbH
	DD	0305d1H
	DD	0305ddH
	DD	0305efH
	DD	0305fbH
	DD	03061dH
	DD	030623H
	DD	030631H
	DD	030635H
	DD	03064dH
	DD	03064fH
	DD	030661H
	DD	03066bH
	DD	030671H
	DD	030673H
	DD	030685H
	DD	030689H
	DD	03069dH
	DD	0306a9H
	DD	0306b3H
	DD	0306c1H
	DD	0306cbH
	DD	0306cdH
	DD	0306e9H
	DD	0306f7H
	DD	0306fdH
	DD	030709H
	DD	03070dH
	DD	03071bH
	DD	030725H
	DD	030727H
	DD	03073dH
	DD	03073fH
	DD	030745H
	DD	03074fH
	DD	03075bH
	DD	030767H
	DD	030781H
	DD	030785H
	DD	030799H
	DD	0307abH
	DD	0307bdH
	DD	0307c1H
	DD	0307c7H
	DD	0307d5H
	DD	0307dfH
	DD	0307edH
	DD	0307f1H
	DD	0307f7H
	DD	030803H
	DD	030811H
	DD	030821H
	DD	03082dH
	DD	03083fH
	DD	03084dH
	DD	030869H
	DD	030871H
	DD	03089bH
	DD	0308a1H
	DD	0308a7H
	DD	0308abH
	DD	0308adH
	DD	0308b1H
	DD	0308b7H
	DD	0308b9H
	DD	0308c3H
	DD	0308cbH
	DD	0308f3H
	DD	0308f5H
	DD	030911H
	DD	030919H
	DD	03091dH
	DD	03091fH
	DD	030929H
	DD	03092fH
	DD	030937H
	DD	03093bH
	DD	030941H
	DD	030955H
	DD	03096dH
	DD	030979H
	DD	03097dH
	DD	03097fH
	DD	030989H
	DD	0309a9H
	DD	0309bfH
	DD	0309c5H
	DD	0309efH
	DD	0309f1H
	DD	030a0dH
	DD	030a19H
	DD	030a27H
	DD	030a2bH
	DD	030a4fH
	DD	030a5dH
	DD	030a63H
	DD	030a79H
	DD	030a91H
	DD	030a99H
	DD	030aa9H
	DD	030aafH
	DD	030abdH
	DD	030acdH
	DD	030ad3H
	DD	030ae7H
	DD	030aebH
	DD	030af3H
	DD	030af9H
	DD	030b05H
	DD	030b17H
	DD	030b1dH
	DD	030b21H
	DD	030b3bH
	DD	030b3fH
	DD	030b41H
	DD	030b4bH
	DD	030b4dH
	DD	030b63H
	DD	030b87H
	DD	030b8fH
	DD	030b9fH
	DD	030bb1H
	DD	030bb3H
	DD	030bc5H
	DD	030bd5H
	DD	030be9H
	DD	030bf5H
	DD	030bf9H
	DD	030bffH
	DD	030c07H
	DD	030c11H
	DD	030c29H
	DD	030c31H
	DD	030c3bH
	DD	030c3dH
	DD	030c47H
	DD	030c49H
	DD	030c61H
	DD	030c67H
	DD	030c77H
	DD	030c7fH
	DD	030c83H
	DD	030c85H
	DD	030c8bH
	DD	030c97H
	DD	030cadH
	DD	030cc1H
	DD	030cc5H
	DD	030cd1H
	DD	030ce5H
	DD	030cf1H
	DD	030cfbH
	DD	030cfdH
	DD	030d19H
	DD	030d1fH
	DD	030d3fH
	DD	030d43H
	DD	030d49H
	DD	030d51H
	DD	030d57H
	DD	030d5dH
	DD	030d61H
	DD	030d69H
	DD	030d7fH
	DD	030d97H
	DD	030db5H
	DD	030dc3H
	DD	030dd9H
	DD	030ddfH
	DD	030debH
	DD	030df1H
	DD	030df7H
	DD	030dffH
	DD	030e09H
	DD	030e23H
	DD	030e27H
	DD	030e2dH
	DD	030e41H
	DD	030e51H
	DD	030e65H
	DD	030e69H
	DD	030e83H
	DD	030e89H
	DD	030e95H
	DD	030e9fH
	DD	030ea5H
	DD	030eabH
	DD	030eb3H
	DD	030ebdH
	DD	030ebfH
	DD	030ed1H
	DD	030ed7H
	DD	030ef5H
	DD	030efbH
	DD	030f0dH
	DD	030f13H
	DD	030f23H
	DD	030f41H
	DD	030f79H
	DD	030f7dH
	DD	030f83H
	DD	030f8bH
	DD	030f8fH
	DD	030f95H
	DD	030fa1H
	DD	030fbfH
	DD	030fd1H
	DD	030fdfH
	DD	030ff1H
	DD	030ffbH
	DD	031009H
	DD	031013H
	DD	03101bH
	DD	031043H
	DD	03104bH
	DD	031055H
	DD	03105dH
	DD	031067H
	DD	03108bH
	DD	03109dH
	DD	0310a3H
	DD	0310a5H
	DD	0310b1H
	DD	0310bbH
	DD	0310c3H
	DD	0310c7H
	DD	0310cdH
	DD	0310dfH
	DD	0310e1H
	DD	03110bH
	DD	031117H
	DD	03111bH
	DD	03111dH
	DD	03112fH
	DD	031133H
	DD	031147H
	DD	03114dH
	DD	031159H
	DD	031171H
	DD	03118dH
	DD	031193H
	DD	03119fH
	DD	0311a1H
	DD	0311b3H
	DD	0311bfH
	DD	0311cbH
	DD	0311cfH
	DD	0311e9H
	DD	0311f3H
	DD	0311f9H
	DD	0311fbH
	DD	031211H
	DD	03121fH
	DD	031223H
	DD	031241H
	DD	031247H
	DD	03125bH
	DD	031271H
	DD	031279H
	DD	03128fH
	DD	0312adH
	DD	0312b9H
	DD	0312bbH
	DD	0312c5H
	DD	0312ddH
	DD	0312e9H
	DD	0312ebH
	DD	031301H
	DD	031313H
	DD	031315H
	DD	031319H
	DD	03131bH
	DD	031327H
	DD	03132dH
	DD	03134bH
	DD	031355H
	DD	031369H
	DD	03136dH
	DD	031375H
	DD	03137fH
	DD	03138bH
	DD	031397H
	DD	03139dH
	DD	0313b5H
	DD	0313bdH
	DD	0313c3H
	DD	0313c9H
	DD	0313d3H
	DD	0313e5H
	DD	0313edH
	DD	031403H
	DD	03140fH
	DD	03141dH
	DD	031427H
	DD	031429H
	DD	031435H
	DD	03143bH
	DD	03143fH
	DD	031445H
	DD	031451H
	DD	03145dH
	DD	03145fH
	DD	031463H
	DD	031465H
	DD	031469H
	DD	031477H
	DD	031499H
	DD	0314a1H
	DD	0314a5H
	DD	0314b3H
	DD	0314b7H
	DD	0314bfH
	DD	0314c3H
	DD	0314d1H
	DD	0314dbH
	DD	0314e1H
	DD	0314e9H
	DD	0314f5H
	DD	0314fbH
	DD	03150dH
	DD	031511H
	DD	031525H
	DD	03152fH
	DD	031541H
	DD	03154dH
	DD	03154fH
	DD	031553H
	DD	031567H
	DD	031573H
	DD	03157dH
	DD	031589H
	DD	03158fH
	DD	031591H
	DD	0315c7H
	DD	0315cbH
	DD	0315d9H
	DD	0315ebH
	DD	0315f7H
	DD	031603H
	DD	031625H
	DD	031631H
	DD	031633H
	DD	031645H
	DD	031657H
	DD	031663H
	DD	031667H
	DD	031675H
	DD	031679H
	DD	03168dH
	DD	031693H
	DD	031699H
	DD	0316a3H
	DD	0316a9H
	DD	0316c9H
	DD	0316e7H
	DD	0316f1H
	DD	0316fdH
	DD	031717H
	DD	031721H
	DD	031735H
	DD	031747H
	DD	031751H
	DD	03175fH
	DD	031775H
	DD	03177dH
	DD	031783H
	DD	03178dH
	DD	03178fH
	DD	0317a5H
	DD	0317abH
	DD	0317b7H
	DD	0317c5H
	DD	0317ddH
	DD	0317e9H
	DD	0317edH
	DD	0317fbH
	DD	0317ffH
	DD	031801H
	DD	031805H
	DD	031819H
	DD	03182fH
	DD	031841H
	DD	031847H
	DD	031859H
	DD	03186bH
	DD	03187dH
	DD	03187fH
	DD	031889H
	DD	03189bH
	DD	0318a9H
	DD	0318b3H
	DD	0318b5H
	DD	0318c5H
	DD	0318d7H
	DD	0318ddH
	DD	0318e5H
	DD	0318ebH
	DD	0318f7H
	DD	031903H
	DD	031909H
	DD	03190fH
	DD	03191fH
	DD	03192bH
	DD	031931H
	DD	03196dH
	DD	031985H
	DD	0319a5H
	DD	0319afH
	DD	0319c7H
	DD	0319c9H
	DD	0319cdH
	DD	0319d5H
	DD	0319dbH
	DD	0319e1H
	DD	0319f1H
	DD	031a0fH
	DD	031a1dH
	DD	031a2dH
	DD	031a2fH
	DD	031a35H
	DD	031a39H
	DD	031a3bH
	DD	031a4bH
	DD	031a4dH
	DD	031a57H
	DD	031a59H
	DD	031a63H
	DD	031a75H
	DD	031a77H
	DD	031a7bH
	DD	031a81H
	DD	031a99H
	DD	031a9bH
	DD	031aa5H
	DD	031aa7H
	DD	031ab9H
	DD	031ac3H
	DD	031ac5H
	DD	031b0bH
	DD	031b1dH
	DD	031b2bH
	DD	031b31H
	DD	031b3bH
	DD	031b47H
	DD	031b61H
	DD	031b6bH
	DD	031b79H
	DD	031b85H
	DD	031b89H
	DD	031b8bH
	DD	031b8fH
	DD	031b95H
	DD	031bc1H
	DD	031bf1H
	DD	031bf7H
	DD	031bfbH
	DD	031bfdH
	DD	031c0dH
	DD	031c1fH
	DD	031c21H
	DD	031c2dH
	DD	031c43H
	DD	031c51H
	DD	031c5dH
	DD	031c61H
	DD	031c79H
	DD	031c85H
	DD	031c87H
	DD	031c91H
	DD	031cabH
	DD	031cb1H
	DD	031cc1H
	DD	031cc3H
	DD	031cc9H
	DD	031cd5H
	DD	031cdfH
	DD	031ce7H
	DD	031cedH
	DD	031cf3H
	DD	031cf7H
	DD	031d0fH
	DD	031d1bH
	DD	031d23H
	DD	031d45H
	DD	031d4bH
	DD	031d65H
	DD	031d69H
	DD	031d6fH
	DD	031d77H
	DD	031d81H
	DD	031d83H
	DD	031d8dH
	DD	031dc9H
	DD	031ddbH
	DD	031e0bH
	DD	031e0dH
	DD	031e17H
	DD	031e1fH
	DD	031e29H
	DD	031e2bH
	DD	031e41H
	DD	031e47H
	DD	031e49H
	DD	031e4fH
	DD	031e53H
	DD	031e59H
	DD	031e6dH
	DD	031e8bH
	DD	031e8fH
	DD	031e95H
	DD	031e97H
	DD	031e9bH
	DD	031eadH
	DD	031ec1H
	DD	031ec7H
	DD	031eddH
	DD	031edfH
	DD	031ee5H
	DD	031ee9H
	DD	031f0dH
	DD	031f13H
	DD	031f27H
	DD	031f2bH
	DD	031f37H
	DD	031f39H
	DD	031f45H
	DD	031f4fH
	DD	031f61H
	DD	031f7bH
	DD	031f87H
	DD	031fa3H
	DD	031fafH
	DD	031fbdH
	DD	031fcdH
	DD	031fcfH
	DD	031fedH
	DD	031ff7H
	DD	031ff9H
	DD	031ffdH
	DD	032003H
	DD	032015H
	DD	032039H
	DD	03203bH
	DD	032047H
	DD	032057H
	DD	032071H
	DD	032075H
	DD	03207bH
	DD	032083H
	DD	032093H
	DD	0320adH
	DD	0320b3H
	DD	0320b7H
	DD	0320dbH
	DD	0320e7H
	DD	0320e9H
	DD	0320f3H
	DD	032107H
	DD	03210dH
	DD	032119H
	DD	032129H
	DD	03212fH
	DD	032137H
	DD	032149H
	DD	03214dH
	DD	032155H
	DD	03215fH
	DD	032165H
	DD	032173H
	DD	032183H
	DD	032191H
	DD	03219bH
	DD	03219dH
	DD	0321a7H
	DD	0321b5H
	DD	0321c5H
	DD	0321d3H
	DD	0321f1H
	DD	0321fbH
	DD	032207H
	DD	03220fH
	DD	03221bH
	DD	03222dH
	DD	03224fH
	DD	032255H
	DD	032257H
	DD	032269H
	DD	03226dH
	DD	03226fH
	DD	032273H
	DD	032279H
	DD	032281H
	DD	03228dH
	DD	032297H
	DD	0322a5H
	DD	0322abH
	DD	0322afH
	DD	0322b5H
	DD	0322c3H
	DD	0322cfH
	DD	0322d9H
	DD	0322e1H
	DD	0322edH
	DD	0322f1H
	DD	0322f7H
	DD	032315H
	DD	032323H
	DD	032327H
	DD	032333H
	DD	03233bH
	DD	032341H
	DD	032353H
	DD	032359H
	DD	03235dH
	DD	03235fH
	DD	032387H
	DD	032399H
	DD	0323bfH
	DD	0323c3H
	DD	0323d7H
	DD	0323f9H
	DD	0323ffH
	DD	03240dH
	DD	032417H
	DD	032437H
	DD	03243bH
	DD	032459H
	DD	032471H
	DD	03247dH
	DD	03247fH
	DD	032485H
	DD	03248bH
	DD	03248fH
	DD	03249dH
	DD	0324a7H
	DD	0324a9H
	DD	0324b9H
	DD	0324c5H
	DD	0324cbH
	DD	0324d1H
	DD	0324d7H
	DD	0324dfH
	DD	0324e3H
	DD	0324f5H
	DD	0324fdH
	DD	032501H
	DD	032503H
	DD	03252bH
	DD	032549H
	DD	032561H
	DD	032563H
	DD	032567H
	DD	03256fH
	DD	032575H
	DD	03257bH
	DD	032581H
	DD	03258dH
	DD	032599H
	DD	03259dH
	DD	0325a9H
	DD	0325abH
	DD	0325b7H
	DD	0325c1H
	DD	0325c7H
	DD	0325c9H
	DD	0325d3H
	DD	0325dbH
	DD	0325dfH
	DD	032605H
	DD	03260bH
	DD	03260fH
	DD	032621H
	DD	03262fH
	DD	03263fH
	DD	032647H
	DD	03264bH
	DD	03264dH
	DD	032653H
	DD	03266fH
	DD	03267dH
	DD	032683H
	DD	03268dH
	DD	032693H
	DD	032699H
	DD	0326a5H
	DD	0326b7H
	DD	0326bfH
	DD	0326cfH
	DD	0326d7H
	DD	032701H
	DD	032705H
	DD	03270bH
	DD	03271fH
	DD	032723H
	DD	03272fH
	DD	032731H
	DD	03273bH
	DD	03276bH
	DD	03279dH
	DD	0327bbH
	DD	0327bfH
	DD	0327d3H
	DD	0327d7H
	DD	0327ddH
	DD	0327e3H
	DD	0327e5H
	DD	0327ebH
	DD	03281fH
	DD	032827H
	DD	032831H
	DD	03283dH
	DD	03283fH
	DD	032845H
	DD	03284bH
	DD	032855H
	DD	03285bH
	DD	032867H
	DD	032869H
	DD	032891H
	DD	0328a5H
	DD	0328a9H
	DD	0328b5H
	DD	0328bdH
	DD	0328c1H
	DD	0328d5H
	DD	0328e1H
	DD	0328e7H
	DD	032909H
	DD	032911H
	DD	032917H
	DD	032923H
	DD	032941H
	DD	032953H
	DD	032957H
	DD	03295dH
	DD	03295fH
	DD	03297bH
	DD	032987H
	DD	032989H
	DD	032999H
	DD	0329a5H
	DD	0329b7H
	DD	0329bdH
	DD	0329c5H
	DD	0329cbH
	DD	0329e1H
	DD	0329e3H
	DD	0329edH
	DD	0329efH
	DD	032a07H
	DD	032a0bH
	DD	032a11H
	DD	032a29H
	DD	032a31H
	DD	032a49H
	DD	032a53H
	DD	032a61H
	DD	032a67H
	DD	032a6dH
	DD	032a77H
	DD	032a79H
	DD	032a83H
	DD	032a89H
	DD	032a95H
	DD	032a97H
	DD	032a9dH
	DD	032aa1H
	DD	032aa3H
	DD	032ab5H
	DD	032abbH
	DD	032abfH
	DD	032acbH
	DD	032ad1H
	DD	032ae5H
	DD	032ae9H
	DD	032b03H
	DD	032b0dH
	DD	032b1bH
	DD	032b25H
	DD	032b2dH
	DD	032b37H
	DD	032b39H
	DD	032b3fH
	DD	032b5dH
	DD	032b67H
	DD	032b69H
	DD	032b7fH
	DD	032b93H
	DD	032b99H
	DD	032bb5H
	DD	032bb7H
	DD	032bc3H
	DD	032bcdH
	DD	032bd9H
	DD	032be7H
	DD	032bfdH
	DD	032c05H
	DD	032c33H
	DD	032c3bH
	DD	032c45H
	DD	032c4bH
	DD	032c51H
	DD	032c5fH
	DD	032c63H
	DD	032c65H
	DD	032c7dH
	DD	032c81H
	DD	032c83H
	DD	032c89H
	DD	032ca5H
	DD	032cb1H
	DD	032cb9H
	DD	032cc3H
	DD	032cc9H
	DD	032ce3H
	DD	032cefH
	DD	032cf9H
	DD	032d01H
	DD	032d0bH
	DD	032d0dH
	DD	032d13H
	DD	032d3dH
	DD	032d4fH
	DD	032d55H
	DD	032d59H
	DD	032d5fH
	DD	032d67H
	DD	032d7dH
	DD	032d85H
	DD	032d95H
	DD	032d97H
	DD	032d9bH
	DD	032da3H
	DD	032db5H
	DD	032dbfH
	DD	032dcdH
	DD	032dd1H
	DD	032defH
	DD	032dfbH
	DD	032e03H
	DD	032e07H
	DD	032e09H
	DD	032e19H
	DD	032e31H
	DD	032e39H
	DD	032e49H
	DD	032e4bH
	DD	032e4fH
	DD	032e55H
	DD	032e69H
	DD	032e6dH
	DD	032e73H
	DD	032e75H
	DD	032e7fH
	DD	032e81H
	DD	032e87H
	DD	032e91H
	DD	032ea9H
	DD	032ec1H
	DD	032ecdH
	DD	032ecfH
	DD	032ee1H
	DD	032ef3H
	DD	032ef7H
	DD	032f11H
	DD	032f1bH
	DD	032f21H
	DD	032f2fH
	DD	032f39H
	DD	032f3bH
	DD	032f51H
	DD	032f59H
	DD	032f63H
	DD	032f77H
	DD	032f93H
	DD	032f9fH
	DD	032fa7H
	DD	032fc5H
	DD	032fcbH
	DD	032fedH
	DD	032ff9H
	DD	032ffbH
	DD	03300bH
	DD	03301fH
	DD	033023H
	DD	033025H
	DD	033041H
	DD	033043H
	DD	03305fH
	DD	033061H
	DD	033065H
	DD	03307dH
	DD	033085H
	DD	03308fH
	DD	0330a7H
	DD	0330afH
	DD	0330c1H
	DD	0330e3H
	DD	0330fbH
	DD	033107H
	DD	033115H
	DD	03311bH
	DD	033125H
	DD	033131H
	DD	033133H
	DD	03313dH
	DD	033145H
	DD	03314bH
	DD	033151H
	DD	033161H
	DD	033169H
	DD	03316fH
	DD	033173H
	DD	033175H
	DD	033193H
	DD	03319fH
	DD	0331a5H
	DD	0331afH
	DD	0331b5H
	DD	0331c3H
	DD	0331c9H
	DD	0331cdH
	DD	0331cfH
	DD	0331dbH
	DD	0331e5H
	DD	0331f1H
	DD	0331f9H
	DD	033217H
	DD	033221H
	DD	033229H
	DD	033233H
	DD	03323fH
	DD	033245H
	DD	033259H
	DD	03326fH
	DD	03327dH
	DD	033287H
	DD	03328dH
	DD	03329bH
	DD	03329fH
	DD	0332a1H
	DD	0332abH
	DD	0332adH
	DD	0332bdH
	DD	0332d5H
	DD	0332d7H
	DD	0332e7H
	DD	0332efH
	DD	0332fbH
	DD	033305H
	DD	033317H
	DD	033325H
	DD	03332bH
	DD	033335H
	DD	033337H
	DD	03334fH
	DD	033367H
	DD	03336bH
	DD	03337dH
	DD	033389H
	DD	033391H
	DD	033395H
	DD	03339bH
	DD	03339dH
	DD	0333adH
	DD	0333bbH
	DD	0333c1H
	DD	0333c5H
	DD	0333dfH
	DD	0333fdH
	DD	033407H
	DD	033409H
	DD	033413H
	DD	033421H
	DD	033427H
	DD	033433H
	DD	033439H
	DD	03343fH
	DD	033443H
	DD	03345bH
	DD	033463H
	DD	03346fH
	DD	033475H
	DD	033485H
	DD	033497H
	DD	0334b1H
	DD	0334b5H
	DD	0334bdH
	DD	0334c1H
	DD	0334cfH
	DD	0334d3H
	DD	0334dbH
	DD	0334dfH
	DD	0334edH
	DD	0334f9H
	DD	0334fdH
	DD	03350bH
	DD	03350fH
	DD	033511H
	DD	033521H
	DD	033535H
	DD	033539H
	DD	033541H
	DD	033547H
	DD	033551H
	DD	033557H
	DD	033565H
	DD	03356bH
	DD	03357bH
	DD	03358dH
	DD	03358fH
	DD	033593H
	DD	0335abH
	DD	0335b7H
	DD	0335b9H
	DD	0335d7H
	DD	0335e1H
	DD	0335e3H
	DD	0335e7H
	DD	0335f5H
	DD	033605H
	DD	03361dH
	DD	033623H
	DD	033631H
	DD	033637H
	DD	03363bH
	DD	033643H
	DD	03365bH
	DD	03365fH
	DD	033665H
	DD	03367dH
	DD	0336a7H
	DD	0336a9H
	DD	0336bbH
	DD	0336c7H
	DD	0336d3H
	DD	0336e3H
	DD	0336efH
	DD	033715H
	DD	033719H
	DD	03371fH
	DD	03372bH
	DD	033733H
	DD	033749H
	DD	033755H
	DD	033773H
	DD	033779H
	DD	03377bH
	DD	033787H
	DD	03378bH
	DD	033797H
	DD	0337a5H
	DD	0337a9H
	DD	0337b5H
	DD	0337d5H
	DD	0337dbH
	DD	0337dfH
	DD	0337e1H
	DD	0337ebH
	DD	0337f1H
	DD	0337ffH
	DD	033811H
	DD	033817H
	DD	03383fH
	DD	03385fH
	DD	033869H
	DD	03386bH
	DD	033875H
	DD	033877H
	DD	03387bH
	DD	033881H
	DD	033895H
	DD	033899H
	DD	0338b9H
	DD	0338cfH
	DD	0338d1H
	DD	0338e9H
	DD	0338f3H
	DD	0338f9H
	DD	0338ffH
	DD	03390dH
	DD	033911H
	DD	033913H
	DD	03391dH
	DD	03391fH
	DD	033929H
	DD	03392fH
	DD	033947H
	DD	033953H
	DD	03395bH
	DD	033961H
	DD	033971H
	DD	033977H
	DD	033985H
	DD	03398bH
	DD	033995H
	DD	0339a9H
	DD	0339adH
	DD	0339cbH
	DD	0339e3H
	DD	0339e9H
	DD	0339f1H
	DD	033a01H
	DD	033a0dH
	DD	033a25H
	DD	033a2bH
	DD	033a2dH
	DD	033a33H
	DD	033a57H
	DD	033a67H
	DD	033a73H
	DD	033a75H
	DD	033a7fH
	DD	033a8dH
	DD	033aa3H
	DD	033ab7H
	DD	033abbH
	DD	033ac9H
	DD	033acdH
	DD	033acfH
	DD	033ae1H
	DD	033aebH
	DD	033aedH
	DD	033affH
	DD	033b0bH
	DD	033b0fH
	DD	033b1dH
	DD	033b23H
	DD	033b41H
	DD	033b45H
	DD	033b4dH
	DD	033b59H
	DD	033b63H
	DD	033b69H
	DD	033b93H
	DD	033b9bH
	DD	033ba1H
	DD	033ba5H
	DD	033ba7H
	DD	033bb1H
	DD	033bb3H
	DD	033bd7H
	DD	033bdbH
	DD	033bddH
	DD	033be7H
	DD	033bedH
	DD	033c01H
	DD	033c0bH
	DD	033c1dH
	DD	033c3dH
	DD	033c47H
	DD	033c59H
	DD	033c71H
	DD	033c83H
	DD	033c95H
	DD	033c9bH
	DD	033ca3H
	DD	033cadH
	DD	033cc1H
	DD	033cc7H
	DD	033cd7H
	DD	033cebH
	DD	033cefH
	DD	033cf1H
	DD	033d03H
	DD	033d0fH
	DD	033d13H
	DD	033d39H
	DD	033d45H
	DD	033d49H
	DD	033d81H
	DD	033d91H
	DD	033d9fH
	DD	033dbbH
	DD	033dc3H
	DD	033dc7H
	DD	033dd5H
	DD	033ddfH
	DD	033de5H
	DD	033dedH
	DD	033df3H
	DD	033dffH
	DD	033e15H
	DD	033e1bH
	DD	033e4dH
	DD	033e51H
	DD	033e5dH
	DD	033e63H
	DD	033e6bH
	DD	033e71H
	DD	033e93H
	DD	033e99H
	DD	033eabH
	DD	033ebdH
	DD	033ebfH
	DD	033ec5H
	DD	033ecbH
	DD	033eddH
	DD	033f29H
	DD	033f37H
	DD	033f41H
	DD	033f5bH
	DD	033f65H
	DD	033f6bH
	DD	033f73H
	DD	033f83H
	DD	033f85H
	DD	033f89H
	DD	033f91H
	DD	033fa1H
	DD	033fa7H
	DD	033fadH
	DD	033fb5H
	DD	033fbbH
	DD	033fe9H
	DD	033ff5H
	DD	033ffbH
	DD	034007H
	DD	03401bH
	DD	03401fH
	DD	034025H
	DD	034033H
	DD	03404bH
	DD	034057H
	DD	034063H
	DD	034069H
	DD	03407fH
	DD	03408bH
	DD	03408dH
	DD	034093H
	DD	03409dH
	DD	0340b5H
	DD	0340bdH
	DD	0340c9H
	DD	0340d3H
	DD	0340d9H
	DD	0340e1H
	DD	0340e7H
	DD	0340edH
	DD	0340ffH
	DD	034105H
	DD	03410fH
	DD	034121H
	DD	034127H
	DD	034129H
	DD	03413bH
	DD	034147H
	DD	034151H
	DD	034159H
	DD	034165H
	DD	03416fH
	DD	034171H
	DD	034187H
	DD	03418fH
	DD	034195H
	DD	03419fH
	DD	0341c9H
	DD	0341d5H
	DD	0341dbH
	DD	0341e9H
	DD	0341f3H
	DD	034213H
	DD	03421dH
	DD	034223H
	DD	034231H
	DD	034235H
	DD	034255H
	DD	03425fH
	DD	03426bH
	DD	03426dH
	DD	034277H
	DD	034285H
	DD	034289H
	DD	034291H
	DD	03429bH
	DD	0342d1H
	DD	0342d9H
	DD	0342dfH
	DD	0342e9H
	DD	0342f7H
	DD	03431fH
	DD	034327H
	DD	03433dH
	DD	034343H
	DD	034349H
	DD	034357H
	DD	034363H
	DD	034379H
	DD	03437fH
	DD	03438dH
	DD	03439fH
	DD	0343a9H
	DD	0343b7H
	DD	0343bbH
	DD	0343bdH
	DD	0343c1H
	DD	0343d5H
	DD	0343d9H
	DD	0343e5H
	DD	0343f3H
	DD	0343f7H
	DD	0343f9H
	DD	034405H
	DD	03440fH
	DD	034411H
	DD	03441bH
	DD	034423H
	DD	03442fH
	DD	034435H
	DD	034447H
	DD	03444bH
	DD	034471H
	DD	034475H
	DD	03447dH
	DD	034483H
	DD	034493H
	DD	0344a1H
	DD	0344adH
	DD	0344c3H
	DD	0344c5H
	DD	0344cbH
	DD	0344ddH
	DD	0344e3H
	DD	0344f3H
	DD	03450bH
	DD	034519H
	DD	034525H
	DD	03454fH
	DD	03455bH
	DD	034565H
	DD	03456dH
	DD	034577H
	DD	03457fH
	DD	0345a1H
	DD	0345a7H
	DD	0345b3H
	DD	0345b9H
	DD	0345bfH
	DD	0345c5H
	DD	0345d1H
	DD	0345d3H
	DD	0345e3H
	DD	0345ebH
	DD	0345f5H
	DD	0345f7H
	DD	034603H
	DD	03460dH
	DD	03461fH
	DD	034621H
	DD	03463dH
	DD	03464bH
	DD	03464fH
	DD	034667H
	DD	03466fH
	DD	03467bH
	DD	034681H
	DD	034687H
	DD	03468bH
	DD	034691H
	DD	0346a3H
	DD	0346c3H
	DD	0346c9H
	DD	0346cdH
	DD	0346d5H
	DD	0346e7H
	DD	0346ebH
	DD	0346f3H
	DD	0346ffH
	DD	034703H
	DD	034705H
	DD	034717H
	DD	03471bH
	DD	034721H
	DD	03472fH
	DD	034741H
	DD	034745H
	DD	034753H
	DD	034763H
	DD	03476bH
	DD	034781H
	DD	03479bH
	DD	03479fH
	DD	0347b7H
	DD	0347cbH
	DD	0347d1H
	DD	03480bH
	DD	034817H
	DD	034825H
	DD	03482fH
	DD	034853H
	DD	034865H
	DD	034867H
	DD	034871H
	DD	034879H
	DD	03488bH
	DD	03488fH
	DD	034897H
	DD	03489dH
	DD	0348c7H
	DD	0348d1H
	DD	0348ddH
	DD	0348e9H
	DD	0348efH
	DD	034901H
	DD	03490dH
	DD	034915H
	DD	034921H
	DD	034937H
	DD	034939H
	DD	03493fH
	DD	034955H
	DD	03495dH
	DD	034961H
	DD	034967H
	DD	034979H
	DD	034993H
	DD	034997H
	DD	0349a3H
	DD	0349a5H
	DD	0349afH
	DD	0349bbH
	DD	0349c9H
	DD	0349cfH
	DD	0349d3H
	DD	0349e1H
	DD	0349ebH
	DD	034a0bH
	DD	034a15H
	DD	034a23H
	DD	034a41H
	DD	034a65H
	DD	034a6bH
	DD	034a81H
	DD	034a87H
	DD	034a89H
	DD	034a8dH
	DD	034aabH
	DD	034ab9H
	DD	034ac9H
	DD	034ad7H
	DD	034adbH
	DD	034af5H
	DD	034af9H
	DD	034b13H
	DD	034b19H
	DD	034b23H
	DD	034b2bH
	DD	034b31H
	DD	034b37H
	DD	034b55H
	DD	034b5bH
	DD	034b65H
	DD	034b71H
	DD	034b77H
	DD	034b83H
	DD	034b91H
	DD	034b97H
	DD	034badH
	DD	034bafH
	DD	034bd7H
	DD	034be5H
	DD	034bfdH
	DD	034c07H
	DD	034c1bH
	DD	034c27H
	DD	034c2bH
	DD	034c31H
	DD	034c37H
	DD	034c3fH
	DD	034c45H
	DD	034c55H
	DD	034c5dH
	DD	034c6dH
	DD	034c73H
	DD	034c93H
	DD	034c99H
	DD	034ca9H
	DD	034cc3H
	DD	034cc7H
	DD	034ce1H
	DD	034cfdH
	DD	034cffH
	DD	034d09H
	DD	034d1bH
	DD	034d33H
	DD	034d35H
	DD	034d3bH
	DD	034d4dH
	DD	034d51H
	DD	034d65H
	DD	034d6fH
	DD	034d83H
	DD	034da1H
	DD	034dadH
	DD	034dbdH
	DD	034dcbH
	DD	034de7H
	DD	034de9H
	DD	034df9H
	DD	034dfbH
	DD	034e01H
	DD	034e1fH
	DD	034e29H
	DD	034e41H
	DD	034e47H
	DD	034e49H
	DD	034e4dH
	DD	034e55H
	DD	034e67H
	DD	034e7fH
	DD	034e8fH
	DD	034e9bH
	DD	034ea7H
	DD	034eafH
	DD	034eb5H
	DD	034eb9H
	DD	034ecbH
	DD	034ecdH
	DD	034ed3H
	DD	034ed7H
	DD	034ee3H
	DD	034efdH
	DD	034f09H
	DD	034f13H
	DD	034f1bH
	DD	034f2dH
	DD	034f43H
	DD	034f45H
	DD	034f4fH
	DD	034f55H
	DD	034f57H
	DD	034f73H
	DD	034f87H
	DD	034f8dH
	DD	034f9fH
	DD	034fa9H
	DD	034fabH
	DD	034fc3H
	DD	034fc9H
	DD	034fe1H
	DD	034fedH
	DD	034ff9H
	DD	035017H
	DD	03501dH
	DD	035021H
	DD	035045H
	DD	03504bH
	DD	035051H
	DD	03506fH
	DD	035071H
	DD	035077H
	DD	035083H
	DD	035087H
	DD	03508dH
	DD	035099H
	DD	0350a5H
	DD	0350b7H
	DD	0350dbH
	DD	0350ddH
	DD	0350e1H
	DD	0350e7H
	DD	0350f5H
	DD	0350f9H
	DD	0350fbH
	DD	035107H
	DD	035111H
	DD	035113H
	DD	035117H
	DD	035119H
	DD	03512bH
	DD	035135H
	DD	035141H
	DD	035143H
	DD	03514dH
	DD	035155H
	DD	03515fH
	DD	035171H
	DD	035177H
	DD	035191H
	DD	03519bH
	DD	0351adH
	DD	0351afH
	DD	0351d7H
	DD	0351d9H
	DD	0351e5H
	DD	0351e9H
	DD	0351ebH
	DD	035213H
	DD	03522bH
	DD	03523dH
	DD	035243H
	DD	035251H
	DD	035257H
	DD	03525bH
	DD	035261H
	DD	035275H
	DD	03527fH
	DD	035285H
	DD	03528bH
	DD	035293H
	DD	0352abH
	DD	0352b5H
	DD	0352c1H
	DD	0352dfH
	DD	0352e5H
	DD	0352f9H
	DD	035303H
	DD	03532dH
	DD	035333H
	DD	035335H
	DD	03534dH
	DD	035351H
	DD	035371H
	DD	03537bH
	DD	03537dH
	DD	035393H
	DD	0353a5H
	DD	0353bfH
	DD	0353d5H
	DD	0353ddH
	DD	0353e1H
	DD	0353e3H
	DD	0353e7H
	DD	0353fbH
	DD	0353ffH
	DD	035405H
	DD	035413H
	DD	035419H
	DD	03541fH
	DD	035425H
	DD	03543bH
	DD	03544fH
	DD	035465H
	DD	035473H
	DD	035479H
	DD	035489H
	DD	0354a7H
	DD	0354afH
	DD	0354f5H
	DD	0354fbH
	DD	035503H
	DD	03550dH
	DD	035515H
	DD	035521H
	DD	035531H
	DD	035533H
	DD	035537H
	DD	035545H
	DD	03554fH
	DD	035555H
	DD	03555bH
	DD	03555dH
	DD	03556fH
	DD	03558dH
	DD	035591H
	DD	035599H
	DD	03559fH
	DD	0355a3H
	DD	0355b5H
	DD	0355b7H
	DD	0355d3H
	DD	0355dfH
	DD	0355e7H
	DD	0355f3H
	DD	0355ffH
	DD	035603H
	DD	035605H
	DD	035611H
	DD	03561bH
	DD	035621H
	DD	035635H
	DD	035639H
	DD	035657H
	DD	03565dH
	DD	03565fH
	DD	035663H
	DD	035671H
	DD	03567dH
	DD	035689H
	DD	03569fH
	DD	0356adH
	DD	0356b9H
	DD	0356c3H
	DD	0356d1H
	DD	0356d7H
	DD	0356dbH
	DD	0356e1H
	DD	0356e9H
	DD	0356f9H
	DD	035707H
	DD	03572bH
	DD	03573dH
	DD	035743H
	DD	035753H
	DD	035759H
	DD	03575bH
	DD	03576bH
	DD	03576dH
	DD	035771H
	DD	035779H
	DD	035789H
	DD	03578bH
	DD	035797H
	DD	0357a1H
	DD	0357adH
	DD	0357b3H
	DD	0357bfH
	DD	0357cbH
	DD	0357d3H
	DD	0357d9H
	DD	0357dfH
	DD	0357efH
	DD	0357fdH
	DD	035807H
	DD	035821H
	DD	035833H
	DD	035851H
	DD	035857H
	DD	035873H
	DD	03588dH
	DD	035891H
	DD	03589dH
	DD	0358a5H
	DD	0358afH
	DD	0358b1H
	DD	0358d9H
	DD	0358e1H
	DD	0358ebH
	DD	0358f1H
	DD	0358fdH
	DD	03590fH
	DD	035911H
	DD	035929H
	DD	03592dH
	DD	03593bH
	DD	035947H
	DD	03594bH
	DD	035963H
	DD	03596fH
	DD	03597dH
	DD	035983H
	DD	035989H
	DD	03598dH
	DD	03599bH
	DD	0359b9H
	DD	0359c3H
	DD	0359cfH
	DD	0359d7H
	DD	0359ddH
	DD	0359e3H
	DD	0359edH
	DD	0359ffH
	DD	035a01H
	DD	035a1dH
	DD	035a1fH
	DD	035a23H
	DD	035a29H
	DD	035a3bH
	DD	035a49H
	DD	035a4fH
	DD	035a53H
	DD	035a65H
	DD	035a6dH
	DD	035a71H
	DD	035a73H
	DD	035a77H
	DD	035a8bH
	DD	035a95H
	DD	035a97H
	DD	035aa1H
	DD	035aafH
	DD	035ab5H
	DD	035abfH
	DD	035ac7H
	DD	035acbH
	DD	035adfH
	DD	035ae9H
	DD	035af1H
	DD	035b07H
	DD	035b0dH
	DD	035b1bH
	DD	035b21H
	DD	035b25H
	DD	035b27H
	DD	035b31H
	DD	035b37H
	DD	035b43H
	DD	035b49H
	DD	035b4bH
	DD	035b4fH
	DD	035b69H
	DD	035b6dH
	DD	035b73H
	DD	035b75H
	DD	035b99H
	DD	035b9fH
	DD	035bdbH
	DD	035bedH
	DD	035bf3H
	DD	035bf7H
	DD	035c03H
	DD	035c09H
	DD	035c11H
	DD	035c1dH
	DD	035c39H
	DD	035c53H
	DD	035c77H
	DD	035c83H
	DD	035c8dH
	DD	035c93H
	DD	035ca7H
	DD	035cadH
	DD	035cbfH
	DD	035cc5H
	DD	035cc9H
	DD	035cd1H
	DD	035cd5H
	DD	035ce7H
	DD	035cefH
	DD	035cf3H
	DD	035cfbH
	DD	035d05H
	DD	035d1fH
	DD	035d35H
	DD	035d37H
	DD	035d5fH
	DD	035d61H
	DD	035d71H
	DD	035d79H
	DD	035d7fH
	DD	035d89H
	DD	035d8fH
	DD	035d9dH
	DD	035da3H
	DD	035dadH
	DD	035dc5H
	DD	035df7H
	DD	035dfbH
	DD	035e01H
	DD	035e09H
	DD	035e0fH
	DD	035e1bH
	DD	035e25H
	DD	035e31H
	DD	035e4bH
	DD	035e55H
	DD	035e63H
	DD	035e6fH
	DD	035e75H
	DD	035e79H
	DD	035e87H
	DD	035e8bH
	DD	035ea9H
	DD	035ebbH
	DD	035ebdH
	DD	035ec9H
	DD	035ecdH
	DD	035ecfH
	DD	035ed9H
	DD	035ee1H
	DD	035ee5H
	DD	035ee7H
	DD	035eebH
	DD	035ef7H
	DD	035f03H
	DD	035f05H
	DD	035f0bH
	DD	035f2dH
	DD	035f5dH
	DD	035f77H
	DD	035f83H
	DD	035f8dH
	DD	035f8fH
	DD	035f95H
	DD	035f9bH
	DD	035f9fH
	DD	035fa5H
	DD	035fadH
	DD	035fe7H
	DD	035ff3H
	DD	035ff5H
	DD	03600dH
	DD	036011H
	DD	036013H
	DD	036019H
	DD	036023H
	DD	03602bH
	DD	036031H
	DD	036037H
	DD	036043H
	DD	03604dH
	DD	036061H
	DD	036077H
	DD	03607fH
	DD	036085H
	DD	03608fH
	DD	0360d1H
	DD	0360d7H
	DD	0360d9H
	DD	0360e3H
	DD	0360e5H
	DD	036107H
	DD	03610dH
	DD	036115H
	DD	03611fH
	DD	036125H
	DD	036131H
	DD	036139H
	DD	036145H
	DD	036161H
	DD	036163H
	DD	03616dH
	DD	03617fH
	DD	03618dH
	DD	036193H
	DD	0361a3H
	DD	0361b5H
	DD	0361b7H
	DD	0361d5H
	DD	0361d9H
	DD	0361dbH
	DD	0361e7H
	DD	0361edH
	DD	03620bH
	DD	036211H
	DD	036215H
	DD	036217H
	DD	03621bH
	DD	036221H
	DD	036229H
	DD	036233H
	DD	03624dH
	DD	036265H
	DD	03626fH
