; Listing generated by Microsoft (R) Optimizing Compiler Version 16.00.30319.01 

	TITLE	D:\windows\belial\crypt\Rijndael.c
	.686P
	.XMM
	include listing.inc
	.model	flat

INCLUDELIB MSVCRTD
INCLUDELIB OLDNAMES

CONST	SEGMENT
_sbox	DB	063H
	DB	07cH
	DB	077H
	DB	07bH
	DB	0f2H
	DB	06bH
	DB	06fH
	DB	0c5H
	DB	030H
	DB	01H
	DB	067H
	DB	02bH
	DB	0feH
	DB	0d7H
	DB	0abH
	DB	076H
	DB	0caH
	DB	082H
	DB	0c9H
	DB	07dH
	DB	0faH
	DB	059H
	DB	047H
	DB	0f0H
	DB	0adH
	DB	0d4H
	DB	0a2H
	DB	0afH
	DB	09cH
	DB	0a4H
	DB	072H
	DB	0c0H
	DB	0b7H
	DB	0fdH
	DB	093H
	DB	026H
	DB	036H
	DB	03fH
	DB	0f7H
	DB	0ccH
	DB	034H
	DB	0a5H
	DB	0e5H
	DB	0f1H
	DB	071H
	DB	0d8H
	DB	031H
	DB	015H
	DB	04H
	DB	0c7H
	DB	023H
	DB	0c3H
	DB	018H
	DB	096H
	DB	05H
	DB	09aH
	DB	07H
	DB	012H
	DB	080H
	DB	0e2H
	DB	0ebH
	DB	027H
	DB	0b2H
	DB	075H
	DB	09H
	DB	083H
	DB	02cH
	DB	01aH
	DB	01bH
	DB	06eH
	DB	05aH
	DB	0a0H
	DB	052H
	DB	03bH
	DB	0d6H
	DB	0b3H
	DB	029H
	DB	0e3H
	DB	02fH
	DB	084H
	DB	053H
	DB	0d1H
	DB	00H
	DB	0edH
	DB	020H
	DB	0fcH
	DB	0b1H
	DB	05bH
	DB	06aH
	DB	0cbH
	DB	0beH
	DB	039H
	DB	04aH
	DB	04cH
	DB	058H
	DB	0cfH
	DB	0d0H
	DB	0efH
	DB	0aaH
	DB	0fbH
	DB	043H
	DB	04dH
	DB	033H
	DB	085H
	DB	045H
	DB	0f9H
	DB	02H
	DB	07fH
	DB	050H
	DB	03cH
	DB	09fH
	DB	0a8H
	DB	051H
	DB	0a3H
	DB	040H
	DB	08fH
	DB	092H
	DB	09dH
	DB	038H
	DB	0f5H
	DB	0bcH
	DB	0b6H
	DB	0daH
	DB	021H
	DB	010H
	DB	0ffH
	DB	0f3H
	DB	0d2H
	DB	0cdH
	DB	0cH
	DB	013H
	DB	0ecH
	DB	05fH
	DB	097H
	DB	044H
	DB	017H
	DB	0c4H
	DB	0a7H
	DB	07eH
	DB	03dH
	DB	064H
	DB	05dH
	DB	019H
	DB	073H
	DB	060H
	DB	081H
	DB	04fH
	DB	0dcH
	DB	022H
	DB	02aH
	DB	090H
	DB	088H
	DB	046H
	DB	0eeH
	DB	0b8H
	DB	014H
	DB	0deH
	DB	05eH
	DB	0bH
	DB	0dbH
	DB	0e0H
	DB	032H
	DB	03aH
	DB	0aH
	DB	049H
	DB	06H
	DB	024H
	DB	05cH
	DB	0c2H
	DB	0d3H
	DB	0acH
	DB	062H
	DB	091H
	DB	095H
	DB	0e4H
	DB	079H
	DB	0e7H
	DB	0c8H
	DB	037H
	DB	06dH
	DB	08dH
	DB	0d5H
	DB	04eH
	DB	0a9H
	DB	06cH
	DB	056H
	DB	0f4H
	DB	0eaH
	DB	065H
	DB	07aH
	DB	0aeH
	DB	08H
	DB	0baH
	DB	078H
	DB	025H
	DB	02eH
	DB	01cH
	DB	0a6H
	DB	0b4H
	DB	0c6H
	DB	0e8H
	DB	0ddH
	DB	074H
	DB	01fH
	DB	04bH
	DB	0bdH
	DB	08bH
	DB	08aH
	DB	070H
	DB	03eH
	DB	0b5H
	DB	066H
	DB	048H
	DB	03H
	DB	0f6H
	DB	0eH
	DB	061H
	DB	035H
	DB	057H
	DB	0b9H
	DB	086H
	DB	0c1H
	DB	01dH
	DB	09eH
	DB	0e1H
	DB	0f8H
	DB	098H
	DB	011H
	DB	069H
	DB	0d9H
	DB	08eH
	DB	094H
	DB	09bH
	DB	01eH
	DB	087H
	DB	0e9H
	DB	0ceH
	DB	055H
	DB	028H
	DB	0dfH
	DB	08cH
	DB	0a1H
	DB	089H
	DB	0dH
	DB	0bfH
	DB	0e6H
	DB	042H
	DB	068H
	DB	041H
	DB	099H
	DB	02dH
	DB	0fH
	DB	0b0H
	DB	054H
	DB	0bbH
	DB	016H
_rbox	DB	052H
	DB	09H
	DB	06aH
	DB	0d5H
	DB	030H
	DB	036H
	DB	0a5H
	DB	038H
	DB	0bfH
	DB	040H
	DB	0a3H
	DB	09eH
	DB	081H
	DB	0f3H
	DB	0d7H
	DB	0fbH
	DB	07cH
	DB	0e3H
	DB	039H
	DB	082H
	DB	09bH
	DB	02fH
	DB	0ffH
	DB	087H
	DB	034H
	DB	08eH
	DB	043H
	DB	044H
	DB	0c4H
	DB	0deH
	DB	0e9H
	DB	0cbH
	DB	054H
	DB	07bH
	DB	094H
	DB	032H
	DB	0a6H
	DB	0c2H
	DB	023H
	DB	03dH
	DB	0eeH
	DB	04cH
	DB	095H
	DB	0bH
	DB	042H
	DB	0faH
	DB	0c3H
	DB	04eH
	DB	08H
	DB	02eH
	DB	0a1H
	DB	066H
	DB	028H
	DB	0d9H
	DB	024H
	DB	0b2H
	DB	076H
	DB	05bH
	DB	0a2H
	DB	049H
	DB	06dH
	DB	08bH
	DB	0d1H
	DB	025H
	DB	072H
	DB	0f8H
	DB	0f6H
	DB	064H
	DB	086H
	DB	068H
	DB	098H
	DB	016H
	DB	0d4H
	DB	0a4H
	DB	05cH
	DB	0ccH
	DB	05dH
	DB	065H
	DB	0b6H
	DB	092H
	DB	06cH
	DB	070H
	DB	048H
	DB	050H
	DB	0fdH
	DB	0edH
	DB	0b9H
	DB	0daH
	DB	05eH
	DB	015H
	DB	046H
	DB	057H
	DB	0a7H
	DB	08dH
	DB	09dH
	DB	084H
	DB	090H
	DB	0d8H
	DB	0abH
	DB	00H
	DB	08cH
	DB	0bcH
	DB	0d3H
	DB	0aH
	DB	0f7H
	DB	0e4H
	DB	058H
	DB	05H
	DB	0b8H
	DB	0b3H
	DB	045H
	DB	06H
	DB	0d0H
	DB	02cH
	DB	01eH
	DB	08fH
	DB	0caH
	DB	03fH
	DB	0fH
	DB	02H
	DB	0c1H
	DB	0afH
	DB	0bdH
	DB	03H
	DB	01H
	DB	013H
	DB	08aH
	DB	06bH
	DB	03aH
	DB	091H
	DB	011H
	DB	041H
	DB	04fH
	DB	067H
	DB	0dcH
	DB	0eaH
	DB	097H
	DB	0f2H
	DB	0cfH
	DB	0ceH
	DB	0f0H
	DB	0b4H
	DB	0e6H
	DB	073H
	DB	096H
	DB	0acH
	DB	074H
	DB	022H
	DB	0e7H
	DB	0adH
	DB	035H
	DB	085H
	DB	0e2H
	DB	0f9H
	DB	037H
	DB	0e8H
	DB	01cH
	DB	075H
	DB	0dfH
	DB	06eH
	DB	047H
	DB	0f1H
	DB	01aH
	DB	071H
	DB	01dH
	DB	029H
	DB	0c5H
	DB	089H
	DB	06fH
	DB	0b7H
	DB	062H
	DB	0eH
	DB	0aaH
	DB	018H
	DB	0beH
	DB	01bH
	DB	0fcH
	DB	056H
	DB	03eH
	DB	04bH
	DB	0c6H
	DB	0d2H
	DB	079H
	DB	020H
	DB	09aH
	DB	0dbH
	DB	0c0H
	DB	0feH
	DB	078H
	DB	0cdH
	DB	05aH
	DB	0f4H
	DB	01fH
	DB	0ddH
	DB	0a8H
	DB	033H
	DB	088H
	DB	07H
	DB	0c7H
	DB	031H
	DB	0b1H
	DB	012H
	DB	010H
	DB	059H
	DB	027H
	DB	080H
	DB	0ecH
	DB	05fH
	DB	060H
	DB	051H
	DB	07fH
	DB	0a9H
	DB	019H
	DB	0b5H
	DB	04aH
	DB	0dH
	DB	02dH
	DB	0e5H
	DB	07aH
	DB	09fH
	DB	093H
	DB	0c9H
	DB	09cH
	DB	0efH
	DB	0a0H
	DB	0e0H
	DB	03bH
	DB	04dH
	DB	0aeH
	DB	02aH
	DB	0f5H
	DB	0b0H
	DB	0c8H
	DB	0ebH
	DB	0bbH
	DB	03cH
	DB	083H
	DB	053H
	DB	099H
	DB	061H
	DB	017H
	DB	02bH
	DB	04H
	DB	07eH
	DB	0baH
	DB	077H
	DB	0d6H
	DB	026H
	DB	0e1H
	DB	069H
	DB	014H
	DB	063H
	DB	055H
	DB	021H
	DB	0cH
	DB	07dH
_rcon	DD	00H
	DD	01000000H
	DD	02000000H
	DD	04000000H
	DD	08000000H
	DD	010000000H
	DD	020000000H
	DD	040000000H
	DD	080000000H
	DD	01b000000H
	DD	036000000H
	DD	06c000000H
	DD	0d8000000H
	DD	0bb000000H
	DD	04e000000H
CONST	ENDS
PUBLIC	_RijndaelInit
EXTRN	__RTC_CheckEsp:PROC
EXTRN	__RTC_Shutdown:PROC
EXTRN	__RTC_InitBase:PROC
;	COMDAT rtc$TMZ
; File d:\windows\belial\crypt\rijndael.c
rtc$TMZ	SEGMENT
__RTC_Shutdown.rtc$TMZ DD FLAT:__RTC_Shutdown
rtc$TMZ	ENDS
;	COMDAT rtc$IMZ
rtc$IMZ	SEGMENT
__RTC_InitBase.rtc$IMZ DD FLAT:__RTC_InitBase
; Function compile flags: /Odtp /RTCsu /ZI
rtc$IMZ	ENDS
;	COMDAT _RijndaelInit
_TEXT	SEGMENT
tv86 = -196						; size = 4
_contextPtr$ = 8					; size = 4
_RijndaelInit PROC					; COMDAT

; 785  : {

  00000	55		 push	 ebp
  00001	8b ec		 mov	 ebp, esp
  00003	81 ec c4 00 00
	00		 sub	 esp, 196		; 000000c4H
  00009	53		 push	 ebx
  0000a	56		 push	 esi
  0000b	57		 push	 edi
  0000c	8d bd 3c ff ff
	ff		 lea	 edi, DWORD PTR [ebp-196]
  00012	b9 31 00 00 00	 mov	 ecx, 49			; 00000031H
  00017	b8 cc cc cc cc	 mov	 eax, -858993460		; ccccccccH
  0001c	f3 ab		 rep stosd

; 786  : 	if (NULL != contextPtr)

  0001e	83 7d 08 00	 cmp	 DWORD PTR _contextPtr$[ebp], 0
  00022	0f 84 ad 00 00
	00		 je	 $LN4@RijndaelIn

; 787  : 	{
; 788  : 		//默认使用128位密钥
; 789  : 		if (contextPtr->keySize == 0)

  00028	8b 45 08	 mov	 eax, DWORD PTR _contextPtr$[ebp]
  0002b	83 78 20 00	 cmp	 DWORD PTR [eax+32], 0
  0002f	75 0a		 jne	 SHORT $LN2@RijndaelIn

; 790  : 		{
; 791  : 			contextPtr->keySize = KeySize_128;

  00031	8b 45 08	 mov	 eax, DWORD PTR _contextPtr$[ebp]
  00034	c7 40 20 10 00
	00 00		 mov	 DWORD PTR [eax+32], 16	; 00000010H
$LN2@RijndaelIn:

; 792  : 		}
; 793  : 		contextPtr->nk = contextPtr->keySize / 4;

  0003b	8b 45 08	 mov	 eax, DWORD PTR _contextPtr$[ebp]
  0003e	8b 40 20	 mov	 eax, DWORD PTR [eax+32]
  00041	99		 cdq
  00042	83 e2 03	 and	 edx, 3
  00045	03 c2		 add	 eax, edx
  00047	c1 f8 02	 sar	 eax, 2
  0004a	8b 4d 08	 mov	 ecx, DWORD PTR _contextPtr$[ebp]
  0004d	89 81 10 02 00
	00		 mov	 DWORD PTR [ecx+528], eax

; 794  : 		if (contextPtr->plainSize == 0)

  00053	8b 45 08	 mov	 eax, DWORD PTR _contextPtr$[ebp]
  00056	83 78 24 00	 cmp	 DWORD PTR [eax+36], 0
  0005a	75 0c		 jne	 SHORT $LN1@RijndaelIn

; 795  : 		{
; 796  : 			contextPtr->plainSize = contextPtr->keySize;

  0005c	8b 45 08	 mov	 eax, DWORD PTR _contextPtr$[ebp]
  0005f	8b 4d 08	 mov	 ecx, DWORD PTR _contextPtr$[ebp]
  00062	8b 51 20	 mov	 edx, DWORD PTR [ecx+32]
  00065	89 50 24	 mov	 DWORD PTR [eax+36], edx
$LN1@RijndaelIn:

; 797  : 		}
; 798  : 		contextPtr->nb = contextPtr->plainSize / 4;

  00068	8b 45 08	 mov	 eax, DWORD PTR _contextPtr$[ebp]
  0006b	8b 40 24	 mov	 eax, DWORD PTR [eax+36]
  0006e	99		 cdq
  0006f	83 e2 03	 and	 edx, 3
  00072	03 c2		 add	 eax, edx
  00074	c1 f8 02	 sar	 eax, 2
  00077	8b 4d 08	 mov	 ecx, DWORD PTR _contextPtr$[ebp]
  0007a	89 81 08 02 00
	00		 mov	 DWORD PTR [ecx+520], eax

; 799  : 		contextPtr->nr = (contextPtr->nb > contextPtr->nk) ? contextPtr->nb + 4 : contextPtr->nk + 4;

  00080	8b 45 08	 mov	 eax, DWORD PTR _contextPtr$[ebp]
  00083	8b 4d 08	 mov	 ecx, DWORD PTR _contextPtr$[ebp]
  00086	8b 90 08 02 00
	00		 mov	 edx, DWORD PTR [eax+520]
  0008c	3b 91 10 02 00
	00		 cmp	 edx, DWORD PTR [ecx+528]
  00092	76 14		 jbe	 SHORT $LN6@RijndaelIn
  00094	8b 45 08	 mov	 eax, DWORD PTR _contextPtr$[ebp]
  00097	8b 88 08 02 00
	00		 mov	 ecx, DWORD PTR [eax+520]
  0009d	83 c1 04	 add	 ecx, 4
  000a0	89 8d 3c ff ff
	ff		 mov	 DWORD PTR tv86[ebp], ecx
  000a6	eb 12		 jmp	 SHORT $LN7@RijndaelIn
$LN6@RijndaelIn:
  000a8	8b 55 08	 mov	 edx, DWORD PTR _contextPtr$[ebp]
  000ab	8b 82 10 02 00
	00		 mov	 eax, DWORD PTR [edx+528]
  000b1	83 c0 04	 add	 eax, 4
  000b4	89 85 3c ff ff
	ff		 mov	 DWORD PTR tv86[ebp], eax
$LN7@RijndaelIn:
  000ba	8b 4d 08	 mov	 ecx, DWORD PTR _contextPtr$[ebp]
  000bd	8b 95 3c ff ff
	ff		 mov	 edx, DWORD PTR tv86[ebp]
  000c3	89 91 0c 02 00
	00		 mov	 DWORD PTR [ecx+524], edx

; 800  : 		KeyExpansion(contextPtr);

  000c9	8b 45 08	 mov	 eax, DWORD PTR _contextPtr$[ebp]
  000cc	50		 push	 eax
  000cd	e8 00 00 00 00	 call	 _KeyExpansion
  000d2	83 c4 04	 add	 esp, 4
$LN4@RijndaelIn:

; 801  : 	}
; 802  : }

  000d5	5f		 pop	 edi
  000d6	5e		 pop	 esi
  000d7	5b		 pop	 ebx
  000d8	81 c4 c4 00 00
	00		 add	 esp, 196		; 000000c4H
  000de	3b ec		 cmp	 ebp, esp
  000e0	e8 00 00 00 00	 call	 __RTC_CheckEsp
  000e5	8b e5		 mov	 esp, ebp
  000e7	5d		 pop	 ebp
  000e8	c3		 ret	 0
_RijndaelInit ENDP
_TEXT	ENDS
EXTRN	_memset:PROC
; Function compile flags: /Odtp /RTCsu /ZI
;	COMDAT _KeyExpansion
_TEXT	SEGMENT
_keyPtr$ = -68						; size = 4
_nr$ = -56						; size = 4
_nb$ = -44						; size = 4
_nk$ = -32						; size = 4
_tmp$ = -20						; size = 4
_i$ = -8						; size = 4
_context$ = 8						; size = 4
_KeyExpansion PROC					; COMDAT

; 648  : {

  00000	55		 push	 ebp
  00001	8b ec		 mov	 ebp, esp
  00003	81 ec 08 01 00
	00		 sub	 esp, 264		; 00000108H
  00009	53		 push	 ebx
  0000a	56		 push	 esi
  0000b	57		 push	 edi
  0000c	8d bd f8 fe ff
	ff		 lea	 edi, DWORD PTR [ebp-264]
  00012	b9 42 00 00 00	 mov	 ecx, 66			; 00000042H
  00017	b8 cc cc cc cc	 mov	 eax, -858993460		; ccccccccH
  0001c	f3 ab		 rep stosd

; 649  : 	int i;
; 650  : 	unsigned int tmp;
; 651  : 	//256位有32个字节，8个字长
; 652  : 	//密钥字长
; 653  : 	int nk = context->nk;

  0001e	8b 45 08	 mov	 eax, DWORD PTR _context$[ebp]
  00021	8b 88 10 02 00
	00		 mov	 ecx, DWORD PTR [eax+528]
  00027	89 4d e0	 mov	 DWORD PTR _nk$[ebp], ecx

; 654  : 	//明文字长
; 655  : 	int nb = context->nb;

  0002a	8b 45 08	 mov	 eax, DWORD PTR _context$[ebp]
  0002d	8b 88 08 02 00
	00		 mov	 ecx, DWORD PTR [eax+520]
  00033	89 4d d4	 mov	 DWORD PTR _nb$[ebp], ecx

; 656  : 	//轮数
; 657  : 	int nr = context->nr;

  00036	8b 45 08	 mov	 eax, DWORD PTR _context$[ebp]
  00039	8b 88 0c 02 00
	00		 mov	 ecx, DWORD PTR [eax+524]
  0003f	89 4d c8	 mov	 DWORD PTR _nr$[ebp], ecx

; 658  : 	unsigned char* keyPtr = context->cryptKey;

  00042	8b 45 08	 mov	 eax, DWORD PTR _context$[ebp]
  00045	89 45 bc	 mov	 DWORD PTR _keyPtr$[ebp], eax

; 659  : 
; 660  : 	//nr最大为14，nb最大为8,则需要的矩阵列为nb*(nr+1)=8*15=120
; 661  : 	//轮密钥
; 662  : 	//unsigned long roundKey[120] = {0};
; 663  : 	context->roundKey[0] = GETINT32(keyPtr,0,nk);//第一列

  00048	8b 45 bc	 mov	 eax, DWORD PTR _keyPtr$[ebp]
  0004b	0f b6 08	 movzx	 ecx, BYTE PTR [eax]
  0004e	c1 e1 18	 shl	 ecx, 24			; 00000018H
  00051	8b 55 bc	 mov	 edx, DWORD PTR _keyPtr$[ebp]
  00054	03 55 e0	 add	 edx, DWORD PTR _nk$[ebp]
  00057	0f b6 02	 movzx	 eax, BYTE PTR [edx]
  0005a	c1 e0 10	 shl	 eax, 16			; 00000010H
  0005d	0b c8		 or	 ecx, eax
  0005f	8b 55 e0	 mov	 edx, DWORD PTR _nk$[ebp]
  00062	8b 45 bc	 mov	 eax, DWORD PTR _keyPtr$[ebp]
  00065	0f b6 14 50	 movzx	 edx, BYTE PTR [eax+edx*2]
  00069	c1 e2 08	 shl	 edx, 8
  0006c	0b ca		 or	 ecx, edx
  0006e	8b 45 e0	 mov	 eax, DWORD PTR _nk$[ebp]
  00071	6b c0 03	 imul	 eax, 3
  00074	8b 55 bc	 mov	 edx, DWORD PTR _keyPtr$[ebp]
  00077	0f b6 04 02	 movzx	 eax, BYTE PTR [edx+eax]
  0007b	0b c8		 or	 ecx, eax
  0007d	8b 55 08	 mov	 edx, DWORD PTR _context$[ebp]
  00080	89 4a 28	 mov	 DWORD PTR [edx+40], ecx

; 664  : 	context->roundKey[1] = GETINT32(keyPtr,1,nk);//第二列

  00083	8b 45 bc	 mov	 eax, DWORD PTR _keyPtr$[ebp]
  00086	0f b6 48 01	 movzx	 ecx, BYTE PTR [eax+1]
  0008a	c1 e1 18	 shl	 ecx, 24			; 00000018H
  0008d	8b 55 bc	 mov	 edx, DWORD PTR _keyPtr$[ebp]
  00090	03 55 e0	 add	 edx, DWORD PTR _nk$[ebp]
  00093	0f b6 42 01	 movzx	 eax, BYTE PTR [edx+1]
  00097	c1 e0 10	 shl	 eax, 16			; 00000010H
  0009a	0b c8		 or	 ecx, eax
  0009c	8b 55 e0	 mov	 edx, DWORD PTR _nk$[ebp]
  0009f	8b 45 bc	 mov	 eax, DWORD PTR _keyPtr$[ebp]
  000a2	0f b6 54 50 01	 movzx	 edx, BYTE PTR [eax+edx*2+1]
  000a7	c1 e2 08	 shl	 edx, 8
  000aa	0b ca		 or	 ecx, edx
  000ac	8b 45 e0	 mov	 eax, DWORD PTR _nk$[ebp]
  000af	6b c0 03	 imul	 eax, 3
  000b2	8b 55 bc	 mov	 edx, DWORD PTR _keyPtr$[ebp]
  000b5	0f b6 44 02 01	 movzx	 eax, BYTE PTR [edx+eax+1]
  000ba	0b c8		 or	 ecx, eax
  000bc	8b 55 08	 mov	 edx, DWORD PTR _context$[ebp]
  000bf	89 4a 2c	 mov	 DWORD PTR [edx+44], ecx

; 665  : 	context->roundKey[2] = GETINT32(keyPtr,2,nk);//第三列

  000c2	8b 45 bc	 mov	 eax, DWORD PTR _keyPtr$[ebp]
  000c5	0f b6 48 02	 movzx	 ecx, BYTE PTR [eax+2]
  000c9	c1 e1 18	 shl	 ecx, 24			; 00000018H
  000cc	8b 55 bc	 mov	 edx, DWORD PTR _keyPtr$[ebp]
  000cf	03 55 e0	 add	 edx, DWORD PTR _nk$[ebp]
  000d2	0f b6 42 02	 movzx	 eax, BYTE PTR [edx+2]
  000d6	c1 e0 10	 shl	 eax, 16			; 00000010H
  000d9	0b c8		 or	 ecx, eax
  000db	8b 55 e0	 mov	 edx, DWORD PTR _nk$[ebp]
  000de	8b 45 bc	 mov	 eax, DWORD PTR _keyPtr$[ebp]
  000e1	0f b6 54 50 02	 movzx	 edx, BYTE PTR [eax+edx*2+2]
  000e6	c1 e2 08	 shl	 edx, 8
  000e9	0b ca		 or	 ecx, edx
  000eb	8b 45 e0	 mov	 eax, DWORD PTR _nk$[ebp]
  000ee	6b c0 03	 imul	 eax, 3
  000f1	8b 55 bc	 mov	 edx, DWORD PTR _keyPtr$[ebp]
  000f4	0f b6 44 02 02	 movzx	 eax, BYTE PTR [edx+eax+2]
  000f9	0b c8		 or	 ecx, eax
  000fb	8b 55 08	 mov	 edx, DWORD PTR _context$[ebp]
  000fe	89 4a 30	 mov	 DWORD PTR [edx+48], ecx

; 666  : 	context->roundKey[3] = GETINT32(keyPtr,3,nk);//第四列

  00101	8b 45 bc	 mov	 eax, DWORD PTR _keyPtr$[ebp]
  00104	0f b6 48 03	 movzx	 ecx, BYTE PTR [eax+3]
  00108	c1 e1 18	 shl	 ecx, 24			; 00000018H
  0010b	8b 55 bc	 mov	 edx, DWORD PTR _keyPtr$[ebp]
  0010e	03 55 e0	 add	 edx, DWORD PTR _nk$[ebp]
  00111	0f b6 42 03	 movzx	 eax, BYTE PTR [edx+3]
  00115	c1 e0 10	 shl	 eax, 16			; 00000010H
  00118	0b c8		 or	 ecx, eax
  0011a	8b 55 e0	 mov	 edx, DWORD PTR _nk$[ebp]
  0011d	8b 45 bc	 mov	 eax, DWORD PTR _keyPtr$[ebp]
  00120	0f b6 54 50 03	 movzx	 edx, BYTE PTR [eax+edx*2+3]
  00125	c1 e2 08	 shl	 edx, 8
  00128	0b ca		 or	 ecx, edx
  0012a	8b 45 e0	 mov	 eax, DWORD PTR _nk$[ebp]
  0012d	6b c0 03	 imul	 eax, 3
  00130	8b 55 bc	 mov	 edx, DWORD PTR _keyPtr$[ebp]
  00133	0f b6 44 02 03	 movzx	 eax, BYTE PTR [edx+eax+3]
  00138	0b c8		 or	 ecx, eax
  0013a	8b 55 08	 mov	 edx, DWORD PTR _context$[ebp]
  0013d	89 4a 34	 mov	 DWORD PTR [edx+52], ecx

; 667  : 	if (nk >= (KeySize_192/4))

  00140	83 7d e0 06	 cmp	 DWORD PTR _nk$[ebp], 6
  00144	0f 8c 83 00 00
	00		 jl	 $LN9@KeyExpansi

; 668  : 	{
; 669  : 		context->roundKey[4] = GETINT32(keyPtr,4,nk);

  0014a	8b 45 bc	 mov	 eax, DWORD PTR _keyPtr$[ebp]
  0014d	0f b6 48 04	 movzx	 ecx, BYTE PTR [eax+4]
  00151	c1 e1 18	 shl	 ecx, 24			; 00000018H
  00154	8b 55 bc	 mov	 edx, DWORD PTR _keyPtr$[ebp]
  00157	03 55 e0	 add	 edx, DWORD PTR _nk$[ebp]
  0015a	0f b6 42 04	 movzx	 eax, BYTE PTR [edx+4]
  0015e	c1 e0 10	 shl	 eax, 16			; 00000010H
  00161	0b c8		 or	 ecx, eax
  00163	8b 55 e0	 mov	 edx, DWORD PTR _nk$[ebp]
  00166	8b 45 bc	 mov	 eax, DWORD PTR _keyPtr$[ebp]
  00169	0f b6 54 50 04	 movzx	 edx, BYTE PTR [eax+edx*2+4]
  0016e	c1 e2 08	 shl	 edx, 8
  00171	0b ca		 or	 ecx, edx
  00173	8b 45 e0	 mov	 eax, DWORD PTR _nk$[ebp]
  00176	6b c0 03	 imul	 eax, 3
  00179	8b 55 bc	 mov	 edx, DWORD PTR _keyPtr$[ebp]
  0017c	0f b6 44 02 04	 movzx	 eax, BYTE PTR [edx+eax+4]
  00181	0b c8		 or	 ecx, eax
  00183	8b 55 08	 mov	 edx, DWORD PTR _context$[ebp]
  00186	89 4a 38	 mov	 DWORD PTR [edx+56], ecx

; 670  : 		context->roundKey[5] = GETINT32(keyPtr,5,nk);

  00189	8b 45 bc	 mov	 eax, DWORD PTR _keyPtr$[ebp]
  0018c	0f b6 48 05	 movzx	 ecx, BYTE PTR [eax+5]
  00190	c1 e1 18	 shl	 ecx, 24			; 00000018H
  00193	8b 55 bc	 mov	 edx, DWORD PTR _keyPtr$[ebp]
  00196	03 55 e0	 add	 edx, DWORD PTR _nk$[ebp]
  00199	0f b6 42 05	 movzx	 eax, BYTE PTR [edx+5]
  0019d	c1 e0 10	 shl	 eax, 16			; 00000010H
  001a0	0b c8		 or	 ecx, eax
  001a2	8b 55 e0	 mov	 edx, DWORD PTR _nk$[ebp]
  001a5	8b 45 bc	 mov	 eax, DWORD PTR _keyPtr$[ebp]
  001a8	0f b6 54 50 05	 movzx	 edx, BYTE PTR [eax+edx*2+5]
  001ad	c1 e2 08	 shl	 edx, 8
  001b0	0b ca		 or	 ecx, edx
  001b2	8b 45 e0	 mov	 eax, DWORD PTR _nk$[ebp]
  001b5	6b c0 03	 imul	 eax, 3
  001b8	8b 55 bc	 mov	 edx, DWORD PTR _keyPtr$[ebp]
  001bb	0f b6 44 02 05	 movzx	 eax, BYTE PTR [edx+eax+5]
  001c0	0b c8		 or	 ecx, eax
  001c2	8b 55 08	 mov	 edx, DWORD PTR _context$[ebp]
  001c5	89 4a 3c	 mov	 DWORD PTR [edx+60], ecx
  001c8	e9 84 00 00 00	 jmp	 $LN8@KeyExpansi
$LN9@KeyExpansi:

; 671  : 	} 
; 672  : 	else if (nk >= (KeySize_256/4))

  001cd	83 7d e0 08	 cmp	 DWORD PTR _nk$[ebp], 8
  001d1	7c 7e		 jl	 SHORT $LN8@KeyExpansi

; 673  : 	{
; 674  : 		context->roundKey[6] = GETINT32(keyPtr,6,nk);

  001d3	8b 45 bc	 mov	 eax, DWORD PTR _keyPtr$[ebp]
  001d6	0f b6 48 06	 movzx	 ecx, BYTE PTR [eax+6]
  001da	c1 e1 18	 shl	 ecx, 24			; 00000018H
  001dd	8b 55 bc	 mov	 edx, DWORD PTR _keyPtr$[ebp]
  001e0	03 55 e0	 add	 edx, DWORD PTR _nk$[ebp]
  001e3	0f b6 42 06	 movzx	 eax, BYTE PTR [edx+6]
  001e7	c1 e0 10	 shl	 eax, 16			; 00000010H
  001ea	0b c8		 or	 ecx, eax
  001ec	8b 55 e0	 mov	 edx, DWORD PTR _nk$[ebp]
  001ef	8b 45 bc	 mov	 eax, DWORD PTR _keyPtr$[ebp]
  001f2	0f b6 54 50 06	 movzx	 edx, BYTE PTR [eax+edx*2+6]
  001f7	c1 e2 08	 shl	 edx, 8
  001fa	0b ca		 or	 ecx, edx
  001fc	8b 45 e0	 mov	 eax, DWORD PTR _nk$[ebp]
  001ff	6b c0 03	 imul	 eax, 3
  00202	8b 55 bc	 mov	 edx, DWORD PTR _keyPtr$[ebp]
  00205	0f b6 44 02 06	 movzx	 eax, BYTE PTR [edx+eax+6]
  0020a	0b c8		 or	 ecx, eax
  0020c	8b 55 08	 mov	 edx, DWORD PTR _context$[ebp]
  0020f	89 4a 40	 mov	 DWORD PTR [edx+64], ecx

; 675  : 		context->roundKey[7] = GETINT32(keyPtr,7,nk);

  00212	8b 45 bc	 mov	 eax, DWORD PTR _keyPtr$[ebp]
  00215	0f b6 48 07	 movzx	 ecx, BYTE PTR [eax+7]
  00219	c1 e1 18	 shl	 ecx, 24			; 00000018H
  0021c	8b 55 bc	 mov	 edx, DWORD PTR _keyPtr$[ebp]
  0021f	03 55 e0	 add	 edx, DWORD PTR _nk$[ebp]
  00222	0f b6 42 07	 movzx	 eax, BYTE PTR [edx+7]
  00226	c1 e0 10	 shl	 eax, 16			; 00000010H
  00229	0b c8		 or	 ecx, eax
  0022b	8b 55 e0	 mov	 edx, DWORD PTR _nk$[ebp]
  0022e	8b 45 bc	 mov	 eax, DWORD PTR _keyPtr$[ebp]
  00231	0f b6 54 50 07	 movzx	 edx, BYTE PTR [eax+edx*2+7]
  00236	c1 e2 08	 shl	 edx, 8
  00239	0b ca		 or	 ecx, edx
  0023b	8b 45 e0	 mov	 eax, DWORD PTR _nk$[ebp]
  0023e	6b c0 03	 imul	 eax, 3
  00241	8b 55 bc	 mov	 edx, DWORD PTR _keyPtr$[ebp]
  00244	0f b6 44 02 07	 movzx	 eax, BYTE PTR [edx+eax+7]
  00249	0b c8		 or	 ecx, eax
  0024b	8b 55 08	 mov	 edx, DWORD PTR _context$[ebp]
  0024e	89 4a 44	 mov	 DWORD PTR [edx+68], ecx
$LN8@KeyExpansi:

; 676  : 	}
; 677  : 
; 678  : 	//轮数为明文和密文中长度更大值的字长+4
; 679  : 	for (i = nk;i<(nb*(nr+1)); i++)

  00251	8b 45 e0	 mov	 eax, DWORD PTR _nk$[ebp]
  00254	89 45 f8	 mov	 DWORD PTR _i$[ebp], eax
  00257	eb 09		 jmp	 SHORT $LN6@KeyExpansi
$LN5@KeyExpansi:
  00259	8b 45 f8	 mov	 eax, DWORD PTR _i$[ebp]
  0025c	83 c0 01	 add	 eax, 1
  0025f	89 45 f8	 mov	 DWORD PTR _i$[ebp], eax
$LN6@KeyExpansi:
  00262	8b 45 c8	 mov	 eax, DWORD PTR _nr$[ebp]
  00265	83 c0 01	 add	 eax, 1
  00268	0f af 45 d4	 imul	 eax, DWORD PTR _nb$[ebp]
  0026c	39 45 f8	 cmp	 DWORD PTR _i$[ebp], eax
  0026f	0f 8d 2f 01 00
	00		 jge	 $LN4@KeyExpansi

; 680  : 	{
; 681  : 		tmp = context->roundKey[i-1];

  00275	8b 45 f8	 mov	 eax, DWORD PTR _i$[ebp]
  00278	8b 4d 08	 mov	 ecx, DWORD PTR _context$[ebp]
  0027b	8b 54 81 24	 mov	 edx, DWORD PTR [ecx+eax*4+36]
  0027f	89 55 ec	 mov	 DWORD PTR _tmp$[ebp], edx

; 682  : 		if (i % nk == 0)

  00282	8b 45 f8	 mov	 eax, DWORD PTR _i$[ebp]
  00285	99		 cdq
  00286	f7 7d e0	 idiv	 DWORD PTR _nk$[ebp]
  00289	85 d2		 test	 edx, edx
  0028b	0f 85 81 00 00
	00		 jne	 $LN3@KeyExpansi

; 683  : 		{
; 684  : 			tmp = ROTL(tmp,8,32);

  00291	8b 45 ec	 mov	 eax, DWORD PTR _tmp$[ebp]
  00294	c1 e0 08	 shl	 eax, 8
  00297	8b 4d ec	 mov	 ecx, DWORD PTR _tmp$[ebp]
  0029a	c1 e9 18	 shr	 ecx, 24			; 00000018H
  0029d	0b c1		 or	 eax, ecx
  0029f	89 45 ec	 mov	 DWORD PTR _tmp$[ebp], eax

; 685  : 			tmp = SUBBYTE(tmp);

  002a2	8b 45 ec	 mov	 eax, DWORD PTR _tmp$[ebp]
  002a5	c1 e8 18	 shr	 eax, 24			; 00000018H
  002a8	25 ff 00 00 00	 and	 eax, 255		; 000000ffH
  002ad	0f b6 88 00 00
	00 00		 movzx	 ecx, BYTE PTR _sbox[eax]
  002b4	c1 e1 18	 shl	 ecx, 24			; 00000018H
  002b7	8b 55 ec	 mov	 edx, DWORD PTR _tmp$[ebp]
  002ba	c1 ea 10	 shr	 edx, 16			; 00000010H
  002bd	81 e2 ff 00 00
	00		 and	 edx, 255		; 000000ffH
  002c3	0f b6 82 00 00
	00 00		 movzx	 eax, BYTE PTR _sbox[edx]
  002ca	c1 e0 10	 shl	 eax, 16			; 00000010H
  002cd	0b c8		 or	 ecx, eax
  002cf	8b 55 ec	 mov	 edx, DWORD PTR _tmp$[ebp]
  002d2	c1 ea 08	 shr	 edx, 8
  002d5	81 e2 ff 00 00
	00		 and	 edx, 255		; 000000ffH
  002db	0f b6 82 00 00
	00 00		 movzx	 eax, BYTE PTR _sbox[edx]
  002e2	c1 e0 08	 shl	 eax, 8
  002e5	0b c8		 or	 ecx, eax
  002e7	8b 55 ec	 mov	 edx, DWORD PTR _tmp$[ebp]
  002ea	81 e2 ff 00 00
	00		 and	 edx, 255		; 000000ffH
  002f0	0f b6 82 00 00
	00 00		 movzx	 eax, BYTE PTR _sbox[edx]
  002f7	0b c8		 or	 ecx, eax
  002f9	89 4d ec	 mov	 DWORD PTR _tmp$[ebp], ecx

; 686  : 			tmp ^= rcon[i / nk];

  002fc	8b 45 f8	 mov	 eax, DWORD PTR _i$[ebp]
  002ff	99		 cdq
  00300	f7 7d e0	 idiv	 DWORD PTR _nk$[ebp]
  00303	8b 4d ec	 mov	 ecx, DWORD PTR _tmp$[ebp]
  00306	33 0c 85 00 00
	00 00		 xor	 ecx, DWORD PTR _rcon[eax*4]
  0030d	89 4d ec	 mov	 DWORD PTR _tmp$[ebp], ecx
  00310	eb 73		 jmp	 SHORT $LN2@KeyExpansi
$LN3@KeyExpansi:

; 687  : 		}
; 688  : 		else if ((nk > (KeySize_192/4)) && (i%4 == 0))

  00312	83 7d e0 06	 cmp	 DWORD PTR _nk$[ebp], 6
  00316	7e 6d		 jle	 SHORT $LN2@KeyExpansi
  00318	8b 45 f8	 mov	 eax, DWORD PTR _i$[ebp]
  0031b	25 03 00 00 80	 and	 eax, -2147483645	; 80000003H
  00320	79 05		 jns	 SHORT $LN12@KeyExpansi
  00322	48		 dec	 eax
  00323	83 c8 fc	 or	 eax, -4			; fffffffcH
  00326	40		 inc	 eax
$LN12@KeyExpansi:
  00327	85 c0		 test	 eax, eax
  00329	75 5a		 jne	 SHORT $LN2@KeyExpansi

; 689  : 		{
; 690  : 			tmp = SUBBYTE(tmp);

  0032b	8b 45 ec	 mov	 eax, DWORD PTR _tmp$[ebp]
  0032e	c1 e8 18	 shr	 eax, 24			; 00000018H
  00331	25 ff 00 00 00	 and	 eax, 255		; 000000ffH
  00336	0f b6 88 00 00
	00 00		 movzx	 ecx, BYTE PTR _sbox[eax]
  0033d	c1 e1 18	 shl	 ecx, 24			; 00000018H
  00340	8b 55 ec	 mov	 edx, DWORD PTR _tmp$[ebp]
  00343	c1 ea 10	 shr	 edx, 16			; 00000010H
  00346	81 e2 ff 00 00
	00		 and	 edx, 255		; 000000ffH
  0034c	0f b6 82 00 00
	00 00		 movzx	 eax, BYTE PTR _sbox[edx]
  00353	c1 e0 10	 shl	 eax, 16			; 00000010H
  00356	0b c8		 or	 ecx, eax
  00358	8b 55 ec	 mov	 edx, DWORD PTR _tmp$[ebp]
  0035b	c1 ea 08	 shr	 edx, 8
  0035e	81 e2 ff 00 00
	00		 and	 edx, 255		; 000000ffH
  00364	0f b6 82 00 00
	00 00		 movzx	 eax, BYTE PTR _sbox[edx]
  0036b	c1 e0 08	 shl	 eax, 8
  0036e	0b c8		 or	 ecx, eax
  00370	8b 55 ec	 mov	 edx, DWORD PTR _tmp$[ebp]
  00373	81 e2 ff 00 00
	00		 and	 edx, 255		; 000000ffH
  00379	0f b6 82 00 00
	00 00		 movzx	 eax, BYTE PTR _sbox[edx]
  00380	0b c8		 or	 ecx, eax
  00382	89 4d ec	 mov	 DWORD PTR _tmp$[ebp], ecx
$LN2@KeyExpansi:

; 691  : 		}
; 692  : 		context->roundKey[i] = context->roundKey[i - nk] ^ tmp;

  00385	8b 45 f8	 mov	 eax, DWORD PTR _i$[ebp]
  00388	2b 45 e0	 sub	 eax, DWORD PTR _nk$[ebp]
  0038b	8b 4d 08	 mov	 ecx, DWORD PTR _context$[ebp]
  0038e	8b 54 81 28	 mov	 edx, DWORD PTR [ecx+eax*4+40]
  00392	33 55 ec	 xor	 edx, DWORD PTR _tmp$[ebp]
  00395	8b 45 f8	 mov	 eax, DWORD PTR _i$[ebp]
  00398	8b 4d 08	 mov	 ecx, DWORD PTR _context$[ebp]
  0039b	89 54 81 28	 mov	 DWORD PTR [ecx+eax*4+40], edx

; 693  : 	}

  0039f	e9 b5 fe ff ff	 jmp	 $LN5@KeyExpansi
$LN4@KeyExpansi:

; 694  : 	//将不需要的清0
; 695  : 	memset(&context->roundKey[nb*(nr+1)],0,sizeof(context->roundKey) - sizeof(context->roundKey[0]) * (nb*(nr+1)));

  003a4	8b 45 c8	 mov	 eax, DWORD PTR _nr$[ebp]
  003a7	83 c0 01	 add	 eax, 1
  003aa	0f af 45 d4	 imul	 eax, DWORD PTR _nb$[ebp]
  003ae	c1 e0 02	 shl	 eax, 2
  003b1	b9 e0 01 00 00	 mov	 ecx, 480		; 000001e0H
  003b6	2b c8		 sub	 ecx, eax
  003b8	51		 push	 ecx
  003b9	6a 00		 push	 0
  003bb	8b 55 c8	 mov	 edx, DWORD PTR _nr$[ebp]
  003be	83 c2 01	 add	 edx, 1
  003c1	0f af 55 d4	 imul	 edx, DWORD PTR _nb$[ebp]
  003c5	8b 45 08	 mov	 eax, DWORD PTR _context$[ebp]
  003c8	8d 4c 90 28	 lea	 ecx, DWORD PTR [eax+edx*4+40]
  003cc	51		 push	 ecx
  003cd	e8 00 00 00 00	 call	 _memset
  003d2	83 c4 0c	 add	 esp, 12			; 0000000cH

; 696  : 	//轮密钥还可以加强,扩展
; 697  : }

  003d5	5f		 pop	 edi
  003d6	5e		 pop	 esi
  003d7	5b		 pop	 ebx
  003d8	81 c4 08 01 00
	00		 add	 esp, 264		; 00000108H
  003de	3b ec		 cmp	 ebp, esp
  003e0	e8 00 00 00 00	 call	 __RTC_CheckEsp
  003e5	8b e5		 mov	 esp, ebp
  003e7	5d		 pop	 ebp
  003e8	c3		 ret	 0
_KeyExpansion ENDP
_TEXT	ENDS
PUBLIC	_RijndaelEncrypt
EXTRN	_memcpy:PROC
; Function compile flags: /Odtp /RTCsu /ZI
;	COMDAT _RijndaelEncrypt
_TEXT	SEGMENT
_plainSize$ = -20					; size = 4
_i$ = -8						; size = 4
_context$ = 8						; size = 4
_pInput$ = 12						; size = 4
_nSize$ = 16						; size = 4
_pOutput$ = 20						; size = 4
_RijndaelEncrypt PROC					; COMDAT

; 805  : {

  00000	55		 push	 ebp
  00001	8b ec		 mov	 ebp, esp
  00003	81 ec d8 00 00
	00		 sub	 esp, 216		; 000000d8H
  00009	53		 push	 ebx
  0000a	56		 push	 esi
  0000b	57		 push	 edi
  0000c	8d bd 28 ff ff
	ff		 lea	 edi, DWORD PTR [ebp-216]
  00012	b9 36 00 00 00	 mov	 ecx, 54			; 00000036H
  00017	b8 cc cc cc cc	 mov	 eax, -858993460		; ccccccccH
  0001c	f3 ab		 rep stosd

; 806  : 	unsigned int i;
; 807  : 	//需要计算的最小长度
; 808  : 	unsigned int plainSize = context->plainSize;

  0001e	8b 45 08	 mov	 eax, DWORD PTR _context$[ebp]
  00021	8b 48 24	 mov	 ecx, DWORD PTR [eax+36]
  00024	89 4d ec	 mov	 DWORD PTR _plainSize$[ebp], ecx

; 809  : 	if (nSize % plainSize != 0)

  00027	8b 45 10	 mov	 eax, DWORD PTR _nSize$[ebp]
  0002a	33 d2		 xor	 edx, edx
  0002c	f7 75 ec	 div	 DWORD PTR _plainSize$[ebp]
  0002f	85 d2		 test	 edx, edx
  00031	74 32		 je	 SHORT $LN4@RijndaelEn

; 810  : 	{
; 811  : 		nSize += plainSize - (nSize % plainSize);

  00033	8b 45 10	 mov	 eax, DWORD PTR _nSize$[ebp]
  00036	33 d2		 xor	 edx, edx
  00038	f7 75 ec	 div	 DWORD PTR _plainSize$[ebp]
  0003b	8b 45 ec	 mov	 eax, DWORD PTR _plainSize$[ebp]
  0003e	2b c2		 sub	 eax, edx
  00040	03 45 10	 add	 eax, DWORD PTR _nSize$[ebp]
  00043	89 45 10	 mov	 DWORD PTR _nSize$[ebp], eax

; 812  : 		//清0
; 813  : 		memset((unsigned char*)pOutput + nSize,0,plainSize - (nSize % plainSize));

  00046	8b 45 10	 mov	 eax, DWORD PTR _nSize$[ebp]
  00049	33 d2		 xor	 edx, edx
  0004b	f7 75 ec	 div	 DWORD PTR _plainSize$[ebp]
  0004e	8b 45 ec	 mov	 eax, DWORD PTR _plainSize$[ebp]
  00051	2b c2		 sub	 eax, edx
  00053	50		 push	 eax
  00054	6a 00		 push	 0
  00056	8b 4d 14	 mov	 ecx, DWORD PTR _pOutput$[ebp]
  00059	03 4d 10	 add	 ecx, DWORD PTR _nSize$[ebp]
  0005c	51		 push	 ecx
  0005d	e8 00 00 00 00	 call	 _memset
  00062	83 c4 0c	 add	 esp, 12			; 0000000cH
$LN4@RijndaelEn:

; 814  : 	}
; 815  : 	for (i=0; i<nSize; i += plainSize)

  00065	c7 45 f8 00 00
	00 00		 mov	 DWORD PTR _i$[ebp], 0
  0006c	eb 09		 jmp	 SHORT $LN3@RijndaelEn
$LN2@RijndaelEn:
  0006e	8b 45 f8	 mov	 eax, DWORD PTR _i$[ebp]
  00071	03 45 ec	 add	 eax, DWORD PTR _plainSize$[ebp]
  00074	89 45 f8	 mov	 DWORD PTR _i$[ebp], eax
$LN3@RijndaelEn:
  00077	8b 45 f8	 mov	 eax, DWORD PTR _i$[ebp]
  0007a	3b 45 10	 cmp	 eax, DWORD PTR _nSize$[ebp]
  0007d	73 2f		 jae	 SHORT $LN5@RijndaelEn

; 816  : 	{
; 817  : 		memcpy((unsigned char*)pOutput + i,(unsigned char*)pInput + i,plainSize);

  0007f	8b 45 ec	 mov	 eax, DWORD PTR _plainSize$[ebp]
  00082	50		 push	 eax
  00083	8b 4d 0c	 mov	 ecx, DWORD PTR _pInput$[ebp]
  00086	03 4d f8	 add	 ecx, DWORD PTR _i$[ebp]
  00089	51		 push	 ecx
  0008a	8b 55 14	 mov	 edx, DWORD PTR _pOutput$[ebp]
  0008d	03 55 f8	 add	 edx, DWORD PTR _i$[ebp]
  00090	52		 push	 edx
  00091	e8 00 00 00 00	 call	 _memcpy
  00096	83 c4 0c	 add	 esp, 12			; 0000000cH

; 818  : 		Encrypt(context,(unsigned char*)pOutput + i);

  00099	8b 45 14	 mov	 eax, DWORD PTR _pOutput$[ebp]
  0009c	03 45 f8	 add	 eax, DWORD PTR _i$[ebp]
  0009f	50		 push	 eax
  000a0	8b 4d 08	 mov	 ecx, DWORD PTR _context$[ebp]
  000a3	51		 push	 ecx
  000a4	e8 00 00 00 00	 call	 _Encrypt
  000a9	83 c4 08	 add	 esp, 8

; 819  : 	}

  000ac	eb c0		 jmp	 SHORT $LN2@RijndaelEn
$LN5@RijndaelEn:

; 820  : }

  000ae	5f		 pop	 edi
  000af	5e		 pop	 esi
  000b0	5b		 pop	 ebx
  000b1	81 c4 d8 00 00
	00		 add	 esp, 216		; 000000d8H
  000b7	3b ec		 cmp	 ebp, esp
  000b9	e8 00 00 00 00	 call	 __RTC_CheckEsp
  000be	8b e5		 mov	 esp, ebp
  000c0	5d		 pop	 ebp
  000c1	c3		 ret	 0
_RijndaelEncrypt ENDP
_TEXT	ENDS
PUBLIC	__$ArrayPad$
EXTRN	___security_cookie:DWORD
EXTRN	@__security_check_cookie@4:PROC
EXTRN	@_RTC_CheckStackVars@8:PROC
; Function compile flags: /Odtp /RTCsu /ZI
;	COMDAT _Encrypt
_TEXT	SEGMENT
_nb$ = -76						; size = 4
_inputStringPtr$ = -64					; size = 4
_state$ = -52						; size = 32
_round$ = -12						; size = 4
__$ArrayPad$ = -4					; size = 4
_context$ = 8						; size = 4
_input$ = 12						; size = 4
_Encrypt PROC						; COMDAT

; 703  : {

  00000	55		 push	 ebp
  00001	8b ec		 mov	 ebp, esp
  00003	81 ec 10 01 00
	00		 sub	 esp, 272		; 00000110H
  00009	53		 push	 ebx
  0000a	56		 push	 esi
  0000b	57		 push	 edi
  0000c	8d bd f0 fe ff
	ff		 lea	 edi, DWORD PTR [ebp-272]
  00012	b9 44 00 00 00	 mov	 ecx, 68			; 00000044H
  00017	b8 cc cc cc cc	 mov	 eax, -858993460		; ccccccccH
  0001c	f3 ab		 rep stosd
  0001e	a1 00 00 00 00	 mov	 eax, DWORD PTR ___security_cookie
  00023	33 c5		 xor	 eax, ebp
  00025	89 45 fc	 mov	 DWORD PTR __$ArrayPad$[ebp], eax

; 704  : 	unsigned int round;
; 705  : 	//明文的最大长度
; 706  : 	unsigned long state[8] = {0};

  00028	c7 45 cc 00 00
	00 00		 mov	 DWORD PTR _state$[ebp], 0
  0002f	33 c0		 xor	 eax, eax
  00031	89 45 d0	 mov	 DWORD PTR _state$[ebp+4], eax
  00034	89 45 d4	 mov	 DWORD PTR _state$[ebp+8], eax
  00037	89 45 d8	 mov	 DWORD PTR _state$[ebp+12], eax
  0003a	89 45 dc	 mov	 DWORD PTR _state$[ebp+16], eax
  0003d	89 45 e0	 mov	 DWORD PTR _state$[ebp+20], eax
  00040	89 45 e4	 mov	 DWORD PTR _state$[ebp+24], eax
  00043	89 45 e8	 mov	 DWORD PTR _state$[ebp+28], eax

; 707  : 	unsigned char* inputStringPtr = (unsigned char*)input;

  00046	8b 45 0c	 mov	 eax, DWORD PTR _input$[ebp]
  00049	89 45 c0	 mov	 DWORD PTR _inputStringPtr$[ebp], eax

; 708  : 	unsigned int nb = context->nb;

  0004c	8b 45 08	 mov	 eax, DWORD PTR _context$[ebp]
  0004f	8b 88 08 02 00
	00		 mov	 ecx, DWORD PTR [eax+520]
  00055	89 4d b4	 mov	 DWORD PTR _nb$[ebp], ecx

; 709  : 	//经过这个过程，由a0 a1 a2 a3 a4 a5组成的字节序列就组成了
; 710  : 	// a0 a4 a8  a12 a16 ...
; 711  : 	// a1 a5 a9  a13 a17 ...
; 712  : 	// a2 a6 a10 a14 a18 ...
; 713  : 	// a3 a7 a11 a15 a19 ...
; 714  : 	//这样的字节矩阵
; 715  : 	state[0] = GETINT32(inputStringPtr,0,nb);

  00058	8b 45 c0	 mov	 eax, DWORD PTR _inputStringPtr$[ebp]
  0005b	0f b6 08	 movzx	 ecx, BYTE PTR [eax]
  0005e	c1 e1 18	 shl	 ecx, 24			; 00000018H
  00061	8b 55 c0	 mov	 edx, DWORD PTR _inputStringPtr$[ebp]
  00064	03 55 b4	 add	 edx, DWORD PTR _nb$[ebp]
  00067	0f b6 02	 movzx	 eax, BYTE PTR [edx]
  0006a	c1 e0 10	 shl	 eax, 16			; 00000010H
  0006d	0b c8		 or	 ecx, eax
  0006f	8b 55 b4	 mov	 edx, DWORD PTR _nb$[ebp]
  00072	8b 45 c0	 mov	 eax, DWORD PTR _inputStringPtr$[ebp]
  00075	0f b6 14 50	 movzx	 edx, BYTE PTR [eax+edx*2]
  00079	c1 e2 08	 shl	 edx, 8
  0007c	0b ca		 or	 ecx, edx
  0007e	8b 45 b4	 mov	 eax, DWORD PTR _nb$[ebp]
  00081	6b c0 03	 imul	 eax, 3
  00084	8b 55 c0	 mov	 edx, DWORD PTR _inputStringPtr$[ebp]
  00087	0f b6 04 02	 movzx	 eax, BYTE PTR [edx+eax]
  0008b	0b c8		 or	 ecx, eax
  0008d	89 4d cc	 mov	 DWORD PTR _state$[ebp], ecx

; 716  : 	state[1] = GETINT32(inputStringPtr,1,nb);

  00090	8b 45 c0	 mov	 eax, DWORD PTR _inputStringPtr$[ebp]
  00093	0f b6 48 01	 movzx	 ecx, BYTE PTR [eax+1]
  00097	c1 e1 18	 shl	 ecx, 24			; 00000018H
  0009a	8b 55 c0	 mov	 edx, DWORD PTR _inputStringPtr$[ebp]
  0009d	03 55 b4	 add	 edx, DWORD PTR _nb$[ebp]
  000a0	0f b6 42 01	 movzx	 eax, BYTE PTR [edx+1]
  000a4	c1 e0 10	 shl	 eax, 16			; 00000010H
  000a7	0b c8		 or	 ecx, eax
  000a9	8b 55 b4	 mov	 edx, DWORD PTR _nb$[ebp]
  000ac	8b 45 c0	 mov	 eax, DWORD PTR _inputStringPtr$[ebp]
  000af	0f b6 54 50 01	 movzx	 edx, BYTE PTR [eax+edx*2+1]
  000b4	c1 e2 08	 shl	 edx, 8
  000b7	0b ca		 or	 ecx, edx
  000b9	8b 45 b4	 mov	 eax, DWORD PTR _nb$[ebp]
  000bc	6b c0 03	 imul	 eax, 3
  000bf	8b 55 c0	 mov	 edx, DWORD PTR _inputStringPtr$[ebp]
  000c2	0f b6 44 02 01	 movzx	 eax, BYTE PTR [edx+eax+1]
  000c7	0b c8		 or	 ecx, eax
  000c9	89 4d d0	 mov	 DWORD PTR _state$[ebp+4], ecx

; 717  : 	state[2] = GETINT32(inputStringPtr,2,nb);

  000cc	8b 45 c0	 mov	 eax, DWORD PTR _inputStringPtr$[ebp]
  000cf	0f b6 48 02	 movzx	 ecx, BYTE PTR [eax+2]
  000d3	c1 e1 18	 shl	 ecx, 24			; 00000018H
  000d6	8b 55 c0	 mov	 edx, DWORD PTR _inputStringPtr$[ebp]
  000d9	03 55 b4	 add	 edx, DWORD PTR _nb$[ebp]
  000dc	0f b6 42 02	 movzx	 eax, BYTE PTR [edx+2]
  000e0	c1 e0 10	 shl	 eax, 16			; 00000010H
  000e3	0b c8		 or	 ecx, eax
  000e5	8b 55 b4	 mov	 edx, DWORD PTR _nb$[ebp]
  000e8	8b 45 c0	 mov	 eax, DWORD PTR _inputStringPtr$[ebp]
  000eb	0f b6 54 50 02	 movzx	 edx, BYTE PTR [eax+edx*2+2]
  000f0	c1 e2 08	 shl	 edx, 8
  000f3	0b ca		 or	 ecx, edx
  000f5	8b 45 b4	 mov	 eax, DWORD PTR _nb$[ebp]
  000f8	6b c0 03	 imul	 eax, 3
  000fb	8b 55 c0	 mov	 edx, DWORD PTR _inputStringPtr$[ebp]
  000fe	0f b6 44 02 02	 movzx	 eax, BYTE PTR [edx+eax+2]
  00103	0b c8		 or	 ecx, eax
  00105	89 4d d4	 mov	 DWORD PTR _state$[ebp+8], ecx

; 718  : 	state[3] = GETINT32(inputStringPtr,3,nb);

  00108	8b 45 c0	 mov	 eax, DWORD PTR _inputStringPtr$[ebp]
  0010b	0f b6 48 03	 movzx	 ecx, BYTE PTR [eax+3]
  0010f	c1 e1 18	 shl	 ecx, 24			; 00000018H
  00112	8b 55 c0	 mov	 edx, DWORD PTR _inputStringPtr$[ebp]
  00115	03 55 b4	 add	 edx, DWORD PTR _nb$[ebp]
  00118	0f b6 42 03	 movzx	 eax, BYTE PTR [edx+3]
  0011c	c1 e0 10	 shl	 eax, 16			; 00000010H
  0011f	0b c8		 or	 ecx, eax
  00121	8b 55 b4	 mov	 edx, DWORD PTR _nb$[ebp]
  00124	8b 45 c0	 mov	 eax, DWORD PTR _inputStringPtr$[ebp]
  00127	0f b6 54 50 03	 movzx	 edx, BYTE PTR [eax+edx*2+3]
  0012c	c1 e2 08	 shl	 edx, 8
  0012f	0b ca		 or	 ecx, edx
  00131	8b 45 b4	 mov	 eax, DWORD PTR _nb$[ebp]
  00134	6b c0 03	 imul	 eax, 3
  00137	8b 55 c0	 mov	 edx, DWORD PTR _inputStringPtr$[ebp]
  0013a	0f b6 44 02 03	 movzx	 eax, BYTE PTR [edx+eax+3]
  0013f	0b c8		 or	 ecx, eax
  00141	89 4d d8	 mov	 DWORD PTR _state$[ebp+12], ecx

; 719  : 	if (nb >= (KeySize_192/4))

  00144	83 7d b4 06	 cmp	 DWORD PTR _nb$[ebp], 6
  00148	72 78		 jb	 SHORT $LN5@Encrypt

; 720  : 	{
; 721  : 		state[4] = GETINT32(inputStringPtr,4,nb);

  0014a	8b 45 c0	 mov	 eax, DWORD PTR _inputStringPtr$[ebp]
  0014d	0f b6 48 04	 movzx	 ecx, BYTE PTR [eax+4]
  00151	c1 e1 18	 shl	 ecx, 24			; 00000018H
  00154	8b 55 c0	 mov	 edx, DWORD PTR _inputStringPtr$[ebp]
  00157	03 55 b4	 add	 edx, DWORD PTR _nb$[ebp]
  0015a	0f b6 42 04	 movzx	 eax, BYTE PTR [edx+4]
  0015e	c1 e0 10	 shl	 eax, 16			; 00000010H
  00161	0b c8		 or	 ecx, eax
  00163	8b 55 b4	 mov	 edx, DWORD PTR _nb$[ebp]
  00166	8b 45 c0	 mov	 eax, DWORD PTR _inputStringPtr$[ebp]
  00169	0f b6 54 50 04	 movzx	 edx, BYTE PTR [eax+edx*2+4]
  0016e	c1 e2 08	 shl	 edx, 8
  00171	0b ca		 or	 ecx, edx
  00173	8b 45 b4	 mov	 eax, DWORD PTR _nb$[ebp]
  00176	6b c0 03	 imul	 eax, 3
  00179	8b 55 c0	 mov	 edx, DWORD PTR _inputStringPtr$[ebp]
  0017c	0f b6 44 02 04	 movzx	 eax, BYTE PTR [edx+eax+4]
  00181	0b c8		 or	 ecx, eax
  00183	89 4d dc	 mov	 DWORD PTR _state$[ebp+16], ecx

; 722  : 		state[5] = GETINT32(inputStringPtr,5,nb);

  00186	8b 45 c0	 mov	 eax, DWORD PTR _inputStringPtr$[ebp]
  00189	0f b6 48 05	 movzx	 ecx, BYTE PTR [eax+5]
  0018d	c1 e1 18	 shl	 ecx, 24			; 00000018H
  00190	8b 55 c0	 mov	 edx, DWORD PTR _inputStringPtr$[ebp]
  00193	03 55 b4	 add	 edx, DWORD PTR _nb$[ebp]
  00196	0f b6 42 05	 movzx	 eax, BYTE PTR [edx+5]
  0019a	c1 e0 10	 shl	 eax, 16			; 00000010H
  0019d	0b c8		 or	 ecx, eax
  0019f	8b 55 b4	 mov	 edx, DWORD PTR _nb$[ebp]
  001a2	8b 45 c0	 mov	 eax, DWORD PTR _inputStringPtr$[ebp]
  001a5	0f b6 54 50 05	 movzx	 edx, BYTE PTR [eax+edx*2+5]
  001aa	c1 e2 08	 shl	 edx, 8
  001ad	0b ca		 or	 ecx, edx
  001af	8b 45 b4	 mov	 eax, DWORD PTR _nb$[ebp]
  001b2	6b c0 03	 imul	 eax, 3
  001b5	8b 55 c0	 mov	 edx, DWORD PTR _inputStringPtr$[ebp]
  001b8	0f b6 44 02 05	 movzx	 eax, BYTE PTR [edx+eax+5]
  001bd	0b c8		 or	 ecx, eax
  001bf	89 4d e0	 mov	 DWORD PTR _state$[ebp+20], ecx
$LN5@Encrypt:

; 723  : 	}
; 724  : 
; 725  : 	if (nb >= (KeySize_256/4))

  001c2	83 7d b4 08	 cmp	 DWORD PTR _nb$[ebp], 8
  001c6	72 78		 jb	 SHORT $LN4@Encrypt

; 726  : 	{
; 727  : 		state[6] = GETINT32(inputStringPtr,6,nb);

  001c8	8b 45 c0	 mov	 eax, DWORD PTR _inputStringPtr$[ebp]
  001cb	0f b6 48 06	 movzx	 ecx, BYTE PTR [eax+6]
  001cf	c1 e1 18	 shl	 ecx, 24			; 00000018H
  001d2	8b 55 c0	 mov	 edx, DWORD PTR _inputStringPtr$[ebp]
  001d5	03 55 b4	 add	 edx, DWORD PTR _nb$[ebp]
  001d8	0f b6 42 06	 movzx	 eax, BYTE PTR [edx+6]
  001dc	c1 e0 10	 shl	 eax, 16			; 00000010H
  001df	0b c8		 or	 ecx, eax
  001e1	8b 55 b4	 mov	 edx, DWORD PTR _nb$[ebp]
  001e4	8b 45 c0	 mov	 eax, DWORD PTR _inputStringPtr$[ebp]
  001e7	0f b6 54 50 06	 movzx	 edx, BYTE PTR [eax+edx*2+6]
  001ec	c1 e2 08	 shl	 edx, 8
  001ef	0b ca		 or	 ecx, edx
  001f1	8b 45 b4	 mov	 eax, DWORD PTR _nb$[ebp]
  001f4	6b c0 03	 imul	 eax, 3
  001f7	8b 55 c0	 mov	 edx, DWORD PTR _inputStringPtr$[ebp]
  001fa	0f b6 44 02 06	 movzx	 eax, BYTE PTR [edx+eax+6]
  001ff	0b c8		 or	 ecx, eax
  00201	89 4d e4	 mov	 DWORD PTR _state$[ebp+24], ecx

; 728  : 		state[7] = GETINT32(inputStringPtr,7,nb);

  00204	8b 45 c0	 mov	 eax, DWORD PTR _inputStringPtr$[ebp]
  00207	0f b6 48 07	 movzx	 ecx, BYTE PTR [eax+7]
  0020b	c1 e1 18	 shl	 ecx, 24			; 00000018H
  0020e	8b 55 c0	 mov	 edx, DWORD PTR _inputStringPtr$[ebp]
  00211	03 55 b4	 add	 edx, DWORD PTR _nb$[ebp]
  00214	0f b6 42 07	 movzx	 eax, BYTE PTR [edx+7]
  00218	c1 e0 10	 shl	 eax, 16			; 00000010H
  0021b	0b c8		 or	 ecx, eax
  0021d	8b 55 b4	 mov	 edx, DWORD PTR _nb$[ebp]
  00220	8b 45 c0	 mov	 eax, DWORD PTR _inputStringPtr$[ebp]
  00223	0f b6 54 50 07	 movzx	 edx, BYTE PTR [eax+edx*2+7]
  00228	c1 e2 08	 shl	 edx, 8
  0022b	0b ca		 or	 ecx, edx
  0022d	8b 45 b4	 mov	 eax, DWORD PTR _nb$[ebp]
  00230	6b c0 03	 imul	 eax, 3
  00233	8b 55 c0	 mov	 edx, DWORD PTR _inputStringPtr$[ebp]
  00236	0f b6 44 02 07	 movzx	 eax, BYTE PTR [edx+eax+7]
  0023b	0b c8		 or	 ecx, eax
  0023d	89 4d e8	 mov	 DWORD PTR _state$[ebp+28], ecx
$LN4@Encrypt:

; 729  : 	}
; 730  : 	AddRoundKey(context,0,state);

  00240	8d 45 cc	 lea	 eax, DWORD PTR _state$[ebp]
  00243	50		 push	 eax
  00244	6a 00		 push	 0
  00246	8b 4d 08	 mov	 ecx, DWORD PTR _context$[ebp]
  00249	51		 push	 ecx
  0024a	e8 00 00 00 00	 call	 _AddRoundKey
  0024f	83 c4 0c	 add	 esp, 12			; 0000000cH

; 731  : 	for (round = 1; round<context->nr; round++)

  00252	c7 45 f4 01 00
	00 00		 mov	 DWORD PTR _round$[ebp], 1
  00259	eb 09		 jmp	 SHORT $LN3@Encrypt
$LN2@Encrypt:
  0025b	8b 45 f4	 mov	 eax, DWORD PTR _round$[ebp]
  0025e	83 c0 01	 add	 eax, 1
  00261	89 45 f4	 mov	 DWORD PTR _round$[ebp], eax
$LN3@Encrypt:
  00264	8b 45 08	 mov	 eax, DWORD PTR _context$[ebp]
  00267	8b 4d f4	 mov	 ecx, DWORD PTR _round$[ebp]
  0026a	3b 88 0c 02 00
	00		 cmp	 ecx, DWORD PTR [eax+524]
  00270	73 46		 jae	 SHORT $LN1@Encrypt

; 732  : 	{
; 733  : 		SubByte(context,state);

  00272	8d 45 cc	 lea	 eax, DWORD PTR _state$[ebp]
  00275	50		 push	 eax
  00276	8b 4d 08	 mov	 ecx, DWORD PTR _context$[ebp]
  00279	51		 push	 ecx
  0027a	e8 00 00 00 00	 call	 _SubByte
  0027f	83 c4 08	 add	 esp, 8

; 734  : 		ShiftRow(context,state);

  00282	8d 45 cc	 lea	 eax, DWORD PTR _state$[ebp]
  00285	50		 push	 eax
  00286	8b 4d 08	 mov	 ecx, DWORD PTR _context$[ebp]
  00289	51		 push	 ecx
  0028a	e8 00 00 00 00	 call	 _ShiftRow
  0028f	83 c4 08	 add	 esp, 8

; 735  : 		MixColumn(context,state);

  00292	8d 45 cc	 lea	 eax, DWORD PTR _state$[ebp]
  00295	50		 push	 eax
  00296	8b 4d 08	 mov	 ecx, DWORD PTR _context$[ebp]
  00299	51		 push	 ecx
  0029a	e8 00 00 00 00	 call	 _MixColumn
  0029f	83 c4 08	 add	 esp, 8

; 736  : 		AddRoundKey(context,round,state);

  002a2	8d 45 cc	 lea	 eax, DWORD PTR _state$[ebp]
  002a5	50		 push	 eax
  002a6	8b 4d f4	 mov	 ecx, DWORD PTR _round$[ebp]
  002a9	51		 push	 ecx
  002aa	8b 55 08	 mov	 edx, DWORD PTR _context$[ebp]
  002ad	52		 push	 edx
  002ae	e8 00 00 00 00	 call	 _AddRoundKey
  002b3	83 c4 0c	 add	 esp, 12			; 0000000cH

; 737  : 	}

  002b6	eb a3		 jmp	 SHORT $LN2@Encrypt
$LN1@Encrypt:

; 738  : 	SubByte(context,state);

  002b8	8d 45 cc	 lea	 eax, DWORD PTR _state$[ebp]
  002bb	50		 push	 eax
  002bc	8b 4d 08	 mov	 ecx, DWORD PTR _context$[ebp]
  002bf	51		 push	 ecx
  002c0	e8 00 00 00 00	 call	 _SubByte
  002c5	83 c4 08	 add	 esp, 8

; 739  : 	ShiftRow(context,state);

  002c8	8d 45 cc	 lea	 eax, DWORD PTR _state$[ebp]
  002cb	50		 push	 eax
  002cc	8b 4d 08	 mov	 ecx, DWORD PTR _context$[ebp]
  002cf	51		 push	 ecx
  002d0	e8 00 00 00 00	 call	 _ShiftRow
  002d5	83 c4 08	 add	 esp, 8

; 740  : 	AddRoundKey(context,context->nr,state);

  002d8	8d 45 cc	 lea	 eax, DWORD PTR _state$[ebp]
  002db	50		 push	 eax
  002dc	8b 4d 08	 mov	 ecx, DWORD PTR _context$[ebp]
  002df	8b 91 0c 02 00
	00		 mov	 edx, DWORD PTR [ecx+524]
  002e5	52		 push	 edx
  002e6	8b 45 08	 mov	 eax, DWORD PTR _context$[ebp]
  002e9	50		 push	 eax
  002ea	e8 00 00 00 00	 call	 _AddRoundKey
  002ef	83 c4 0c	 add	 esp, 12			; 0000000cH

; 741  : 	//就这个格式输出的密文，其实也没有关系的
; 742  : 	//将格式纠正
; 743  : 	StateToChars((unsigned char*)input,state,context->nb);

  002f2	8b 45 08	 mov	 eax, DWORD PTR _context$[ebp]
  002f5	8b 88 08 02 00
	00		 mov	 ecx, DWORD PTR [eax+520]
  002fb	51		 push	 ecx
  002fc	8d 55 cc	 lea	 edx, DWORD PTR _state$[ebp]
  002ff	52		 push	 edx
  00300	8b 45 0c	 mov	 eax, DWORD PTR _input$[ebp]
  00303	50		 push	 eax
  00304	e8 00 00 00 00	 call	 _StateToChars
  00309	83 c4 0c	 add	 esp, 12			; 0000000cH

; 744  : }

  0030c	52		 push	 edx
  0030d	8b cd		 mov	 ecx, ebp
  0030f	50		 push	 eax
  00310	8d 15 00 00 00
	00		 lea	 edx, DWORD PTR $LN10@Encrypt
  00316	e8 00 00 00 00	 call	 @_RTC_CheckStackVars@8
  0031b	58		 pop	 eax
  0031c	5a		 pop	 edx
  0031d	5f		 pop	 edi
  0031e	5e		 pop	 esi
  0031f	5b		 pop	 ebx
  00320	8b 4d fc	 mov	 ecx, DWORD PTR __$ArrayPad$[ebp]
  00323	33 cd		 xor	 ecx, ebp
  00325	e8 00 00 00 00	 call	 @__security_check_cookie@4
  0032a	81 c4 10 01 00
	00		 add	 esp, 272		; 00000110H
  00330	3b ec		 cmp	 ebp, esp
  00332	e8 00 00 00 00	 call	 __RTC_CheckEsp
  00337	8b e5		 mov	 esp, ebp
  00339	5d		 pop	 ebp
  0033a	c3		 ret	 0
  0033b	90		 npad	 1
$LN10@Encrypt:
  0033c	01 00 00 00	 DD	 1
  00340	00 00 00 00	 DD	 $LN9@Encrypt
$LN9@Encrypt:
  00344	cc ff ff ff	 DD	 -52			; ffffffccH
  00348	20 00 00 00	 DD	 32			; 00000020H
  0034c	00 00 00 00	 DD	 $LN8@Encrypt
$LN8@Encrypt:
  00350	73		 DB	 115			; 00000073H
  00351	74		 DB	 116			; 00000074H
  00352	61		 DB	 97			; 00000061H
  00353	74		 DB	 116			; 00000074H
  00354	65		 DB	 101			; 00000065H
  00355	00		 DB	 0
_Encrypt ENDP
; Function compile flags: /Odtp /RTCsu /ZI
_TEXT	ENDS
;	COMDAT _StateToChars
_TEXT	SEGMENT
_round$ = -8						; size = 4
_output$ = 8						; size = 4
_state$ = 12						; size = 4
_stateLen$ = 16						; size = 4
_StateToChars PROC					; COMDAT

; 332  : {

  00000	55		 push	 ebp
  00001	8b ec		 mov	 ebp, esp
  00003	81 ec cc 00 00
	00		 sub	 esp, 204		; 000000ccH
  00009	53		 push	 ebx
  0000a	56		 push	 esi
  0000b	57		 push	 edi
  0000c	8d bd 34 ff ff
	ff		 lea	 edi, DWORD PTR [ebp-204]
  00012	b9 33 00 00 00	 mov	 ecx, 51			; 00000033H
  00017	b8 cc cc cc cc	 mov	 eax, -858993460		; ccccccccH
  0001c	f3 ab		 rep stosd

; 333  : 	unsigned int round;
; 334  : 	for (round=0; round<stateLen; round++)

  0001e	c7 45 f8 00 00
	00 00		 mov	 DWORD PTR _round$[ebp], 0
  00025	eb 09		 jmp	 SHORT $LN3@StateToCha
$LN2@StateToCha:
  00027	8b 45 f8	 mov	 eax, DWORD PTR _round$[ebp]
  0002a	83 c0 01	 add	 eax, 1
  0002d	89 45 f8	 mov	 DWORD PTR _round$[ebp], eax
$LN3@StateToCha:
  00030	8b 45 f8	 mov	 eax, DWORD PTR _round$[ebp]
  00033	3b 45 10	 cmp	 eax, DWORD PTR _stateLen$[ebp]
  00036	73 7c		 jae	 SHORT $LN4@StateToCha

; 335  : 	{
; 336  : 		*(output + round) = (unsigned char)((state[round] >> 24) & 0xff);

  00038	8b 45 f8	 mov	 eax, DWORD PTR _round$[ebp]
  0003b	8b 4d 0c	 mov	 ecx, DWORD PTR _state$[ebp]
  0003e	8b 14 81	 mov	 edx, DWORD PTR [ecx+eax*4]
  00041	c1 ea 18	 shr	 edx, 24			; 00000018H
  00044	81 e2 ff 00 00
	00		 and	 edx, 255		; 000000ffH
  0004a	8b 45 08	 mov	 eax, DWORD PTR _output$[ebp]
  0004d	03 45 f8	 add	 eax, DWORD PTR _round$[ebp]
  00050	88 10		 mov	 BYTE PTR [eax], dl

; 337  : 		*(output + stateLen + round) = (unsigned char)((state[round] >> 16) & 0xff);

  00052	8b 45 f8	 mov	 eax, DWORD PTR _round$[ebp]
  00055	8b 4d 0c	 mov	 ecx, DWORD PTR _state$[ebp]
  00058	8b 14 81	 mov	 edx, DWORD PTR [ecx+eax*4]
  0005b	c1 ea 10	 shr	 edx, 16			; 00000010H
  0005e	81 e2 ff 00 00
	00		 and	 edx, 255		; 000000ffH
  00064	8b 45 08	 mov	 eax, DWORD PTR _output$[ebp]
  00067	03 45 10	 add	 eax, DWORD PTR _stateLen$[ebp]
  0006a	8b 4d f8	 mov	 ecx, DWORD PTR _round$[ebp]
  0006d	88 14 08	 mov	 BYTE PTR [eax+ecx], dl

; 338  : 		*(output + stateLen * 2 + round) = (unsigned char)((state[round] >> 8) & 0xff);

  00070	8b 45 f8	 mov	 eax, DWORD PTR _round$[ebp]
  00073	8b 4d 0c	 mov	 ecx, DWORD PTR _state$[ebp]
  00076	8b 14 81	 mov	 edx, DWORD PTR [ecx+eax*4]
  00079	c1 ea 08	 shr	 edx, 8
  0007c	81 e2 ff 00 00
	00		 and	 edx, 255		; 000000ffH
  00082	8b 45 10	 mov	 eax, DWORD PTR _stateLen$[ebp]
  00085	8b 4d 08	 mov	 ecx, DWORD PTR _output$[ebp]
  00088	8d 04 41	 lea	 eax, DWORD PTR [ecx+eax*2]
  0008b	8b 4d f8	 mov	 ecx, DWORD PTR _round$[ebp]
  0008e	88 14 08	 mov	 BYTE PTR [eax+ecx], dl

; 339  : 		*(output + stateLen * 3 + round) = (unsigned char)(state[round] & 0xff);

  00091	8b 45 f8	 mov	 eax, DWORD PTR _round$[ebp]
  00094	8b 4d 0c	 mov	 ecx, DWORD PTR _state$[ebp]
  00097	8b 14 81	 mov	 edx, DWORD PTR [ecx+eax*4]
  0009a	81 e2 ff 00 00
	00		 and	 edx, 255		; 000000ffH
  000a0	8b 45 10	 mov	 eax, DWORD PTR _stateLen$[ebp]
  000a3	6b c0 03	 imul	 eax, 3
  000a6	03 45 08	 add	 eax, DWORD PTR _output$[ebp]
  000a9	8b 4d f8	 mov	 ecx, DWORD PTR _round$[ebp]
  000ac	88 14 08	 mov	 BYTE PTR [eax+ecx], dl

; 340  : 	}

  000af	e9 73 ff ff ff	 jmp	 $LN2@StateToCha
$LN4@StateToCha:

; 341  : }

  000b4	5f		 pop	 edi
  000b5	5e		 pop	 esi
  000b6	5b		 pop	 ebx
  000b7	8b e5		 mov	 esp, ebp
  000b9	5d		 pop	 ebp
  000ba	c3		 ret	 0
_StateToChars ENDP
; Function compile flags: /Odtp /RTCsu /ZI
_TEXT	ENDS
;	COMDAT _AddRoundKey
_TEXT	SEGMENT
_i$ = -8						; size = 4
_context$ = 8						; size = 4
_round$ = 12						; size = 4
_state$ = 16						; size = 4
_AddRoundKey PROC					; COMDAT

; 360  : {

  00000	55		 push	 ebp
  00001	8b ec		 mov	 ebp, esp
  00003	81 ec cc 00 00
	00		 sub	 esp, 204		; 000000ccH
  00009	53		 push	 ebx
  0000a	56		 push	 esi
  0000b	57		 push	 edi
  0000c	8d bd 34 ff ff
	ff		 lea	 edi, DWORD PTR [ebp-204]
  00012	b9 33 00 00 00	 mov	 ecx, 51			; 00000033H
  00017	b8 cc cc cc cc	 mov	 eax, -858993460		; ccccccccH
  0001c	f3 ab		 rep stosd

; 361  : 	unsigned int i;
; 362  : 	//只是与roundkey做异或运算
; 363  : 	for (i=0; i<context->nb; i++)

  0001e	c7 45 f8 00 00
	00 00		 mov	 DWORD PTR _i$[ebp], 0
  00025	eb 09		 jmp	 SHORT $LN3@AddRoundKe
$LN2@AddRoundKe:
  00027	8b 45 f8	 mov	 eax, DWORD PTR _i$[ebp]
  0002a	83 c0 01	 add	 eax, 1
  0002d	89 45 f8	 mov	 DWORD PTR _i$[ebp], eax
$LN3@AddRoundKe:
  00030	8b 45 08	 mov	 eax, DWORD PTR _context$[ebp]
  00033	8b 4d f8	 mov	 ecx, DWORD PTR _i$[ebp]
  00036	3b 88 08 02 00
	00		 cmp	 ecx, DWORD PTR [eax+520]
  0003c	73 2b		 jae	 SHORT $LN4@AddRoundKe

; 364  : 	{
; 365  : 		state[i] = context->roundKey[round * context->nb + i] ^ state[i];

  0003e	8b 45 08	 mov	 eax, DWORD PTR _context$[ebp]
  00041	8b 4d 0c	 mov	 ecx, DWORD PTR _round$[ebp]
  00044	0f af 88 08 02
	00 00		 imul	 ecx, DWORD PTR [eax+520]
  0004b	03 4d f8	 add	 ecx, DWORD PTR _i$[ebp]
  0004e	8b 55 08	 mov	 edx, DWORD PTR _context$[ebp]
  00051	8b 45 f8	 mov	 eax, DWORD PTR _i$[ebp]
  00054	8b 75 10	 mov	 esi, DWORD PTR _state$[ebp]
  00057	8b 4c 8a 28	 mov	 ecx, DWORD PTR [edx+ecx*4+40]
  0005b	33 0c 86	 xor	 ecx, DWORD PTR [esi+eax*4]
  0005e	8b 55 f8	 mov	 edx, DWORD PTR _i$[ebp]
  00061	8b 45 10	 mov	 eax, DWORD PTR _state$[ebp]
  00064	89 0c 90	 mov	 DWORD PTR [eax+edx*4], ecx

; 366  : 	}

  00067	eb be		 jmp	 SHORT $LN2@AddRoundKe
$LN4@AddRoundKe:

; 367  : }

  00069	5f		 pop	 edi
  0006a	5e		 pop	 esi
  0006b	5b		 pop	 ebx
  0006c	8b e5		 mov	 esp, ebp
  0006e	5d		 pop	 ebp
  0006f	c3		 ret	 0
_AddRoundKey ENDP
; Function compile flags: /Odtp /RTCsu /ZI
_TEXT	ENDS
;	COMDAT _SubByte
_TEXT	SEGMENT
_i$ = -8						; size = 4
_context$ = 8						; size = 4
_state$ = 12						; size = 4
_SubByte PROC						; COMDAT

; 384  : {

  00000	55		 push	 ebp
  00001	8b ec		 mov	 ebp, esp
  00003	81 ec cc 00 00
	00		 sub	 esp, 204		; 000000ccH
  00009	53		 push	 ebx
  0000a	56		 push	 esi
  0000b	57		 push	 edi
  0000c	8d bd 34 ff ff
	ff		 lea	 edi, DWORD PTR [ebp-204]
  00012	b9 33 00 00 00	 mov	 ecx, 51			; 00000033H
  00017	b8 cc cc cc cc	 mov	 eax, -858993460		; ccccccccH
  0001c	f3 ab		 rep stosd

; 385  : 	/*
; 386  : 	statePtr->v0 = SUBBYTE(statePtr->v0);
; 387  : 	statePtr->v1 = SUBBYTE(statePtr->v1);
; 388  : 	statePtr->v2 = SUBBYTE(statePtr->v2);
; 389  : 	statePtr->v3 = SUBBYTE(statePtr->v3);
; 390  : 	if (contextPtr->nb >= (KeySize_192/4))
; 391  : 	{
; 392  : 	statePtr->v4 = SUBBYTE(statePtr->v4);
; 393  : 	statePtr->v5 = SUBBYTE(statePtr->v5);
; 394  : 	}
; 395  : 	if (contextPtr->nb >= (KeySize_256/4))
; 396  : 	{
; 397  : 	statePtr->v6 = SUBBYTE(statePtr->v6);
; 398  : 	statePtr->v7 = SUBBYTE(statePtr->v7);
; 399  : 	}
; 400  : 	*/
; 401  : 	unsigned int i;
; 402  : 	for (i=0; i<context->nb; i++)

  0001e	c7 45 f8 00 00
	00 00		 mov	 DWORD PTR _i$[ebp], 0
  00025	eb 09		 jmp	 SHORT $LN3@SubByte
$LN2@SubByte:
  00027	8b 45 f8	 mov	 eax, DWORD PTR _i$[ebp]
  0002a	83 c0 01	 add	 eax, 1
  0002d	89 45 f8	 mov	 DWORD PTR _i$[ebp], eax
$LN3@SubByte:
  00030	8b 45 08	 mov	 eax, DWORD PTR _context$[ebp]
  00033	8b 4d f8	 mov	 ecx, DWORD PTR _i$[ebp]
  00036	3b 88 08 02 00
	00		 cmp	 ecx, DWORD PTR [eax+520]
  0003c	73 7e		 jae	 SHORT $LN4@SubByte

; 403  : 	{
; 404  : 		state[i] = SUBBYTE(state[i]);

  0003e	8b 45 f8	 mov	 eax, DWORD PTR _i$[ebp]
  00041	8b 4d 0c	 mov	 ecx, DWORD PTR _state$[ebp]
  00044	8b 14 81	 mov	 edx, DWORD PTR [ecx+eax*4]
  00047	c1 ea 18	 shr	 edx, 24			; 00000018H
  0004a	81 e2 ff 00 00
	00		 and	 edx, 255		; 000000ffH
  00050	0f b6 82 00 00
	00 00		 movzx	 eax, BYTE PTR _sbox[edx]
  00057	c1 e0 18	 shl	 eax, 24			; 00000018H
  0005a	8b 4d f8	 mov	 ecx, DWORD PTR _i$[ebp]
  0005d	8b 55 0c	 mov	 edx, DWORD PTR _state$[ebp]
  00060	8b 0c 8a	 mov	 ecx, DWORD PTR [edx+ecx*4]
  00063	c1 e9 10	 shr	 ecx, 16			; 00000010H
  00066	81 e1 ff 00 00
	00		 and	 ecx, 255		; 000000ffH
  0006c	0f b6 91 00 00
	00 00		 movzx	 edx, BYTE PTR _sbox[ecx]
  00073	c1 e2 10	 shl	 edx, 16			; 00000010H
  00076	0b c2		 or	 eax, edx
  00078	8b 4d f8	 mov	 ecx, DWORD PTR _i$[ebp]
  0007b	8b 55 0c	 mov	 edx, DWORD PTR _state$[ebp]
  0007e	8b 0c 8a	 mov	 ecx, DWORD PTR [edx+ecx*4]
  00081	c1 e9 08	 shr	 ecx, 8
  00084	81 e1 ff 00 00
	00		 and	 ecx, 255		; 000000ffH
  0008a	0f b6 91 00 00
	00 00		 movzx	 edx, BYTE PTR _sbox[ecx]
  00091	c1 e2 08	 shl	 edx, 8
  00094	0b c2		 or	 eax, edx
  00096	8b 4d f8	 mov	 ecx, DWORD PTR _i$[ebp]
  00099	8b 55 0c	 mov	 edx, DWORD PTR _state$[ebp]
  0009c	8b 0c 8a	 mov	 ecx, DWORD PTR [edx+ecx*4]
  0009f	81 e1 ff 00 00
	00		 and	 ecx, 255		; 000000ffH
  000a5	0f b6 91 00 00
	00 00		 movzx	 edx, BYTE PTR _sbox[ecx]
  000ac	0b c2		 or	 eax, edx
  000ae	8b 4d f8	 mov	 ecx, DWORD PTR _i$[ebp]
  000b1	8b 55 0c	 mov	 edx, DWORD PTR _state$[ebp]
  000b4	89 04 8a	 mov	 DWORD PTR [edx+ecx*4], eax

; 405  : 	}

  000b7	e9 6b ff ff ff	 jmp	 $LN2@SubByte
$LN4@SubByte:

; 406  : }

  000bc	5f		 pop	 edi
  000bd	5e		 pop	 esi
  000be	5b		 pop	 ebx
  000bf	8b e5		 mov	 esp, ebp
  000c1	5d		 pop	 ebp
  000c2	c3		 ret	 0
_SubByte ENDP
; Function compile flags: /Odtp /RTCsu /ZI
_TEXT	ENDS
;	COMDAT _ShiftRow
_TEXT	SEGMENT
_stateCount$ = -20					; size = 4
_stateStr$ = -8						; size = 4
_context$ = 8						; size = 4
_state$ = 12						; size = 4
_ShiftRow PROC						; COMDAT

; 468  : {

  00000	55		 push	 ebp
  00001	8b ec		 mov	 ebp, esp
  00003	81 ec d8 00 00
	00		 sub	 esp, 216		; 000000d8H
  00009	53		 push	 ebx
  0000a	56		 push	 esi
  0000b	57		 push	 edi
  0000c	8d bd 28 ff ff
	ff		 lea	 edi, DWORD PTR [ebp-216]
  00012	b9 36 00 00 00	 mov	 ecx, 54			; 00000036H
  00017	b8 cc cc cc cc	 mov	 eax, -858993460		; ccccccccH
  0001c	f3 ab		 rep stosd

; 469  : 	unsigned char* stateStr = (unsigned char*)state;

  0001e	8b 45 0c	 mov	 eax, DWORD PTR _state$[ebp]
  00021	89 45 f8	 mov	 DWORD PTR _stateStr$[ebp], eax

; 470  : 	unsigned int stateCount = context->plainSize;

  00024	8b 45 08	 mov	 eax, DWORD PTR _context$[ebp]
  00027	8b 48 24	 mov	 ecx, DWORD PTR [eax+36]
  0002a	89 4d ec	 mov	 DWORD PTR _stateCount$[ebp], ecx

; 471  : 	ShiftRowStr(stateStr,stateCount);

  0002d	8b 45 ec	 mov	 eax, DWORD PTR _stateCount$[ebp]
  00030	50		 push	 eax
  00031	8b 4d f8	 mov	 ecx, DWORD PTR _stateStr$[ebp]
  00034	51		 push	 ecx
  00035	e8 00 00 00 00	 call	 _ShiftRowStr
  0003a	83 c4 08	 add	 esp, 8

; 472  : }

  0003d	5f		 pop	 edi
  0003e	5e		 pop	 esi
  0003f	5b		 pop	 ebx
  00040	81 c4 d8 00 00
	00		 add	 esp, 216		; 000000d8H
  00046	3b ec		 cmp	 ebp, esp
  00048	e8 00 00 00 00	 call	 __RTC_CheckEsp
  0004d	8b e5		 mov	 esp, ebp
  0004f	5d		 pop	 ebp
  00050	c3		 ret	 0
_ShiftRow ENDP
_TEXT	ENDS
PUBLIC	__$ArrayPad$
; Function compile flags: /Odtp /RTCsu /ZI
;	COMDAT _ShiftRowStr
_TEXT	SEGMENT
_columnCount$ = -64					; size = 4
_lineCount$ = -52					; size = 4
_tmp$ = -40						; size = 8
_j$ = -24						; size = 4
_i$ = -12						; size = 4
__$ArrayPad$ = -4					; size = 4
_stateStr$ = 8						; size = 4
_count$ = 12						; size = 4
_ShiftRowStr PROC					; COMDAT

; 425  : {

  00000	55		 push	 ebp
  00001	8b ec		 mov	 ebp, esp
  00003	81 ec 04 01 00
	00		 sub	 esp, 260		; 00000104H
  00009	53		 push	 ebx
  0000a	56		 push	 esi
  0000b	57		 push	 edi
  0000c	8d bd fc fe ff
	ff		 lea	 edi, DWORD PTR [ebp-260]
  00012	b9 41 00 00 00	 mov	 ecx, 65			; 00000041H
  00017	b8 cc cc cc cc	 mov	 eax, -858993460		; ccccccccH
  0001c	f3 ab		 rep stosd
  0001e	a1 00 00 00 00	 mov	 eax, DWORD PTR ___security_cookie
  00023	33 c5		 xor	 eax, ebp
  00025	89 45 fc	 mov	 DWORD PTR __$ArrayPad$[ebp], eax

; 426  : 	int i,j;
; 427  : 	//明文一行最多只有8个字节
; 428  : 	unsigned char tmp[8] = {0};

  00028	c6 45 d8 00	 mov	 BYTE PTR _tmp$[ebp], 0
  0002c	33 c0		 xor	 eax, eax
  0002e	89 45 d9	 mov	 DWORD PTR _tmp$[ebp+1], eax
  00031	66 89 45 dd	 mov	 WORD PTR _tmp$[ebp+5], ax
  00035	88 45 df	 mov	 BYTE PTR _tmp$[ebp+7], al

; 429  : 	int lineCount = 4;

  00038	c7 45 cc 04 00
	00 00		 mov	 DWORD PTR _lineCount$[ebp], 4

; 430  : 	//列数
; 431  : 	int columnCount = count / lineCount;

  0003f	8b 45 0c	 mov	 eax, DWORD PTR _count$[ebp]
  00042	33 d2		 xor	 edx, edx
  00044	f7 75 cc	 div	 DWORD PTR _lineCount$[ebp]
  00047	89 45 c0	 mov	 DWORD PTR _columnCount$[ebp], eax

; 432  : 	//从1行开始移位
; 433  : 	for (i=1; i<lineCount; i++)

  0004a	c7 45 f4 01 00
	00 00		 mov	 DWORD PTR _i$[ebp], 1
  00051	eb 09		 jmp	 SHORT $LN6@ShiftRowSt
$LN5@ShiftRowSt:
  00053	8b 45 f4	 mov	 eax, DWORD PTR _i$[ebp]
  00056	83 c0 01	 add	 eax, 1
  00059	89 45 f4	 mov	 DWORD PTR _i$[ebp], eax
$LN6@ShiftRowSt:
  0005c	8b 45 f4	 mov	 eax, DWORD PTR _i$[ebp]
  0005f	3b 45 cc	 cmp	 eax, DWORD PTR _lineCount$[ebp]
  00062	7d 57		 jge	 SHORT $LN7@ShiftRowSt

; 434  : 	{
; 435  : 		CopyString(tmp,(char*)(stateStr + i*columnCount),columnCount);

  00064	8b 45 c0	 mov	 eax, DWORD PTR _columnCount$[ebp]
  00067	50		 push	 eax
  00068	8b 4d f4	 mov	 ecx, DWORD PTR _i$[ebp]
  0006b	0f af 4d c0	 imul	 ecx, DWORD PTR _columnCount$[ebp]
  0006f	03 4d 08	 add	 ecx, DWORD PTR _stateStr$[ebp]
  00072	51		 push	 ecx
  00073	8d 55 d8	 lea	 edx, DWORD PTR _tmp$[ebp]
  00076	52		 push	 edx
  00077	e8 00 00 00 00	 call	 _CopyString
  0007c	83 c4 0c	 add	 esp, 12			; 0000000cH

; 436  : 		for (j=0; j<columnCount; j++)

  0007f	c7 45 e8 00 00
	00 00		 mov	 DWORD PTR _j$[ebp], 0
  00086	eb 09		 jmp	 SHORT $LN3@ShiftRowSt
$LN2@ShiftRowSt:
  00088	8b 45 e8	 mov	 eax, DWORD PTR _j$[ebp]
  0008b	83 c0 01	 add	 eax, 1
  0008e	89 45 e8	 mov	 DWORD PTR _j$[ebp], eax
$LN3@ShiftRowSt:
  00091	8b 45 e8	 mov	 eax, DWORD PTR _j$[ebp]
  00094	3b 45 c0	 cmp	 eax, DWORD PTR _columnCount$[ebp]
  00097	7d 20		 jge	 SHORT $LN1@ShiftRowSt

; 437  : 		{
; 438  : 			*(stateStr + i*columnCount + j) = tmp[(i + j) % columnCount];

  00099	8b 45 f4	 mov	 eax, DWORD PTR _i$[ebp]
  0009c	03 45 e8	 add	 eax, DWORD PTR _j$[ebp]
  0009f	99		 cdq
  000a0	f7 7d c0	 idiv	 DWORD PTR _columnCount$[ebp]
  000a3	8b 45 f4	 mov	 eax, DWORD PTR _i$[ebp]
  000a6	0f af 45 c0	 imul	 eax, DWORD PTR _columnCount$[ebp]
  000aa	03 45 08	 add	 eax, DWORD PTR _stateStr$[ebp]
  000ad	8b 4d e8	 mov	 ecx, DWORD PTR _j$[ebp]
  000b0	8a 54 15 d8	 mov	 dl, BYTE PTR _tmp$[ebp+edx]
  000b4	88 14 08	 mov	 BYTE PTR [eax+ecx], dl

; 439  : 		}

  000b7	eb cf		 jmp	 SHORT $LN2@ShiftRowSt
$LN1@ShiftRowSt:

; 440  : 		/*
; 441  : 		t[0] = *(stateStr + i*columnCount);
; 442  : 		t[1] = *(stateStr + i*columnCount + 1);
; 443  : 		t[2] = *(stateStr + i*columnCount + 2);
; 444  : 		for (j=0; j<(columnCount-i); j++)
; 445  : 		{
; 446  : 			//第几行就移几位
; 447  : 			*(stateStr + i*columnCount + j) = *(stateStr + i*columnCount + j + i);
; 448  : 		}
; 449  : 		//用3个if语句代替for，提高性能
; 450  : 		if (i >= 1)
; 451  : 		{
; 452  : 			*(stateStr + i*columnCount + j) = t[0];
; 453  : 		}
; 454  : 		if (i >= 2)
; 455  : 		{
; 456  : 			*(stateStr + i*columnCount + j + 1) = t[1];
; 457  : 		}
; 458  : 		if (i >= 3)
; 459  : 		{
; 460  : 			*(stateStr + i*columnCount + j + 2) = t[2];
; 461  : 		}
; 462  : 		*/
; 463  : 	}

  000b9	eb 98		 jmp	 SHORT $LN5@ShiftRowSt
$LN7@ShiftRowSt:

; 464  : 	return;
; 465  : }

  000bb	52		 push	 edx
  000bc	8b cd		 mov	 ecx, ebp
  000be	50		 push	 eax
  000bf	8d 15 00 00 00
	00		 lea	 edx, DWORD PTR $LN11@ShiftRowSt
  000c5	e8 00 00 00 00	 call	 @_RTC_CheckStackVars@8
  000ca	58		 pop	 eax
  000cb	5a		 pop	 edx
  000cc	5f		 pop	 edi
  000cd	5e		 pop	 esi
  000ce	5b		 pop	 ebx
  000cf	8b 4d fc	 mov	 ecx, DWORD PTR __$ArrayPad$[ebp]
  000d2	33 cd		 xor	 ecx, ebp
  000d4	e8 00 00 00 00	 call	 @__security_check_cookie@4
  000d9	81 c4 04 01 00
	00		 add	 esp, 260		; 00000104H
  000df	3b ec		 cmp	 ebp, esp
  000e1	e8 00 00 00 00	 call	 __RTC_CheckEsp
  000e6	8b e5		 mov	 esp, ebp
  000e8	5d		 pop	 ebp
  000e9	c3		 ret	 0
  000ea	8b ff		 npad	 2
$LN11@ShiftRowSt:
  000ec	01 00 00 00	 DD	 1
  000f0	00 00 00 00	 DD	 $LN10@ShiftRowSt
$LN10@ShiftRowSt:
  000f4	d8 ff ff ff	 DD	 -40			; ffffffd8H
  000f8	08 00 00 00	 DD	 8
  000fc	00 00 00 00	 DD	 $LN9@ShiftRowSt
$LN9@ShiftRowSt:
  00100	74		 DB	 116			; 00000074H
  00101	6d		 DB	 109			; 0000006dH
  00102	70		 DB	 112			; 00000070H
  00103	00		 DB	 0
_ShiftRowStr ENDP
_TEXT	ENDS
EXTRN	_strlen:PROC
; Function compile flags: /Odtp /RTCsu /ZI
;	COMDAT _CopyString
_TEXT	SEGMENT
tv71 = -196						; size = 4
_dest$ = 8						; size = 4
_src$ = 12						; size = 4
_srcLen$ = 16						; size = 4
_CopyString PROC					; COMDAT

; 317  : {

  00000	55		 push	 ebp
  00001	8b ec		 mov	 ebp, esp
  00003	81 ec c4 00 00
	00		 sub	 esp, 196		; 000000c4H
  00009	53		 push	 ebx
  0000a	56		 push	 esi
  0000b	57		 push	 edi
  0000c	8d bd 3c ff ff
	ff		 lea	 edi, DWORD PTR [ebp-196]
  00012	b9 31 00 00 00	 mov	 ecx, 49			; 00000031H
  00017	b8 cc cc cc cc	 mov	 eax, -858993460		; ccccccccH
  0001c	f3 ab		 rep stosd

; 318  : 	if ((NULL != dest) && (NULL != src))

  0001e	83 7d 08 00	 cmp	 DWORD PTR _dest$[ebp], 0
  00022	74 5c		 je	 SHORT $LN5@CopyString
  00024	83 7d 0c 00	 cmp	 DWORD PTR _src$[ebp], 0
  00028	74 56		 je	 SHORT $LN5@CopyString

; 319  : 	{
; 320  : 		if (srcLen <= 0)

  0002a	83 7d 10 00	 cmp	 DWORD PTR _srcLen$[ebp], 0
  0002e	77 0f		 ja	 SHORT $LN2@CopyString

; 321  : 		{
; 322  : 			srcLen = strlen(src);

  00030	8b 45 0c	 mov	 eax, DWORD PTR _src$[ebp]
  00033	50		 push	 eax
  00034	e8 00 00 00 00	 call	 _strlen
  00039	83 c4 04	 add	 esp, 4
  0003c	89 45 10	 mov	 DWORD PTR _srcLen$[ebp], eax
$LN2@CopyString:

; 323  : 		}
; 324  : 		while (srcLen-- >0)

  0003f	8b 45 10	 mov	 eax, DWORD PTR _srcLen$[ebp]
  00042	8b 4d 10	 mov	 ecx, DWORD PTR _srcLen$[ebp]
  00045	83 e9 01	 sub	 ecx, 1
  00048	89 4d 10	 mov	 DWORD PTR _srcLen$[ebp], ecx
  0004b	85 c0		 test	 eax, eax
  0004d	76 0c		 jbe	 SHORT $LN7@CopyString
  0004f	c7 85 3c ff ff
	ff 01 00 00 00	 mov	 DWORD PTR tv71[ebp], 1
  00059	eb 0a		 jmp	 SHORT $LN8@CopyString
$LN7@CopyString:
  0005b	c7 85 3c ff ff
	ff 00 00 00 00	 mov	 DWORD PTR tv71[ebp], 0
$LN8@CopyString:
  00065	83 bd 3c ff ff
	ff 00		 cmp	 DWORD PTR tv71[ebp], 0
  0006c	74 12		 je	 SHORT $LN5@CopyString

; 325  : 		{
; 326  : 			dest[srcLen] = src[srcLen];

  0006e	8b 45 08	 mov	 eax, DWORD PTR _dest$[ebp]
  00071	03 45 10	 add	 eax, DWORD PTR _srcLen$[ebp]
  00074	8b 4d 0c	 mov	 ecx, DWORD PTR _src$[ebp]
  00077	03 4d 10	 add	 ecx, DWORD PTR _srcLen$[ebp]
  0007a	8a 11		 mov	 dl, BYTE PTR [ecx]
  0007c	88 10		 mov	 BYTE PTR [eax], dl

; 327  : 		}

  0007e	eb bf		 jmp	 SHORT $LN2@CopyString
$LN5@CopyString:

; 328  : 	}
; 329  : }

  00080	5f		 pop	 edi
  00081	5e		 pop	 esi
  00082	5b		 pop	 ebx
  00083	81 c4 c4 00 00
	00		 add	 esp, 196		; 000000c4H
  00089	3b ec		 cmp	 ebp, esp
  0008b	e8 00 00 00 00	 call	 __RTC_CheckEsp
  00090	8b e5		 mov	 esp, ebp
  00092	5d		 pop	 ebp
  00093	c3		 ret	 0
_CopyString ENDP
; Function compile flags: /Odtp /RTCsu /ZI
_TEXT	ENDS
;	COMDAT _MixColumn
_TEXT	SEGMENT
_r$ = -20						; size = 4
_i$ = -8						; size = 4
_context$ = 8						; size = 4
_state$ = 12						; size = 4
_MixColumn PROC						; COMDAT

; 626  : {

  00000	55		 push	 ebp
  00001	8b ec		 mov	 ebp, esp
  00003	81 ec d8 00 00
	00		 sub	 esp, 216		; 000000d8H
  00009	53		 push	 ebx
  0000a	56		 push	 esi
  0000b	57		 push	 edi
  0000c	8d bd 28 ff ff
	ff		 lea	 edi, DWORD PTR [ebp-216]
  00012	b9 36 00 00 00	 mov	 ecx, 54			; 00000036H
  00017	b8 cc cc cc cc	 mov	 eax, -858993460		; ccccccccH
  0001c	f3 ab		 rep stosd

; 627  : 	unsigned int i;
; 628  : 	unsigned char* r;
; 629  : 	for (i = 0; i<context->nb; i++)

  0001e	c7 45 f8 00 00
	00 00		 mov	 DWORD PTR _i$[ebp], 0
  00025	eb 09		 jmp	 SHORT $LN3@MixColumn
$LN2@MixColumn:
  00027	8b 45 f8	 mov	 eax, DWORD PTR _i$[ebp]
  0002a	83 c0 01	 add	 eax, 1
  0002d	89 45 f8	 mov	 DWORD PTR _i$[ebp], eax
$LN3@MixColumn:
  00030	8b 45 08	 mov	 eax, DWORD PTR _context$[ebp]
  00033	8b 4d f8	 mov	 ecx, DWORD PTR _i$[ebp]
  00036	3b 88 08 02 00
	00		 cmp	 ecx, DWORD PTR [eax+520]
  0003c	73 1e		 jae	 SHORT $LN4@MixColumn

; 630  : 	{
; 631  : 		r = (unsigned char*)&state[i];

  0003e	8b 45 f8	 mov	 eax, DWORD PTR _i$[ebp]
  00041	8b 4d 0c	 mov	 ecx, DWORD PTR _state$[ebp]
  00044	8d 14 81	 lea	 edx, DWORD PTR [ecx+eax*4]
  00047	89 55 ec	 mov	 DWORD PTR _r$[ebp], edx

; 632  : 		MixColumnStr(context,r);

  0004a	8b 45 ec	 mov	 eax, DWORD PTR _r$[ebp]
  0004d	50		 push	 eax
  0004e	8b 4d 08	 mov	 ecx, DWORD PTR _context$[ebp]
  00051	51		 push	 ecx
  00052	e8 00 00 00 00	 call	 _MixColumnStr
  00057	83 c4 08	 add	 esp, 8

; 633  : 	}

  0005a	eb cb		 jmp	 SHORT $LN2@MixColumn
$LN4@MixColumn:

; 634  : }

  0005c	5f		 pop	 edi
  0005d	5e		 pop	 esi
  0005e	5b		 pop	 ebx
  0005f	81 c4 d8 00 00
	00		 add	 esp, 216		; 000000d8H
  00065	3b ec		 cmp	 ebp, esp
  00067	e8 00 00 00 00	 call	 __RTC_CheckEsp
  0006c	8b e5		 mov	 esp, ebp
  0006e	5d		 pop	 ebp
  0006f	c3		 ret	 0
_MixColumn ENDP
; Function compile flags: /Odtp /RTCsu /ZI
_TEXT	ENDS
;	COMDAT _MixColumnStr
_TEXT	SEGMENT
_c$ = -29						; size = 1
_b$ = -20						; size = 4
_a$ = -8						; size = 4
_context$ = 8						; size = 4
_r$ = 12						; size = 4
_MixColumnStr PROC					; COMDAT

; 528  : {

  00000	55		 push	 ebp
  00001	8b ec		 mov	 ebp, esp
  00003	81 ec e4 00 00
	00		 sub	 esp, 228		; 000000e4H
  00009	53		 push	 ebx
  0000a	56		 push	 esi
  0000b	57		 push	 edi
  0000c	8d bd 1c ff ff
	ff		 lea	 edi, DWORD PTR [ebp-228]
  00012	b9 39 00 00 00	 mov	 ecx, 57			; 00000039H
  00017	b8 cc cc cc cc	 mov	 eax, -858993460		; ccccccccH
  0001c	f3 ab		 rep stosd

; 529  : 	//r的拷贝
; 530  : 	unsigned char a[4];
; 531  : 	//r * 0x2的伽罗瓦域计算
; 532  : 	unsigned char b[4];
; 533  : 	unsigned char c;
; 534  : 	//unsigned char h;
; 535  : 	
; 536  : 	//a[n] ^ b[n] is element n multiplied by 3 in Rijndael's Galois field */ 
; 537  : 	for(c=0; c<4; c++) 

  0001e	c6 45 e3 00	 mov	 BYTE PTR _c$[ebp], 0
  00022	eb 08		 jmp	 SHORT $LN3@MixColumnS
$LN2@MixColumnS:
  00024	8a 45 e3	 mov	 al, BYTE PTR _c$[ebp]
  00027	04 01		 add	 al, 1
  00029	88 45 e3	 mov	 BYTE PTR _c$[ebp], al
$LN3@MixColumnS:
  0002c	0f b6 45 e3	 movzx	 eax, BYTE PTR _c$[ebp]
  00030	83 f8 04	 cmp	 eax, 4
  00033	7d 3f		 jge	 SHORT $LN1@MixColumnS

; 538  : 	{
; 539  : 		a[c] = r[c];

  00035	0f b6 45 e3	 movzx	 eax, BYTE PTR _c$[ebp]
  00039	0f b6 4d e3	 movzx	 ecx, BYTE PTR _c$[ebp]
  0003d	8b 55 0c	 mov	 edx, DWORD PTR _r$[ebp]
  00040	8a 04 02	 mov	 al, BYTE PTR [edx+eax]
  00043	88 44 0d f8	 mov	 BYTE PTR _a$[ebp+ecx], al

; 540  : 		//这行代码代替下面所有的代码
; 541  : 		//依据的规则是任何数与0异或其值不变
; 542  : 		b[c] = XTIME(r[c]);

  00047	0f b6 45 e3	 movzx	 eax, BYTE PTR _c$[ebp]
  0004b	8b 4d 0c	 mov	 ecx, DWORD PTR _r$[ebp]
  0004e	0f b6 14 01	 movzx	 edx, BYTE PTR [ecx+eax]
  00052	d1 e2		 shl	 edx, 1
  00054	0f b6 45 e3	 movzx	 eax, BYTE PTR _c$[ebp]
  00058	8b 4d 0c	 mov	 ecx, DWORD PTR _r$[ebp]
  0005b	0f b6 04 01	 movzx	 eax, BYTE PTR [ecx+eax]
  0005f	c1 f8 07	 sar	 eax, 7
  00062	83 e0 01	 and	 eax, 1
  00065	6b c0 1b	 imul	 eax, 27			; 0000001bH
  00068	33 d0		 xor	 edx, eax
  0006a	0f b6 4d e3	 movzx	 ecx, BYTE PTR _c$[ebp]
  0006e	88 54 0d ec	 mov	 BYTE PTR _b$[ebp+ecx], dl

; 543  : 		/*
; 544  : 		h = r[c] & 0x80;
; 545  : 		b[c] = r[c] << 1;
; 546  : 		if(h == 0x80) 
; 547  : 		{
; 548  : 			b[c] ^= 0x1b;
; 549  : 		}*/
; 550  : 	}

  00072	eb b0		 jmp	 SHORT $LN2@MixColumnS
$LN1@MixColumnS:

; 551  : 	//0x01、0x02、0x03、0x09、0x0b、0x0d 和 0x0e 来相乘
; 552  : 	//由于GF(256)域的值永远在0-255之间，所以获取2,3,9,b,d,e的
; 553  : 	//GF域值时可以通过查表法的
; 554  : 	//其实是一个矩阵c(x) = x^4 + 1 = 3*x^3 + 2*x^2 + x + 1
; 555  : 	//他的逆运算为c^-1(x)=11*x^3 + 13*x^2 + 9*x + 14
; 556  : 	//换成矩阵则是
; 557  : 	/*
; 558  : 	 * [2 3 1 1] [a0]   
; 559  : 	 * [1 2 3 1] [a1]
; 560  : 	 * [1 1 2 3] [a2]
; 561  : 	 * [3 1 1 2] [a3]
; 562  : 	 * b0 = 2 * a0 + a3 + a2 + 3 * a1
; 563  : 	 * b1 = 2 * a1 + a0 + a3 + 3 * a2
; 564  : 	 * b2 = 2 * a2 + a1 + a0 + 3 * a3
; 565  : 	 * b3 = 2 * a3 + a2 + a1 + 3 * a0
; 566  : 	 * 这里最高只有乘以3，即（x+1)=(2+1)因此b[]只要保存r[]*2的值即可
; 567  : 	 * b[1] ^ a[1] = 3 * a[1]
; 568  : 	 */
; 569  : 	/* 2 * a0 + a3 + a2 + 3 * a1 */
; 570  : 	r[0] = b[0] ^ a[3] ^ a[2] ^ b[1] ^ a[1]; 

  00074	0f b6 45 ec	 movzx	 eax, BYTE PTR _b$[ebp]
  00078	0f b6 4d fb	 movzx	 ecx, BYTE PTR _a$[ebp+3]
  0007c	33 c1		 xor	 eax, ecx
  0007e	0f b6 55 fa	 movzx	 edx, BYTE PTR _a$[ebp+2]
  00082	33 c2		 xor	 eax, edx
  00084	0f b6 4d ed	 movzx	 ecx, BYTE PTR _b$[ebp+1]
  00088	33 c1		 xor	 eax, ecx
  0008a	0f b6 55 f9	 movzx	 edx, BYTE PTR _a$[ebp+1]
  0008e	33 c2		 xor	 eax, edx
  00090	8b 4d 0c	 mov	 ecx, DWORD PTR _r$[ebp]
  00093	88 01		 mov	 BYTE PTR [ecx], al

; 571  : 	/* 2 * a1 + a0 + a3 + 3 * a2 */
; 572  : 	r[1] = b[1] ^ a[0] ^ a[3] ^ b[2] ^ a[2];

  00095	0f b6 45 ed	 movzx	 eax, BYTE PTR _b$[ebp+1]
  00099	0f b6 4d f8	 movzx	 ecx, BYTE PTR _a$[ebp]
  0009d	33 c1		 xor	 eax, ecx
  0009f	0f b6 55 fb	 movzx	 edx, BYTE PTR _a$[ebp+3]
  000a3	33 c2		 xor	 eax, edx
  000a5	0f b6 4d ee	 movzx	 ecx, BYTE PTR _b$[ebp+2]
  000a9	33 c1		 xor	 eax, ecx
  000ab	0f b6 55 fa	 movzx	 edx, BYTE PTR _a$[ebp+2]
  000af	33 c2		 xor	 eax, edx
  000b1	8b 4d 0c	 mov	 ecx, DWORD PTR _r$[ebp]
  000b4	88 41 01	 mov	 BYTE PTR [ecx+1], al

; 573  : 	/* 2 * a2 + a1 + a0 + 3 * a3 */
; 574  : 	r[2] = b[2] ^ a[1] ^ a[0] ^ b[3] ^ a[3];

  000b7	0f b6 45 ee	 movzx	 eax, BYTE PTR _b$[ebp+2]
  000bb	0f b6 4d f9	 movzx	 ecx, BYTE PTR _a$[ebp+1]
  000bf	33 c1		 xor	 eax, ecx
  000c1	0f b6 55 f8	 movzx	 edx, BYTE PTR _a$[ebp]
  000c5	33 c2		 xor	 eax, edx
  000c7	0f b6 4d ef	 movzx	 ecx, BYTE PTR _b$[ebp+3]
  000cb	33 c1		 xor	 eax, ecx
  000cd	0f b6 55 fb	 movzx	 edx, BYTE PTR _a$[ebp+3]
  000d1	33 c2		 xor	 eax, edx
  000d3	8b 4d 0c	 mov	 ecx, DWORD PTR _r$[ebp]
  000d6	88 41 02	 mov	 BYTE PTR [ecx+2], al

; 575  : 	/* 2 * a3 + a2 + a1 + 3 * a0 */
; 576  : 	r[3] = b[3] ^ a[2] ^ a[1] ^ b[0] ^ a[0];

  000d9	0f b6 45 ef	 movzx	 eax, BYTE PTR _b$[ebp+3]
  000dd	0f b6 4d fa	 movzx	 ecx, BYTE PTR _a$[ebp+2]
  000e1	33 c1		 xor	 eax, ecx
  000e3	0f b6 55 f9	 movzx	 edx, BYTE PTR _a$[ebp+1]
  000e7	33 c2		 xor	 eax, edx
  000e9	0f b6 4d ec	 movzx	 ecx, BYTE PTR _b$[ebp]
  000ed	33 c1		 xor	 eax, ecx
  000ef	0f b6 55 f8	 movzx	 edx, BYTE PTR _a$[ebp]
  000f3	33 c2		 xor	 eax, edx
  000f5	8b 4d 0c	 mov	 ecx, DWORD PTR _r$[ebp]
  000f8	88 41 03	 mov	 BYTE PTR [ecx+3], al

; 577  : }

  000fb	52		 push	 edx
  000fc	8b cd		 mov	 ecx, ebp
  000fe	50		 push	 eax
  000ff	8d 15 00 00 00
	00		 lea	 edx, DWORD PTR $LN9@MixColumnS
  00105	e8 00 00 00 00	 call	 @_RTC_CheckStackVars@8
  0010a	58		 pop	 eax
  0010b	5a		 pop	 edx
  0010c	5f		 pop	 edi
  0010d	5e		 pop	 esi
  0010e	5b		 pop	 ebx
  0010f	8b e5		 mov	 esp, ebp
  00111	5d		 pop	 ebp
  00112	c3		 ret	 0
  00113	90		 npad	 1
$LN9@MixColumnS:
  00114	02 00 00 00	 DD	 2
  00118	00 00 00 00	 DD	 $LN8@MixColumnS
$LN8@MixColumnS:
  0011c	f8 ff ff ff	 DD	 -8			; fffffff8H
  00120	04 00 00 00	 DD	 4
  00124	00 00 00 00	 DD	 $LN6@MixColumnS
  00128	ec ff ff ff	 DD	 -20			; ffffffecH
  0012c	04 00 00 00	 DD	 4
  00130	00 00 00 00	 DD	 $LN7@MixColumnS
$LN7@MixColumnS:
  00134	62		 DB	 98			; 00000062H
  00135	00		 DB	 0
$LN6@MixColumnS:
  00136	61		 DB	 97			; 00000061H
  00137	00		 DB	 0
_MixColumnStr ENDP
_TEXT	ENDS
PUBLIC	_RijndaelDecrypt
; Function compile flags: /Odtp /RTCsu /ZI
;	COMDAT _RijndaelDecrypt
_TEXT	SEGMENT
_plainSize$ = -20					; size = 4
_i$ = -8						; size = 4
_context$ = 8						; size = 4
_pInput$ = 12						; size = 4
_nSize$ = 16						; size = 4
_pOutput$ = 20						; size = 4
_RijndaelDecrypt PROC					; COMDAT

; 823  : {

  00000	55		 push	 ebp
  00001	8b ec		 mov	 ebp, esp
  00003	81 ec d8 00 00
	00		 sub	 esp, 216		; 000000d8H
  00009	53		 push	 ebx
  0000a	56		 push	 esi
  0000b	57		 push	 edi
  0000c	8d bd 28 ff ff
	ff		 lea	 edi, DWORD PTR [ebp-216]
  00012	b9 36 00 00 00	 mov	 ecx, 54			; 00000036H
  00017	b8 cc cc cc cc	 mov	 eax, -858993460		; ccccccccH
  0001c	f3 ab		 rep stosd

; 824  : 	unsigned int i;
; 825  : 	//需要计算的最小长度
; 826  : 	unsigned int plainSize = context->plainSize;

  0001e	8b 45 08	 mov	 eax, DWORD PTR _context$[ebp]
  00021	8b 48 24	 mov	 ecx, DWORD PTR [eax+36]
  00024	89 4d ec	 mov	 DWORD PTR _plainSize$[ebp], ecx

; 827  : 	if (nSize % plainSize != 0)

  00027	8b 45 10	 mov	 eax, DWORD PTR _nSize$[ebp]
  0002a	33 d2		 xor	 edx, edx
  0002c	f7 75 ec	 div	 DWORD PTR _plainSize$[ebp]
  0002f	85 d2		 test	 edx, edx
  00031	74 32		 je	 SHORT $LN4@RijndaelDe

; 828  : 	{
; 829  : 		nSize += plainSize - (nSize % plainSize);

  00033	8b 45 10	 mov	 eax, DWORD PTR _nSize$[ebp]
  00036	33 d2		 xor	 edx, edx
  00038	f7 75 ec	 div	 DWORD PTR _plainSize$[ebp]
  0003b	8b 45 ec	 mov	 eax, DWORD PTR _plainSize$[ebp]
  0003e	2b c2		 sub	 eax, edx
  00040	03 45 10	 add	 eax, DWORD PTR _nSize$[ebp]
  00043	89 45 10	 mov	 DWORD PTR _nSize$[ebp], eax

; 830  : 		//清0
; 831  : 		memset((unsigned char*)pOutput + nSize,0,plainSize - (nSize % plainSize));

  00046	8b 45 10	 mov	 eax, DWORD PTR _nSize$[ebp]
  00049	33 d2		 xor	 edx, edx
  0004b	f7 75 ec	 div	 DWORD PTR _plainSize$[ebp]
  0004e	8b 45 ec	 mov	 eax, DWORD PTR _plainSize$[ebp]
  00051	2b c2		 sub	 eax, edx
  00053	50		 push	 eax
  00054	6a 00		 push	 0
  00056	8b 4d 14	 mov	 ecx, DWORD PTR _pOutput$[ebp]
  00059	03 4d 10	 add	 ecx, DWORD PTR _nSize$[ebp]
  0005c	51		 push	 ecx
  0005d	e8 00 00 00 00	 call	 _memset
  00062	83 c4 0c	 add	 esp, 12			; 0000000cH
$LN4@RijndaelDe:

; 832  : 	}
; 833  : 	for (i=0; i<nSize; i += plainSize)

  00065	c7 45 f8 00 00
	00 00		 mov	 DWORD PTR _i$[ebp], 0
  0006c	eb 09		 jmp	 SHORT $LN3@RijndaelDe
$LN2@RijndaelDe:
  0006e	8b 45 f8	 mov	 eax, DWORD PTR _i$[ebp]
  00071	03 45 ec	 add	 eax, DWORD PTR _plainSize$[ebp]
  00074	89 45 f8	 mov	 DWORD PTR _i$[ebp], eax
$LN3@RijndaelDe:
  00077	8b 45 f8	 mov	 eax, DWORD PTR _i$[ebp]
  0007a	3b 45 10	 cmp	 eax, DWORD PTR _nSize$[ebp]
  0007d	73 2f		 jae	 SHORT $LN5@RijndaelDe

; 834  : 	{
; 835  : 		memcpy((unsigned char*)pOutput + i,(unsigned char*)pInput + i,plainSize);

  0007f	8b 45 ec	 mov	 eax, DWORD PTR _plainSize$[ebp]
  00082	50		 push	 eax
  00083	8b 4d 0c	 mov	 ecx, DWORD PTR _pInput$[ebp]
  00086	03 4d f8	 add	 ecx, DWORD PTR _i$[ebp]
  00089	51		 push	 ecx
  0008a	8b 55 14	 mov	 edx, DWORD PTR _pOutput$[ebp]
  0008d	03 55 f8	 add	 edx, DWORD PTR _i$[ebp]
  00090	52		 push	 edx
  00091	e8 00 00 00 00	 call	 _memcpy
  00096	83 c4 0c	 add	 esp, 12			; 0000000cH

; 836  : 		Decrypt(context,(unsigned char*)pOutput + i);

  00099	8b 45 14	 mov	 eax, DWORD PTR _pOutput$[ebp]
  0009c	03 45 f8	 add	 eax, DWORD PTR _i$[ebp]
  0009f	50		 push	 eax
  000a0	8b 4d 08	 mov	 ecx, DWORD PTR _context$[ebp]
  000a3	51		 push	 ecx
  000a4	e8 00 00 00 00	 call	 _Decrypt
  000a9	83 c4 08	 add	 esp, 8

; 837  : 	}

  000ac	eb c0		 jmp	 SHORT $LN2@RijndaelDe
$LN5@RijndaelDe:

; 838  : }

  000ae	5f		 pop	 edi
  000af	5e		 pop	 esi
  000b0	5b		 pop	 ebx
  000b1	81 c4 d8 00 00
	00		 add	 esp, 216		; 000000d8H
  000b7	3b ec		 cmp	 ebp, esp
  000b9	e8 00 00 00 00	 call	 __RTC_CheckEsp
  000be	8b e5		 mov	 esp, ebp
  000c0	5d		 pop	 ebp
  000c1	c3		 ret	 0
_RijndaelDecrypt ENDP
_TEXT	ENDS
PUBLIC	__$ArrayPad$
; Function compile flags: /Odtp /RTCsu /ZI
;	COMDAT _Decrypt
_TEXT	SEGMENT
_nb$ = -76						; size = 4
_inputStringPtr$ = -64					; size = 4
_state$ = -52						; size = 32
_round$ = -12						; size = 4
__$ArrayPad$ = -4					; size = 4
_context$ = 8						; size = 4
_input$ = 12						; size = 4
_Decrypt PROC						; COMDAT

; 749  : {

  00000	55		 push	 ebp
  00001	8b ec		 mov	 ebp, esp
  00003	81 ec 10 01 00
	00		 sub	 esp, 272		; 00000110H
  00009	53		 push	 ebx
  0000a	56		 push	 esi
  0000b	57		 push	 edi
  0000c	8d bd f0 fe ff
	ff		 lea	 edi, DWORD PTR [ebp-272]
  00012	b9 44 00 00 00	 mov	 ecx, 68			; 00000044H
  00017	b8 cc cc cc cc	 mov	 eax, -858993460		; ccccccccH
  0001c	f3 ab		 rep stosd
  0001e	a1 00 00 00 00	 mov	 eax, DWORD PTR ___security_cookie
  00023	33 c5		 xor	 eax, ebp
  00025	89 45 fc	 mov	 DWORD PTR __$ArrayPad$[ebp], eax

; 750  : 	int round;
; 751  : 	//明文的最大长度
; 752  : 	unsigned long state[8] = {0};

  00028	c7 45 cc 00 00
	00 00		 mov	 DWORD PTR _state$[ebp], 0
  0002f	33 c0		 xor	 eax, eax
  00031	89 45 d0	 mov	 DWORD PTR _state$[ebp+4], eax
  00034	89 45 d4	 mov	 DWORD PTR _state$[ebp+8], eax
  00037	89 45 d8	 mov	 DWORD PTR _state$[ebp+12], eax
  0003a	89 45 dc	 mov	 DWORD PTR _state$[ebp+16], eax
  0003d	89 45 e0	 mov	 DWORD PTR _state$[ebp+20], eax
  00040	89 45 e4	 mov	 DWORD PTR _state$[ebp+24], eax
  00043	89 45 e8	 mov	 DWORD PTR _state$[ebp+28], eax

; 753  : 	unsigned char* inputStringPtr = (unsigned char*)input;

  00046	8b 45 0c	 mov	 eax, DWORD PTR _input$[ebp]
  00049	89 45 c0	 mov	 DWORD PTR _inputStringPtr$[ebp], eax

; 754  : 	unsigned int nb = context->nb;

  0004c	8b 45 08	 mov	 eax, DWORD PTR _context$[ebp]
  0004f	8b 88 08 02 00
	00		 mov	 ecx, DWORD PTR [eax+520]
  00055	89 4d b4	 mov	 DWORD PTR _nb$[ebp], ecx

; 755  : 	state[0] = GETINT32(inputStringPtr,0,nb);

  00058	8b 45 c0	 mov	 eax, DWORD PTR _inputStringPtr$[ebp]
  0005b	0f b6 08	 movzx	 ecx, BYTE PTR [eax]
  0005e	c1 e1 18	 shl	 ecx, 24			; 00000018H
  00061	8b 55 c0	 mov	 edx, DWORD PTR _inputStringPtr$[ebp]
  00064	03 55 b4	 add	 edx, DWORD PTR _nb$[ebp]
  00067	0f b6 02	 movzx	 eax, BYTE PTR [edx]
  0006a	c1 e0 10	 shl	 eax, 16			; 00000010H
  0006d	0b c8		 or	 ecx, eax
  0006f	8b 55 b4	 mov	 edx, DWORD PTR _nb$[ebp]
  00072	8b 45 c0	 mov	 eax, DWORD PTR _inputStringPtr$[ebp]
  00075	0f b6 14 50	 movzx	 edx, BYTE PTR [eax+edx*2]
  00079	c1 e2 08	 shl	 edx, 8
  0007c	0b ca		 or	 ecx, edx
  0007e	8b 45 b4	 mov	 eax, DWORD PTR _nb$[ebp]
  00081	6b c0 03	 imul	 eax, 3
  00084	8b 55 c0	 mov	 edx, DWORD PTR _inputStringPtr$[ebp]
  00087	0f b6 04 02	 movzx	 eax, BYTE PTR [edx+eax]
  0008b	0b c8		 or	 ecx, eax
  0008d	89 4d cc	 mov	 DWORD PTR _state$[ebp], ecx

; 756  : 	state[1] = GETINT32(inputStringPtr,1,nb);

  00090	8b 45 c0	 mov	 eax, DWORD PTR _inputStringPtr$[ebp]
  00093	0f b6 48 01	 movzx	 ecx, BYTE PTR [eax+1]
  00097	c1 e1 18	 shl	 ecx, 24			; 00000018H
  0009a	8b 55 c0	 mov	 edx, DWORD PTR _inputStringPtr$[ebp]
  0009d	03 55 b4	 add	 edx, DWORD PTR _nb$[ebp]
  000a0	0f b6 42 01	 movzx	 eax, BYTE PTR [edx+1]
  000a4	c1 e0 10	 shl	 eax, 16			; 00000010H
  000a7	0b c8		 or	 ecx, eax
  000a9	8b 55 b4	 mov	 edx, DWORD PTR _nb$[ebp]
  000ac	8b 45 c0	 mov	 eax, DWORD PTR _inputStringPtr$[ebp]
  000af	0f b6 54 50 01	 movzx	 edx, BYTE PTR [eax+edx*2+1]
  000b4	c1 e2 08	 shl	 edx, 8
  000b7	0b ca		 or	 ecx, edx
  000b9	8b 45 b4	 mov	 eax, DWORD PTR _nb$[ebp]
  000bc	6b c0 03	 imul	 eax, 3
  000bf	8b 55 c0	 mov	 edx, DWORD PTR _inputStringPtr$[ebp]
  000c2	0f b6 44 02 01	 movzx	 eax, BYTE PTR [edx+eax+1]
  000c7	0b c8		 or	 ecx, eax
  000c9	89 4d d0	 mov	 DWORD PTR _state$[ebp+4], ecx

; 757  : 	state[2] = GETINT32(inputStringPtr,2,nb);

  000cc	8b 45 c0	 mov	 eax, DWORD PTR _inputStringPtr$[ebp]
  000cf	0f b6 48 02	 movzx	 ecx, BYTE PTR [eax+2]
  000d3	c1 e1 18	 shl	 ecx, 24			; 00000018H
  000d6	8b 55 c0	 mov	 edx, DWORD PTR _inputStringPtr$[ebp]
  000d9	03 55 b4	 add	 edx, DWORD PTR _nb$[ebp]
  000dc	0f b6 42 02	 movzx	 eax, BYTE PTR [edx+2]
  000e0	c1 e0 10	 shl	 eax, 16			; 00000010H
  000e3	0b c8		 or	 ecx, eax
  000e5	8b 55 b4	 mov	 edx, DWORD PTR _nb$[ebp]
  000e8	8b 45 c0	 mov	 eax, DWORD PTR _inputStringPtr$[ebp]
  000eb	0f b6 54 50 02	 movzx	 edx, BYTE PTR [eax+edx*2+2]
  000f0	c1 e2 08	 shl	 edx, 8
  000f3	0b ca		 or	 ecx, edx
  000f5	8b 45 b4	 mov	 eax, DWORD PTR _nb$[ebp]
  000f8	6b c0 03	 imul	 eax, 3
  000fb	8b 55 c0	 mov	 edx, DWORD PTR _inputStringPtr$[ebp]
  000fe	0f b6 44 02 02	 movzx	 eax, BYTE PTR [edx+eax+2]
  00103	0b c8		 or	 ecx, eax
  00105	89 4d d4	 mov	 DWORD PTR _state$[ebp+8], ecx

; 758  : 	state[3] = GETINT32(inputStringPtr,3,nb);

  00108	8b 45 c0	 mov	 eax, DWORD PTR _inputStringPtr$[ebp]
  0010b	0f b6 48 03	 movzx	 ecx, BYTE PTR [eax+3]
  0010f	c1 e1 18	 shl	 ecx, 24			; 00000018H
  00112	8b 55 c0	 mov	 edx, DWORD PTR _inputStringPtr$[ebp]
  00115	03 55 b4	 add	 edx, DWORD PTR _nb$[ebp]
  00118	0f b6 42 03	 movzx	 eax, BYTE PTR [edx+3]
  0011c	c1 e0 10	 shl	 eax, 16			; 00000010H
  0011f	0b c8		 or	 ecx, eax
  00121	8b 55 b4	 mov	 edx, DWORD PTR _nb$[ebp]
  00124	8b 45 c0	 mov	 eax, DWORD PTR _inputStringPtr$[ebp]
  00127	0f b6 54 50 03	 movzx	 edx, BYTE PTR [eax+edx*2+3]
  0012c	c1 e2 08	 shl	 edx, 8
  0012f	0b ca		 or	 ecx, edx
  00131	8b 45 b4	 mov	 eax, DWORD PTR _nb$[ebp]
  00134	6b c0 03	 imul	 eax, 3
  00137	8b 55 c0	 mov	 edx, DWORD PTR _inputStringPtr$[ebp]
  0013a	0f b6 44 02 03	 movzx	 eax, BYTE PTR [edx+eax+3]
  0013f	0b c8		 or	 ecx, eax
  00141	89 4d d8	 mov	 DWORD PTR _state$[ebp+12], ecx

; 759  : 	if (nb >= (KeySize_192/4))

  00144	83 7d b4 06	 cmp	 DWORD PTR _nb$[ebp], 6
  00148	72 78		 jb	 SHORT $LN5@Decrypt

; 760  : 	{
; 761  : 		state[4] = GETINT32(inputStringPtr,4,nb);

  0014a	8b 45 c0	 mov	 eax, DWORD PTR _inputStringPtr$[ebp]
  0014d	0f b6 48 04	 movzx	 ecx, BYTE PTR [eax+4]
  00151	c1 e1 18	 shl	 ecx, 24			; 00000018H
  00154	8b 55 c0	 mov	 edx, DWORD PTR _inputStringPtr$[ebp]
  00157	03 55 b4	 add	 edx, DWORD PTR _nb$[ebp]
  0015a	0f b6 42 04	 movzx	 eax, BYTE PTR [edx+4]
  0015e	c1 e0 10	 shl	 eax, 16			; 00000010H
  00161	0b c8		 or	 ecx, eax
  00163	8b 55 b4	 mov	 edx, DWORD PTR _nb$[ebp]
  00166	8b 45 c0	 mov	 eax, DWORD PTR _inputStringPtr$[ebp]
  00169	0f b6 54 50 04	 movzx	 edx, BYTE PTR [eax+edx*2+4]
  0016e	c1 e2 08	 shl	 edx, 8
  00171	0b ca		 or	 ecx, edx
  00173	8b 45 b4	 mov	 eax, DWORD PTR _nb$[ebp]
  00176	6b c0 03	 imul	 eax, 3
  00179	8b 55 c0	 mov	 edx, DWORD PTR _inputStringPtr$[ebp]
  0017c	0f b6 44 02 04	 movzx	 eax, BYTE PTR [edx+eax+4]
  00181	0b c8		 or	 ecx, eax
  00183	89 4d dc	 mov	 DWORD PTR _state$[ebp+16], ecx

; 762  : 		state[5] = GETINT32(inputStringPtr,5,nb);

  00186	8b 45 c0	 mov	 eax, DWORD PTR _inputStringPtr$[ebp]
  00189	0f b6 48 05	 movzx	 ecx, BYTE PTR [eax+5]
  0018d	c1 e1 18	 shl	 ecx, 24			; 00000018H
  00190	8b 55 c0	 mov	 edx, DWORD PTR _inputStringPtr$[ebp]
  00193	03 55 b4	 add	 edx, DWORD PTR _nb$[ebp]
  00196	0f b6 42 05	 movzx	 eax, BYTE PTR [edx+5]
  0019a	c1 e0 10	 shl	 eax, 16			; 00000010H
  0019d	0b c8		 or	 ecx, eax
  0019f	8b 55 b4	 mov	 edx, DWORD PTR _nb$[ebp]
  001a2	8b 45 c0	 mov	 eax, DWORD PTR _inputStringPtr$[ebp]
  001a5	0f b6 54 50 05	 movzx	 edx, BYTE PTR [eax+edx*2+5]
  001aa	c1 e2 08	 shl	 edx, 8
  001ad	0b ca		 or	 ecx, edx
  001af	8b 45 b4	 mov	 eax, DWORD PTR _nb$[ebp]
  001b2	6b c0 03	 imul	 eax, 3
  001b5	8b 55 c0	 mov	 edx, DWORD PTR _inputStringPtr$[ebp]
  001b8	0f b6 44 02 05	 movzx	 eax, BYTE PTR [edx+eax+5]
  001bd	0b c8		 or	 ecx, eax
  001bf	89 4d e0	 mov	 DWORD PTR _state$[ebp+20], ecx
$LN5@Decrypt:

; 763  : 	}
; 764  : 
; 765  : 	if (nb >= (KeySize_256/4))

  001c2	83 7d b4 08	 cmp	 DWORD PTR _nb$[ebp], 8
  001c6	72 78		 jb	 SHORT $LN4@Decrypt

; 766  : 	{
; 767  : 		state[6] = GETINT32(inputStringPtr,6,nb);

  001c8	8b 45 c0	 mov	 eax, DWORD PTR _inputStringPtr$[ebp]
  001cb	0f b6 48 06	 movzx	 ecx, BYTE PTR [eax+6]
  001cf	c1 e1 18	 shl	 ecx, 24			; 00000018H
  001d2	8b 55 c0	 mov	 edx, DWORD PTR _inputStringPtr$[ebp]
  001d5	03 55 b4	 add	 edx, DWORD PTR _nb$[ebp]
  001d8	0f b6 42 06	 movzx	 eax, BYTE PTR [edx+6]
  001dc	c1 e0 10	 shl	 eax, 16			; 00000010H
  001df	0b c8		 or	 ecx, eax
  001e1	8b 55 b4	 mov	 edx, DWORD PTR _nb$[ebp]
  001e4	8b 45 c0	 mov	 eax, DWORD PTR _inputStringPtr$[ebp]
  001e7	0f b6 54 50 06	 movzx	 edx, BYTE PTR [eax+edx*2+6]
  001ec	c1 e2 08	 shl	 edx, 8
  001ef	0b ca		 or	 ecx, edx
  001f1	8b 45 b4	 mov	 eax, DWORD PTR _nb$[ebp]
  001f4	6b c0 03	 imul	 eax, 3
  001f7	8b 55 c0	 mov	 edx, DWORD PTR _inputStringPtr$[ebp]
  001fa	0f b6 44 02 06	 movzx	 eax, BYTE PTR [edx+eax+6]
  001ff	0b c8		 or	 ecx, eax
  00201	89 4d e4	 mov	 DWORD PTR _state$[ebp+24], ecx

; 768  : 		state[7] = GETINT32(inputStringPtr,7,nb);

  00204	8b 45 c0	 mov	 eax, DWORD PTR _inputStringPtr$[ebp]
  00207	0f b6 48 07	 movzx	 ecx, BYTE PTR [eax+7]
  0020b	c1 e1 18	 shl	 ecx, 24			; 00000018H
  0020e	8b 55 c0	 mov	 edx, DWORD PTR _inputStringPtr$[ebp]
  00211	03 55 b4	 add	 edx, DWORD PTR _nb$[ebp]
  00214	0f b6 42 07	 movzx	 eax, BYTE PTR [edx+7]
  00218	c1 e0 10	 shl	 eax, 16			; 00000010H
  0021b	0b c8		 or	 ecx, eax
  0021d	8b 55 b4	 mov	 edx, DWORD PTR _nb$[ebp]
  00220	8b 45 c0	 mov	 eax, DWORD PTR _inputStringPtr$[ebp]
  00223	0f b6 54 50 07	 movzx	 edx, BYTE PTR [eax+edx*2+7]
  00228	c1 e2 08	 shl	 edx, 8
  0022b	0b ca		 or	 ecx, edx
  0022d	8b 45 b4	 mov	 eax, DWORD PTR _nb$[ebp]
  00230	6b c0 03	 imul	 eax, 3
  00233	8b 55 c0	 mov	 edx, DWORD PTR _inputStringPtr$[ebp]
  00236	0f b6 44 02 07	 movzx	 eax, BYTE PTR [edx+eax+7]
  0023b	0b c8		 or	 ecx, eax
  0023d	89 4d e8	 mov	 DWORD PTR _state$[ebp+28], ecx
$LN4@Decrypt:

; 769  : 	}
; 770  : 	InvAddRoundKey(context,context->nr,state);

  00240	8d 45 cc	 lea	 eax, DWORD PTR _state$[ebp]
  00243	50		 push	 eax
  00244	8b 4d 08	 mov	 ecx, DWORD PTR _context$[ebp]
  00247	8b 91 0c 02 00
	00		 mov	 edx, DWORD PTR [ecx+524]
  0024d	52		 push	 edx
  0024e	8b 45 08	 mov	 eax, DWORD PTR _context$[ebp]
  00251	50		 push	 eax
  00252	e8 00 00 00 00	 call	 _InvAddRoundKey
  00257	83 c4 0c	 add	 esp, 12			; 0000000cH

; 771  : 	InvShiftRow(context,state);

  0025a	8d 45 cc	 lea	 eax, DWORD PTR _state$[ebp]
  0025d	50		 push	 eax
  0025e	8b 4d 08	 mov	 ecx, DWORD PTR _context$[ebp]
  00261	51		 push	 ecx
  00262	e8 00 00 00 00	 call	 _InvShiftRow
  00267	83 c4 08	 add	 esp, 8

; 772  : 	InvSubByte(context,state);

  0026a	8d 45 cc	 lea	 eax, DWORD PTR _state$[ebp]
  0026d	50		 push	 eax
  0026e	8b 4d 08	 mov	 ecx, DWORD PTR _context$[ebp]
  00271	51		 push	 ecx
  00272	e8 00 00 00 00	 call	 _InvSubByte
  00277	83 c4 08	 add	 esp, 8

; 773  : 	for (round = (context->nr-1); round > 0; round--)

  0027a	8b 45 08	 mov	 eax, DWORD PTR _context$[ebp]
  0027d	8b 88 0c 02 00
	00		 mov	 ecx, DWORD PTR [eax+524]
  00283	83 e9 01	 sub	 ecx, 1
  00286	89 4d f4	 mov	 DWORD PTR _round$[ebp], ecx
  00289	eb 09		 jmp	 SHORT $LN3@Decrypt
$LN2@Decrypt:
  0028b	8b 45 f4	 mov	 eax, DWORD PTR _round$[ebp]
  0028e	83 e8 01	 sub	 eax, 1
  00291	89 45 f4	 mov	 DWORD PTR _round$[ebp], eax
$LN3@Decrypt:
  00294	83 7d f4 00	 cmp	 DWORD PTR _round$[ebp], 0
  00298	7e 46		 jle	 SHORT $LN1@Decrypt

; 774  : 	{
; 775  : 		InvAddRoundKey(context,round,state);

  0029a	8d 45 cc	 lea	 eax, DWORD PTR _state$[ebp]
  0029d	50		 push	 eax
  0029e	8b 4d f4	 mov	 ecx, DWORD PTR _round$[ebp]
  002a1	51		 push	 ecx
  002a2	8b 55 08	 mov	 edx, DWORD PTR _context$[ebp]
  002a5	52		 push	 edx
  002a6	e8 00 00 00 00	 call	 _InvAddRoundKey
  002ab	83 c4 0c	 add	 esp, 12			; 0000000cH

; 776  : 		InvMixColumn(context,state);

  002ae	8d 45 cc	 lea	 eax, DWORD PTR _state$[ebp]
  002b1	50		 push	 eax
  002b2	8b 4d 08	 mov	 ecx, DWORD PTR _context$[ebp]
  002b5	51		 push	 ecx
  002b6	e8 00 00 00 00	 call	 _InvMixColumn
  002bb	83 c4 08	 add	 esp, 8

; 777  : 		InvShiftRow(context,state);

  002be	8d 45 cc	 lea	 eax, DWORD PTR _state$[ebp]
  002c1	50		 push	 eax
  002c2	8b 4d 08	 mov	 ecx, DWORD PTR _context$[ebp]
  002c5	51		 push	 ecx
  002c6	e8 00 00 00 00	 call	 _InvShiftRow
  002cb	83 c4 08	 add	 esp, 8

; 778  : 		InvSubByte(context,state);

  002ce	8d 45 cc	 lea	 eax, DWORD PTR _state$[ebp]
  002d1	50		 push	 eax
  002d2	8b 4d 08	 mov	 ecx, DWORD PTR _context$[ebp]
  002d5	51		 push	 ecx
  002d6	e8 00 00 00 00	 call	 _InvSubByte
  002db	83 c4 08	 add	 esp, 8

; 779  : 	}

  002de	eb ab		 jmp	 SHORT $LN2@Decrypt
$LN1@Decrypt:

; 780  : 	InvAddRoundKey(context,0,state);

  002e0	8d 45 cc	 lea	 eax, DWORD PTR _state$[ebp]
  002e3	50		 push	 eax
  002e4	6a 00		 push	 0
  002e6	8b 4d 08	 mov	 ecx, DWORD PTR _context$[ebp]
  002e9	51		 push	 ecx
  002ea	e8 00 00 00 00	 call	 _InvAddRoundKey
  002ef	83 c4 0c	 add	 esp, 12			; 0000000cH

; 781  : 	StateToChars((unsigned char*)input,state,context->nb);

  002f2	8b 45 08	 mov	 eax, DWORD PTR _context$[ebp]
  002f5	8b 88 08 02 00
	00		 mov	 ecx, DWORD PTR [eax+520]
  002fb	51		 push	 ecx
  002fc	8d 55 cc	 lea	 edx, DWORD PTR _state$[ebp]
  002ff	52		 push	 edx
  00300	8b 45 0c	 mov	 eax, DWORD PTR _input$[ebp]
  00303	50		 push	 eax
  00304	e8 00 00 00 00	 call	 _StateToChars
  00309	83 c4 0c	 add	 esp, 12			; 0000000cH

; 782  : }

  0030c	52		 push	 edx
  0030d	8b cd		 mov	 ecx, ebp
  0030f	50		 push	 eax
  00310	8d 15 00 00 00
	00		 lea	 edx, DWORD PTR $LN10@Decrypt
  00316	e8 00 00 00 00	 call	 @_RTC_CheckStackVars@8
  0031b	58		 pop	 eax
  0031c	5a		 pop	 edx
  0031d	5f		 pop	 edi
  0031e	5e		 pop	 esi
  0031f	5b		 pop	 ebx
  00320	8b 4d fc	 mov	 ecx, DWORD PTR __$ArrayPad$[ebp]
  00323	33 cd		 xor	 ecx, ebp
  00325	e8 00 00 00 00	 call	 @__security_check_cookie@4
  0032a	81 c4 10 01 00
	00		 add	 esp, 272		; 00000110H
  00330	3b ec		 cmp	 ebp, esp
  00332	e8 00 00 00 00	 call	 __RTC_CheckEsp
  00337	8b e5		 mov	 esp, ebp
  00339	5d		 pop	 ebp
  0033a	c3		 ret	 0
  0033b	90		 npad	 1
$LN10@Decrypt:
  0033c	01 00 00 00	 DD	 1
  00340	00 00 00 00	 DD	 $LN9@Decrypt
$LN9@Decrypt:
  00344	cc ff ff ff	 DD	 -52			; ffffffccH
  00348	20 00 00 00	 DD	 32			; 00000020H
  0034c	00 00 00 00	 DD	 $LN8@Decrypt
$LN8@Decrypt:
  00350	73		 DB	 115			; 00000073H
  00351	74		 DB	 116			; 00000074H
  00352	61		 DB	 97			; 00000061H
  00353	74		 DB	 116			; 00000074H
  00354	65		 DB	 101			; 00000065H
  00355	00		 DB	 0
_Decrypt ENDP
; Function compile flags: /Odtp /RTCsu /ZI
_TEXT	ENDS
;	COMDAT _InvAddRoundKey
_TEXT	SEGMENT
_i$ = -8						; size = 4
_context$ = 8						; size = 4
_round$ = 12						; size = 4
_state$ = 16						; size = 4
_InvAddRoundKey PROC					; COMDAT

; 371  : {

  00000	55		 push	 ebp
  00001	8b ec		 mov	 ebp, esp
  00003	81 ec cc 00 00
	00		 sub	 esp, 204		; 000000ccH
  00009	53		 push	 ebx
  0000a	56		 push	 esi
  0000b	57		 push	 edi
  0000c	8d bd 34 ff ff
	ff		 lea	 edi, DWORD PTR [ebp-204]
  00012	b9 33 00 00 00	 mov	 ecx, 51			; 00000033H
  00017	b8 cc cc cc cc	 mov	 eax, -858993460		; ccccccccH
  0001c	f3 ab		 rep stosd

; 372  : 	unsigned int i;
; 373  : 	//只是与roundkey做异或运算
; 374  : 	for (i=0; i<context->nb; i++)

  0001e	c7 45 f8 00 00
	00 00		 mov	 DWORD PTR _i$[ebp], 0
  00025	eb 09		 jmp	 SHORT $LN3@InvAddRoun
$LN2@InvAddRoun:
  00027	8b 45 f8	 mov	 eax, DWORD PTR _i$[ebp]
  0002a	83 c0 01	 add	 eax, 1
  0002d	89 45 f8	 mov	 DWORD PTR _i$[ebp], eax
$LN3@InvAddRoun:
  00030	8b 45 08	 mov	 eax, DWORD PTR _context$[ebp]
  00033	8b 4d f8	 mov	 ecx, DWORD PTR _i$[ebp]
  00036	3b 88 08 02 00
	00		 cmp	 ecx, DWORD PTR [eax+520]
  0003c	73 2b		 jae	 SHORT $LN4@InvAddRoun

; 375  : 	{
; 376  : 		state[i] = context->roundKey[round * context->nb + i] ^ state[i];

  0003e	8b 45 08	 mov	 eax, DWORD PTR _context$[ebp]
  00041	8b 4d 0c	 mov	 ecx, DWORD PTR _round$[ebp]
  00044	0f af 88 08 02
	00 00		 imul	 ecx, DWORD PTR [eax+520]
  0004b	03 4d f8	 add	 ecx, DWORD PTR _i$[ebp]
  0004e	8b 55 08	 mov	 edx, DWORD PTR _context$[ebp]
  00051	8b 45 f8	 mov	 eax, DWORD PTR _i$[ebp]
  00054	8b 75 10	 mov	 esi, DWORD PTR _state$[ebp]
  00057	8b 4c 8a 28	 mov	 ecx, DWORD PTR [edx+ecx*4+40]
  0005b	33 0c 86	 xor	 ecx, DWORD PTR [esi+eax*4]
  0005e	8b 55 f8	 mov	 edx, DWORD PTR _i$[ebp]
  00061	8b 45 10	 mov	 eax, DWORD PTR _state$[ebp]
  00064	89 0c 90	 mov	 DWORD PTR [eax+edx*4], ecx

; 377  : 	}

  00067	eb be		 jmp	 SHORT $LN2@InvAddRoun
$LN4@InvAddRoun:

; 378  : }

  00069	5f		 pop	 edi
  0006a	5e		 pop	 esi
  0006b	5b		 pop	 ebx
  0006c	8b e5		 mov	 esp, ebp
  0006e	5d		 pop	 ebp
  0006f	c3		 ret	 0
_InvAddRoundKey ENDP
; Function compile flags: /Odtp /RTCsu /ZI
_TEXT	ENDS
;	COMDAT _InvSubByte
_TEXT	SEGMENT
_i$ = -8						; size = 4
_context$ = 8						; size = 4
_state$ = 12						; size = 4
_InvSubByte PROC					; COMDAT

; 409  : {

  00000	55		 push	 ebp
  00001	8b ec		 mov	 ebp, esp
  00003	81 ec cc 00 00
	00		 sub	 esp, 204		; 000000ccH
  00009	53		 push	 ebx
  0000a	56		 push	 esi
  0000b	57		 push	 edi
  0000c	8d bd 34 ff ff
	ff		 lea	 edi, DWORD PTR [ebp-204]
  00012	b9 33 00 00 00	 mov	 ecx, 51			; 00000033H
  00017	b8 cc cc cc cc	 mov	 eax, -858993460		; ccccccccH
  0001c	f3 ab		 rep stosd

; 410  : 	unsigned int i;
; 411  : 	for (i=0; i<context->nb; i++)

  0001e	c7 45 f8 00 00
	00 00		 mov	 DWORD PTR _i$[ebp], 0
  00025	eb 09		 jmp	 SHORT $LN3@InvSubByte
$LN2@InvSubByte:
  00027	8b 45 f8	 mov	 eax, DWORD PTR _i$[ebp]
  0002a	83 c0 01	 add	 eax, 1
  0002d	89 45 f8	 mov	 DWORD PTR _i$[ebp], eax
$LN3@InvSubByte:
  00030	8b 45 08	 mov	 eax, DWORD PTR _context$[ebp]
  00033	8b 4d f8	 mov	 ecx, DWORD PTR _i$[ebp]
  00036	3b 88 08 02 00
	00		 cmp	 ecx, DWORD PTR [eax+520]
  0003c	73 7e		 jae	 SHORT $LN4@InvSubByte

; 412  : 	{
; 413  : 		state[i] = INVSUBBYTE(state[i]);

  0003e	8b 45 f8	 mov	 eax, DWORD PTR _i$[ebp]
  00041	8b 4d 0c	 mov	 ecx, DWORD PTR _state$[ebp]
  00044	8b 14 81	 mov	 edx, DWORD PTR [ecx+eax*4]
  00047	c1 ea 18	 shr	 edx, 24			; 00000018H
  0004a	81 e2 ff 00 00
	00		 and	 edx, 255		; 000000ffH
  00050	0f b6 82 00 00
	00 00		 movzx	 eax, BYTE PTR _rbox[edx]
  00057	c1 e0 18	 shl	 eax, 24			; 00000018H
  0005a	8b 4d f8	 mov	 ecx, DWORD PTR _i$[ebp]
  0005d	8b 55 0c	 mov	 edx, DWORD PTR _state$[ebp]
  00060	8b 0c 8a	 mov	 ecx, DWORD PTR [edx+ecx*4]
  00063	c1 e9 10	 shr	 ecx, 16			; 00000010H
  00066	81 e1 ff 00 00
	00		 and	 ecx, 255		; 000000ffH
  0006c	0f b6 91 00 00
	00 00		 movzx	 edx, BYTE PTR _rbox[ecx]
  00073	c1 e2 10	 shl	 edx, 16			; 00000010H
  00076	0b c2		 or	 eax, edx
  00078	8b 4d f8	 mov	 ecx, DWORD PTR _i$[ebp]
  0007b	8b 55 0c	 mov	 edx, DWORD PTR _state$[ebp]
  0007e	8b 0c 8a	 mov	 ecx, DWORD PTR [edx+ecx*4]
  00081	c1 e9 08	 shr	 ecx, 8
  00084	81 e1 ff 00 00
	00		 and	 ecx, 255		; 000000ffH
  0008a	0f b6 91 00 00
	00 00		 movzx	 edx, BYTE PTR _rbox[ecx]
  00091	c1 e2 08	 shl	 edx, 8
  00094	0b c2		 or	 eax, edx
  00096	8b 4d f8	 mov	 ecx, DWORD PTR _i$[ebp]
  00099	8b 55 0c	 mov	 edx, DWORD PTR _state$[ebp]
  0009c	8b 0c 8a	 mov	 ecx, DWORD PTR [edx+ecx*4]
  0009f	81 e1 ff 00 00
	00		 and	 ecx, 255		; 000000ffH
  000a5	0f b6 91 00 00
	00 00		 movzx	 edx, BYTE PTR _rbox[ecx]
  000ac	0b c2		 or	 eax, edx
  000ae	8b 4d f8	 mov	 ecx, DWORD PTR _i$[ebp]
  000b1	8b 55 0c	 mov	 edx, DWORD PTR _state$[ebp]
  000b4	89 04 8a	 mov	 DWORD PTR [edx+ecx*4], eax

; 414  : 	}

  000b7	e9 6b ff ff ff	 jmp	 $LN2@InvSubByte
$LN4@InvSubByte:

; 415  : }

  000bc	5f		 pop	 edi
  000bd	5e		 pop	 esi
  000be	5b		 pop	 ebx
  000bf	8b e5		 mov	 esp, ebp
  000c1	5d		 pop	 ebp
  000c2	c3		 ret	 0
_InvSubByte ENDP
; Function compile flags: /Odtp /RTCsu /ZI
_TEXT	ENDS
;	COMDAT _InvShiftRow
_TEXT	SEGMENT
_stateCount$ = -20					; size = 4
_stateStr$ = -8						; size = 4
_context$ = 8						; size = 4
_state$ = 12						; size = 4
_InvShiftRow PROC					; COMDAT

; 520  : {

  00000	55		 push	 ebp
  00001	8b ec		 mov	 ebp, esp
  00003	81 ec d8 00 00
	00		 sub	 esp, 216		; 000000d8H
  00009	53		 push	 ebx
  0000a	56		 push	 esi
  0000b	57		 push	 edi
  0000c	8d bd 28 ff ff
	ff		 lea	 edi, DWORD PTR [ebp-216]
  00012	b9 36 00 00 00	 mov	 ecx, 54			; 00000036H
  00017	b8 cc cc cc cc	 mov	 eax, -858993460		; ccccccccH
  0001c	f3 ab		 rep stosd

; 521  : 	unsigned char* stateStr = (unsigned char*)state;

  0001e	8b 45 0c	 mov	 eax, DWORD PTR _state$[ebp]
  00021	89 45 f8	 mov	 DWORD PTR _stateStr$[ebp], eax

; 522  : 	unsigned int stateCount = context->plainSize;

  00024	8b 45 08	 mov	 eax, DWORD PTR _context$[ebp]
  00027	8b 48 24	 mov	 ecx, DWORD PTR [eax+36]
  0002a	89 4d ec	 mov	 DWORD PTR _stateCount$[ebp], ecx

; 523  : 	InvShiftRowStr(stateStr,stateCount);

  0002d	8b 45 ec	 mov	 eax, DWORD PTR _stateCount$[ebp]
  00030	50		 push	 eax
  00031	8b 4d f8	 mov	 ecx, DWORD PTR _stateStr$[ebp]
  00034	51		 push	 ecx
  00035	e8 00 00 00 00	 call	 _InvShiftRowStr
  0003a	83 c4 08	 add	 esp, 8

; 524  : }

  0003d	5f		 pop	 edi
  0003e	5e		 pop	 esi
  0003f	5b		 pop	 ebx
  00040	81 c4 d8 00 00
	00		 add	 esp, 216		; 000000d8H
  00046	3b ec		 cmp	 ebp, esp
  00048	e8 00 00 00 00	 call	 __RTC_CheckEsp
  0004d	8b e5		 mov	 esp, ebp
  0004f	5d		 pop	 ebp
  00050	c3		 ret	 0
_InvShiftRow ENDP
_TEXT	ENDS
PUBLIC	__$ArrayPad$
; Function compile flags: /Odtp /RTCsu /ZI
;	COMDAT _InvShiftRowStr
_TEXT	SEGMENT
_columnCount$ = -64					; size = 4
_lineCount$ = -52					; size = 4
_tmp$ = -40						; size = 8
_j$ = -24						; size = 4
_i$ = -12						; size = 4
__$ArrayPad$ = -4					; size = 4
_stateStr$ = 8						; size = 4
_count$ = 12						; size = 4
_InvShiftRowStr PROC					; COMDAT

; 476  : {

  00000	55		 push	 ebp
  00001	8b ec		 mov	 ebp, esp
  00003	81 ec 04 01 00
	00		 sub	 esp, 260		; 00000104H
  00009	53		 push	 ebx
  0000a	56		 push	 esi
  0000b	57		 push	 edi
  0000c	8d bd fc fe ff
	ff		 lea	 edi, DWORD PTR [ebp-260]
  00012	b9 41 00 00 00	 mov	 ecx, 65			; 00000041H
  00017	b8 cc cc cc cc	 mov	 eax, -858993460		; ccccccccH
  0001c	f3 ab		 rep stosd
  0001e	a1 00 00 00 00	 mov	 eax, DWORD PTR ___security_cookie
  00023	33 c5		 xor	 eax, ebp
  00025	89 45 fc	 mov	 DWORD PTR __$ArrayPad$[ebp], eax

; 477  : 	int i,j;
; 478  : 	unsigned char tmp[8] = {0};

  00028	c6 45 d8 00	 mov	 BYTE PTR _tmp$[ebp], 0
  0002c	33 c0		 xor	 eax, eax
  0002e	89 45 d9	 mov	 DWORD PTR _tmp$[ebp+1], eax
  00031	66 89 45 dd	 mov	 WORD PTR _tmp$[ebp+5], ax
  00035	88 45 df	 mov	 BYTE PTR _tmp$[ebp+7], al

; 479  : 	int lineCount = 4;

  00038	c7 45 cc 04 00
	00 00		 mov	 DWORD PTR _lineCount$[ebp], 4

; 480  : 	//列数
; 481  : 	int columnCount = count / lineCount;

  0003f	8b 45 0c	 mov	 eax, DWORD PTR _count$[ebp]
  00042	33 d2		 xor	 edx, edx
  00044	f7 75 cc	 div	 DWORD PTR _lineCount$[ebp]
  00047	89 45 c0	 mov	 DWORD PTR _columnCount$[ebp], eax

; 482  : 	//从1行开始移位
; 483  : 	for (i=1; i<lineCount; i++)

  0004a	c7 45 f4 01 00
	00 00		 mov	 DWORD PTR _i$[ebp], 1
  00051	eb 09		 jmp	 SHORT $LN6@InvShiftRo
$LN5@InvShiftRo:
  00053	8b 45 f4	 mov	 eax, DWORD PTR _i$[ebp]
  00056	83 c0 01	 add	 eax, 1
  00059	89 45 f4	 mov	 DWORD PTR _i$[ebp], eax
$LN6@InvShiftRo:
  0005c	8b 45 f4	 mov	 eax, DWORD PTR _i$[ebp]
  0005f	3b 45 cc	 cmp	 eax, DWORD PTR _lineCount$[ebp]
  00062	7d 5a		 jge	 SHORT $LN7@InvShiftRo

; 484  : 	{
; 485  : 		CopyString(tmp,(char*)(stateStr + i*columnCount),columnCount);

  00064	8b 45 c0	 mov	 eax, DWORD PTR _columnCount$[ebp]
  00067	50		 push	 eax
  00068	8b 4d f4	 mov	 ecx, DWORD PTR _i$[ebp]
  0006b	0f af 4d c0	 imul	 ecx, DWORD PTR _columnCount$[ebp]
  0006f	03 4d 08	 add	 ecx, DWORD PTR _stateStr$[ebp]
  00072	51		 push	 ecx
  00073	8d 55 d8	 lea	 edx, DWORD PTR _tmp$[ebp]
  00076	52		 push	 edx
  00077	e8 00 00 00 00	 call	 _CopyString
  0007c	83 c4 0c	 add	 esp, 12			; 0000000cH

; 486  : 		for (j=(columnCount-1); j>=0; j--)

  0007f	8b 45 c0	 mov	 eax, DWORD PTR _columnCount$[ebp]
  00082	83 e8 01	 sub	 eax, 1
  00085	89 45 e8	 mov	 DWORD PTR _j$[ebp], eax
  00088	eb 09		 jmp	 SHORT $LN3@InvShiftRo
$LN2@InvShiftRo:
  0008a	8b 45 e8	 mov	 eax, DWORD PTR _j$[ebp]
  0008d	83 e8 01	 sub	 eax, 1
  00090	89 45 e8	 mov	 DWORD PTR _j$[ebp], eax
$LN3@InvShiftRo:
  00093	83 7d e8 00	 cmp	 DWORD PTR _j$[ebp], 0
  00097	7c 23		 jl	 SHORT $LN1@InvShiftRo

; 487  : 		{
; 488  : 			//k = j - i;
; 489  : 			//k = (k < 0) ? columnCount+k : k;
; 490  : 			*(stateStr + i*columnCount + j) = tmp[(j-i+columnCount)%columnCount];

  00099	8b 45 e8	 mov	 eax, DWORD PTR _j$[ebp]
  0009c	2b 45 f4	 sub	 eax, DWORD PTR _i$[ebp]
  0009f	03 45 c0	 add	 eax, DWORD PTR _columnCount$[ebp]
  000a2	99		 cdq
  000a3	f7 7d c0	 idiv	 DWORD PTR _columnCount$[ebp]
  000a6	8b 45 f4	 mov	 eax, DWORD PTR _i$[ebp]
  000a9	0f af 45 c0	 imul	 eax, DWORD PTR _columnCount$[ebp]
  000ad	03 45 08	 add	 eax, DWORD PTR _stateStr$[ebp]
  000b0	8b 4d e8	 mov	 ecx, DWORD PTR _j$[ebp]
  000b3	8a 54 15 d8	 mov	 dl, BYTE PTR _tmp$[ebp+edx]
  000b7	88 14 08	 mov	 BYTE PTR [eax+ecx], dl

; 491  : 		}

  000ba	eb ce		 jmp	 SHORT $LN2@InvShiftRo
$LN1@InvShiftRo:

; 492  : 		/*
; 493  : 		t[0] = *(stateStr + i*columnCount + columnCount - 1);
; 494  : 		t[1] = *(stateStr + i*columnCount + columnCount - 2);
; 495  : 		t[2] = *(stateStr + i*columnCount + columnCount - 3);
; 496  : 		for (j=(columnCount-1);j>=i; j--)
; 497  : 		{
; 498  : 			//第几行就移几位
; 499  : 			*(stateStr + i*columnCount + j) = *(stateStr + i*columnCount + j - i);
; 500  : 		}
; 501  : 		//用3个if语句代替for，提高性能
; 502  : 		if (i >= 1)
; 503  : 		{
; 504  : 			*(stateStr + i*columnCount + j) = t[0];
; 505  : 		}
; 506  : 		if (i >= 2)
; 507  : 		{
; 508  : 			*(stateStr + i*columnCount + j + 1) = t[1];
; 509  : 		}
; 510  : 		if (i >= 3)
; 511  : 		{
; 512  : 			*(stateStr + i*columnCount + j + 2) = t[2];
; 513  : 		}
; 514  : 		*/
; 515  : 	}

  000bc	eb 95		 jmp	 SHORT $LN5@InvShiftRo
$LN7@InvShiftRo:

; 516  : 	return;
; 517  : }

  000be	52		 push	 edx
  000bf	8b cd		 mov	 ecx, ebp
  000c1	50		 push	 eax
  000c2	8d 15 00 00 00
	00		 lea	 edx, DWORD PTR $LN11@InvShiftRo
  000c8	e8 00 00 00 00	 call	 @_RTC_CheckStackVars@8
  000cd	58		 pop	 eax
  000ce	5a		 pop	 edx
  000cf	5f		 pop	 edi
  000d0	5e		 pop	 esi
  000d1	5b		 pop	 ebx
  000d2	8b 4d fc	 mov	 ecx, DWORD PTR __$ArrayPad$[ebp]
  000d5	33 cd		 xor	 ecx, ebp
  000d7	e8 00 00 00 00	 call	 @__security_check_cookie@4
  000dc	81 c4 04 01 00
	00		 add	 esp, 260		; 00000104H
  000e2	3b ec		 cmp	 ebp, esp
  000e4	e8 00 00 00 00	 call	 __RTC_CheckEsp
  000e9	8b e5		 mov	 esp, ebp
  000eb	5d		 pop	 ebp
  000ec	c3		 ret	 0
  000ed	8d 49 00	 npad	 3
$LN11@InvShiftRo:
  000f0	01 00 00 00	 DD	 1
  000f4	00 00 00 00	 DD	 $LN10@InvShiftRo
$LN10@InvShiftRo:
  000f8	d8 ff ff ff	 DD	 -40			; ffffffd8H
  000fc	08 00 00 00	 DD	 8
  00100	00 00 00 00	 DD	 $LN9@InvShiftRo
$LN9@InvShiftRo:
  00104	74		 DB	 116			; 00000074H
  00105	6d		 DB	 109			; 0000006dH
  00106	70		 DB	 112			; 00000070H
  00107	00		 DB	 0
_InvShiftRowStr ENDP
; Function compile flags: /Odtp /RTCsu /ZI
_TEXT	ENDS
;	COMDAT _InvMixColumn
_TEXT	SEGMENT
_r$ = -20						; size = 4
_i$ = -8						; size = 4
_context$ = 8						; size = 4
_state$ = 12						; size = 4
_InvMixColumn PROC					; COMDAT

; 637  : {

  00000	55		 push	 ebp
  00001	8b ec		 mov	 ebp, esp
  00003	81 ec d8 00 00
	00		 sub	 esp, 216		; 000000d8H
  00009	53		 push	 ebx
  0000a	56		 push	 esi
  0000b	57		 push	 edi
  0000c	8d bd 28 ff ff
	ff		 lea	 edi, DWORD PTR [ebp-216]
  00012	b9 36 00 00 00	 mov	 ecx, 54			; 00000036H
  00017	b8 cc cc cc cc	 mov	 eax, -858993460		; ccccccccH
  0001c	f3 ab		 rep stosd

; 638  : 	unsigned int i;
; 639  : 	unsigned char* r;
; 640  : 	for (i = 0; i<context->nb; i++)

  0001e	c7 45 f8 00 00
	00 00		 mov	 DWORD PTR _i$[ebp], 0
  00025	eb 09		 jmp	 SHORT $LN3@InvMixColu
$LN2@InvMixColu:
  00027	8b 45 f8	 mov	 eax, DWORD PTR _i$[ebp]
  0002a	83 c0 01	 add	 eax, 1
  0002d	89 45 f8	 mov	 DWORD PTR _i$[ebp], eax
$LN3@InvMixColu:
  00030	8b 45 08	 mov	 eax, DWORD PTR _context$[ebp]
  00033	8b 4d f8	 mov	 ecx, DWORD PTR _i$[ebp]
  00036	3b 88 08 02 00
	00		 cmp	 ecx, DWORD PTR [eax+520]
  0003c	73 1e		 jae	 SHORT $LN4@InvMixColu

; 641  : 	{
; 642  : 		r = (unsigned char*)&state[i];

  0003e	8b 45 f8	 mov	 eax, DWORD PTR _i$[ebp]
  00041	8b 4d 0c	 mov	 ecx, DWORD PTR _state$[ebp]
  00044	8d 14 81	 lea	 edx, DWORD PTR [ecx+eax*4]
  00047	89 55 ec	 mov	 DWORD PTR _r$[ebp], edx

; 643  : 		InvMixColumnStr(context,r);

  0004a	8b 45 ec	 mov	 eax, DWORD PTR _r$[ebp]
  0004d	50		 push	 eax
  0004e	8b 4d 08	 mov	 ecx, DWORD PTR _context$[ebp]
  00051	51		 push	 ecx
  00052	e8 00 00 00 00	 call	 _InvMixColumnStr
  00057	83 c4 08	 add	 esp, 8

; 644  : 	}

  0005a	eb cb		 jmp	 SHORT $LN2@InvMixColu
$LN4@InvMixColu:

; 645  : }

  0005c	5f		 pop	 edi
  0005d	5e		 pop	 esi
  0005e	5b		 pop	 ebx
  0005f	81 c4 d8 00 00
	00		 add	 esp, 216		; 000000d8H
  00065	3b ec		 cmp	 ebp, esp
  00067	e8 00 00 00 00	 call	 __RTC_CheckEsp
  0006c	8b e5		 mov	 esp, ebp
  0006e	5d		 pop	 ebp
  0006f	c3		 ret	 0
_InvMixColumn ENDP
; Function compile flags: /Odtp /RTCsu /ZI
_TEXT	ENDS
;	COMDAT _InvMixColumnStr
_TEXT	SEGMENT
tv9356 = -324						; size = 4
tv9326 = -324						; size = 4
tv9296 = -324						; size = 4
tv9266 = -324						; size = 4
tv9354 = -320						; size = 4
tv9324 = -320						; size = 4
tv9294 = -320						; size = 4
tv9264 = -320						; size = 4
tv9352 = -316						; size = 4
tv9322 = -316						; size = 4
tv9292 = -316						; size = 4
tv9262 = -316						; size = 4
tv9350 = -312						; size = 4
tv9320 = -312						; size = 4
tv9290 = -312						; size = 4
tv9260 = -312						; size = 4
tv9348 = -308						; size = 4
tv9318 = -308						; size = 4
tv9288 = -308						; size = 4
tv9258 = -308						; size = 4
tv9346 = -304						; size = 4
tv9316 = -304						; size = 4
tv9286 = -304						; size = 4
tv9256 = -304						; size = 4
tv9344 = -300						; size = 4
tv9314 = -300						; size = 4
tv9284 = -300						; size = 4
tv9254 = -300						; size = 4
tv9342 = -296						; size = 4
tv9312 = -296						; size = 4
tv9282 = -296						; size = 4
tv9252 = -296						; size = 4
tv9340 = -292						; size = 4
tv9310 = -292						; size = 4
tv9280 = -292						; size = 4
tv9250 = -292						; size = 4
tv9338 = -288						; size = 4
tv9308 = -288						; size = 4
tv9278 = -288						; size = 4
tv9248 = -288						; size = 4
tv9336 = -284						; size = 4
tv9306 = -284						; size = 4
tv9276 = -284						; size = 4
tv9246 = -284						; size = 4
tv9334 = -280						; size = 4
tv9304 = -280						; size = 4
tv9274 = -280						; size = 4
tv9244 = -280						; size = 4
tv9332 = -276						; size = 4
tv9302 = -276						; size = 4
tv9272 = -276						; size = 4
tv9242 = -276						; size = 4
tv9330 = -272						; size = 4
tv9300 = -272						; size = 4
tv9270 = -272						; size = 4
tv9240 = -272						; size = 4
tv9328 = -268						; size = 4
tv9298 = -268						; size = 4
tv9268 = -268						; size = 4
tv9238 = -268						; size = 4
_c$ = -65						; size = 1
_te$ = -56						; size = 4
_td$ = -44						; size = 4
_tb$ = -32						; size = 4
_t9$ = -20						; size = 4
_a$ = -8						; size = 4
_context$ = 8						; size = 4
_r$ = 12						; size = 4
_InvMixColumnStr PROC					; COMDAT

; 580  : {

  00000	55		 push	 ebp
  00001	8b ec		 mov	 ebp, esp
  00003	81 ec 44 01 00
	00		 sub	 esp, 324		; 00000144H
  00009	53		 push	 ebx
  0000a	56		 push	 esi
  0000b	57		 push	 edi
  0000c	8d bd bc fe ff
	ff		 lea	 edi, DWORD PTR [ebp-324]
  00012	b9 51 00 00 00	 mov	 ecx, 81			; 00000051H
  00017	b8 cc cc cc cc	 mov	 eax, -858993460		; ccccccccH
  0001c	f3 ab		 rep stosd

; 581  : 	//r的拷贝
; 582  : 	unsigned char a[4];
; 583  : 	//r * 0x2的伽罗瓦域计算
; 584  : 	unsigned char t9[4];//*0x9
; 585  : 	unsigned char tb[4];//*0xb
; 586  : 	unsigned char td[4];//*0xd
; 587  : 	unsigned char te[4];//*0xe
; 588  : 	unsigned char c;
; 589  : 	//unsigned char h;
; 590  : 	
; 591  : 	//a[n] ^ b[n] is element n multiplied by 3 in Rijndael's Galois field */ 
; 592  : 	//0x09、0x0b、0x0d 和 0x0e
; 593  : 	for(c=0; c<4; c++) 

  0001e	c6 45 bf 00	 mov	 BYTE PTR _c$[ebp], 0
  00022	eb 08		 jmp	 SHORT $LN3@InvMixColu@2
$LN2@InvMixColu@2:
  00024	8a 45 bf	 mov	 al, BYTE PTR _c$[ebp]
  00027	04 01		 add	 al, 1
  00029	88 45 bf	 mov	 BYTE PTR _c$[ebp], al
$LN3@InvMixColu@2:
  0002c	0f b6 45 bf	 movzx	 eax, BYTE PTR _c$[ebp]
  00030	83 f8 04	 cmp	 eax, 4
  00033	0f 8d 7e 61 00
	00		 jge	 $LN1@InvMixColu@2

; 594  : 	{
; 595  : 		a[c] = r[c];

  00039	0f b6 45 bf	 movzx	 eax, BYTE PTR _c$[ebp]
  0003d	0f b6 4d bf	 movzx	 ecx, BYTE PTR _c$[ebp]
  00041	8b 55 0c	 mov	 edx, DWORD PTR _r$[ebp]
  00044	8a 04 02	 mov	 al, BYTE PTR [edx+eax]
  00047	88 44 0d f8	 mov	 BYTE PTR _a$[ebp+ecx], al

; 596  : 		//这行代码代替下面所有的代码
; 597  : 		//依据的规则是任何数与0异或其值不变
; 598  : 		t9[c] = MULTIPLY(r[c],0x9);

  0004b	0f b6 45 bf	 movzx	 eax, BYTE PTR _c$[ebp]
  0004f	8b 4d 0c	 mov	 ecx, DWORD PTR _r$[ebp]
  00052	0f b6 14 01	 movzx	 edx, BYTE PTR [ecx+eax]
  00056	0f b6 45 bf	 movzx	 eax, BYTE PTR _c$[ebp]
  0005a	8b 4d 0c	 mov	 ecx, DWORD PTR _r$[ebp]
  0005d	0f b6 04 01	 movzx	 eax, BYTE PTR [ecx+eax]
  00061	d1 e0		 shl	 eax, 1
  00063	0f b6 4d bf	 movzx	 ecx, BYTE PTR _c$[ebp]
  00067	8b 75 0c	 mov	 esi, DWORD PTR _r$[ebp]
  0006a	0f b6 0c 0e	 movzx	 ecx, BYTE PTR [esi+ecx]
  0006e	c1 f9 07	 sar	 ecx, 7
  00071	83 e1 01	 and	 ecx, 1
  00074	6b c9 1b	 imul	 ecx, 27			; 0000001bH
  00077	33 c1		 xor	 eax, ecx
  00079	6b c0 00	 imul	 eax, 0
  0007c	33 d0		 xor	 edx, eax
  0007e	0f b6 45 bf	 movzx	 eax, BYTE PTR _c$[ebp]
  00082	8b 4d 0c	 mov	 ecx, DWORD PTR _r$[ebp]
  00085	0f b6 04 01	 movzx	 eax, BYTE PTR [ecx+eax]
  00089	d1 e0		 shl	 eax, 1
  0008b	0f b6 4d bf	 movzx	 ecx, BYTE PTR _c$[ebp]
  0008f	8b 75 0c	 mov	 esi, DWORD PTR _r$[ebp]
  00092	0f b6 0c 0e	 movzx	 ecx, BYTE PTR [esi+ecx]
  00096	c1 f9 07	 sar	 ecx, 7
  00099	83 e1 01	 and	 ecx, 1
  0009c	6b c9 1b	 imul	 ecx, 27			; 0000001bH
  0009f	33 c1		 xor	 eax, ecx
  000a1	d1 e0		 shl	 eax, 1
  000a3	0f b6 4d bf	 movzx	 ecx, BYTE PTR _c$[ebp]
  000a7	8b 75 0c	 mov	 esi, DWORD PTR _r$[ebp]
  000aa	0f b6 0c 0e	 movzx	 ecx, BYTE PTR [esi+ecx]
  000ae	d1 e1		 shl	 ecx, 1
  000b0	0f b6 75 bf	 movzx	 esi, BYTE PTR _c$[ebp]
  000b4	8b 7d 0c	 mov	 edi, DWORD PTR _r$[ebp]
  000b7	0f b6 34 37	 movzx	 esi, BYTE PTR [edi+esi]
  000bb	c1 fe 07	 sar	 esi, 7
  000be	83 e6 01	 and	 esi, 1
  000c1	6b f6 1b	 imul	 esi, 27			; 0000001bH
  000c4	33 ce		 xor	 ecx, esi
  000c6	c1 f9 07	 sar	 ecx, 7
  000c9	83 e1 01	 and	 ecx, 1
  000cc	6b c9 1b	 imul	 ecx, 27			; 0000001bH
  000cf	33 c1		 xor	 eax, ecx
  000d1	6b c0 00	 imul	 eax, 0
  000d4	33 d0		 xor	 edx, eax
  000d6	0f b6 45 bf	 movzx	 eax, BYTE PTR _c$[ebp]
  000da	8b 4d 0c	 mov	 ecx, DWORD PTR _r$[ebp]
  000dd	0f b6 04 01	 movzx	 eax, BYTE PTR [ecx+eax]
  000e1	d1 e0		 shl	 eax, 1
  000e3	0f b6 4d bf	 movzx	 ecx, BYTE PTR _c$[ebp]
  000e7	8b 75 0c	 mov	 esi, DWORD PTR _r$[ebp]
  000ea	0f b6 0c 0e	 movzx	 ecx, BYTE PTR [esi+ecx]
  000ee	c1 f9 07	 sar	 ecx, 7
  000f1	83 e1 01	 and	 ecx, 1
  000f4	6b c9 1b	 imul	 ecx, 27			; 0000001bH
  000f7	33 c1		 xor	 eax, ecx
  000f9	d1 e0		 shl	 eax, 1
  000fb	0f b6 4d bf	 movzx	 ecx, BYTE PTR _c$[ebp]
  000ff	8b 75 0c	 mov	 esi, DWORD PTR _r$[ebp]
  00102	0f b6 0c 0e	 movzx	 ecx, BYTE PTR [esi+ecx]
  00106	d1 e1		 shl	 ecx, 1
  00108	0f b6 75 bf	 movzx	 esi, BYTE PTR _c$[ebp]
  0010c	8b 7d 0c	 mov	 edi, DWORD PTR _r$[ebp]
  0010f	0f b6 34 37	 movzx	 esi, BYTE PTR [edi+esi]
  00113	c1 fe 07	 sar	 esi, 7
  00116	83 e6 01	 and	 esi, 1
  00119	6b f6 1b	 imul	 esi, 27			; 0000001bH
  0011c	33 ce		 xor	 ecx, esi
  0011e	c1 f9 07	 sar	 ecx, 7
  00121	83 e1 01	 and	 ecx, 1
  00124	6b c9 1b	 imul	 ecx, 27			; 0000001bH
  00127	33 c1		 xor	 eax, ecx
  00129	d1 e0		 shl	 eax, 1
  0012b	0f b6 4d bf	 movzx	 ecx, BYTE PTR _c$[ebp]
  0012f	8b 75 0c	 mov	 esi, DWORD PTR _r$[ebp]
  00132	0f b6 0c 0e	 movzx	 ecx, BYTE PTR [esi+ecx]
  00136	d1 e1		 shl	 ecx, 1
  00138	0f b6 75 bf	 movzx	 esi, BYTE PTR _c$[ebp]
  0013c	8b 7d 0c	 mov	 edi, DWORD PTR _r$[ebp]
  0013f	0f b6 34 37	 movzx	 esi, BYTE PTR [edi+esi]
  00143	c1 fe 07	 sar	 esi, 7
  00146	83 e6 01	 and	 esi, 1
  00149	6b f6 1b	 imul	 esi, 27			; 0000001bH
  0014c	33 ce		 xor	 ecx, esi
  0014e	d1 e1		 shl	 ecx, 1
  00150	0f b6 75 bf	 movzx	 esi, BYTE PTR _c$[ebp]
  00154	8b 7d 0c	 mov	 edi, DWORD PTR _r$[ebp]
  00157	0f b6 34 37	 movzx	 esi, BYTE PTR [edi+esi]
  0015b	d1 e6		 shl	 esi, 1
  0015d	0f b6 7d bf	 movzx	 edi, BYTE PTR _c$[ebp]
  00161	8b 5d 0c	 mov	 ebx, DWORD PTR _r$[ebp]
  00164	0f b6 3c 3b	 movzx	 edi, BYTE PTR [ebx+edi]
  00168	c1 ff 07	 sar	 edi, 7
  0016b	83 e7 01	 and	 edi, 1
  0016e	6b ff 1b	 imul	 edi, 27			; 0000001bH
  00171	33 f7		 xor	 esi, edi
  00173	c1 fe 07	 sar	 esi, 7
  00176	83 e6 01	 and	 esi, 1
  00179	6b f6 1b	 imul	 esi, 27			; 0000001bH
  0017c	33 ce		 xor	 ecx, esi
  0017e	c1 f9 07	 sar	 ecx, 7
  00181	83 e1 01	 and	 ecx, 1
  00184	6b c9 1b	 imul	 ecx, 27			; 0000001bH
  00187	33 c1		 xor	 eax, ecx
  00189	33 d0		 xor	 edx, eax
  0018b	0f b6 45 bf	 movzx	 eax, BYTE PTR _c$[ebp]
  0018f	8b 4d 0c	 mov	 ecx, DWORD PTR _r$[ebp]
  00192	0f b6 04 01	 movzx	 eax, BYTE PTR [ecx+eax]
  00196	d1 e0		 shl	 eax, 1
  00198	0f b6 4d bf	 movzx	 ecx, BYTE PTR _c$[ebp]
  0019c	8b 75 0c	 mov	 esi, DWORD PTR _r$[ebp]
  0019f	0f b6 0c 0e	 movzx	 ecx, BYTE PTR [esi+ecx]
  001a3	c1 f9 07	 sar	 ecx, 7
  001a6	83 e1 01	 and	 ecx, 1
  001a9	6b c9 1b	 imul	 ecx, 27			; 0000001bH
  001ac	33 c1		 xor	 eax, ecx
  001ae	d1 e0		 shl	 eax, 1
  001b0	0f b6 4d bf	 movzx	 ecx, BYTE PTR _c$[ebp]
  001b4	8b 75 0c	 mov	 esi, DWORD PTR _r$[ebp]
  001b7	0f b6 0c 0e	 movzx	 ecx, BYTE PTR [esi+ecx]
  001bb	d1 e1		 shl	 ecx, 1
  001bd	0f b6 75 bf	 movzx	 esi, BYTE PTR _c$[ebp]
  001c1	8b 7d 0c	 mov	 edi, DWORD PTR _r$[ebp]
  001c4	0f b6 34 37	 movzx	 esi, BYTE PTR [edi+esi]
  001c8	c1 fe 07	 sar	 esi, 7
  001cb	83 e6 01	 and	 esi, 1
  001ce	6b f6 1b	 imul	 esi, 27			; 0000001bH
  001d1	33 ce		 xor	 ecx, esi
  001d3	c1 f9 07	 sar	 ecx, 7
  001d6	83 e1 01	 and	 ecx, 1
  001d9	6b c9 1b	 imul	 ecx, 27			; 0000001bH
  001dc	33 c1		 xor	 eax, ecx
  001de	d1 e0		 shl	 eax, 1
  001e0	0f b6 4d bf	 movzx	 ecx, BYTE PTR _c$[ebp]
  001e4	8b 75 0c	 mov	 esi, DWORD PTR _r$[ebp]
  001e7	0f b6 0c 0e	 movzx	 ecx, BYTE PTR [esi+ecx]
  001eb	d1 e1		 shl	 ecx, 1
  001ed	0f b6 75 bf	 movzx	 esi, BYTE PTR _c$[ebp]
  001f1	8b 7d 0c	 mov	 edi, DWORD PTR _r$[ebp]
  001f4	0f b6 34 37	 movzx	 esi, BYTE PTR [edi+esi]
  001f8	c1 fe 07	 sar	 esi, 7
  001fb	83 e6 01	 and	 esi, 1
  001fe	6b f6 1b	 imul	 esi, 27			; 0000001bH
  00201	33 ce		 xor	 ecx, esi
  00203	d1 e1		 shl	 ecx, 1
  00205	0f b6 75 bf	 movzx	 esi, BYTE PTR _c$[ebp]
  00209	8b 7d 0c	 mov	 edi, DWORD PTR _r$[ebp]
  0020c	0f b6 34 37	 movzx	 esi, BYTE PTR [edi+esi]
  00210	d1 e6		 shl	 esi, 1
  00212	0f b6 7d bf	 movzx	 edi, BYTE PTR _c$[ebp]
  00216	8b 5d 0c	 mov	 ebx, DWORD PTR _r$[ebp]
  00219	0f b6 3c 3b	 movzx	 edi, BYTE PTR [ebx+edi]
  0021d	c1 ff 07	 sar	 edi, 7
  00220	83 e7 01	 and	 edi, 1
  00223	6b ff 1b	 imul	 edi, 27			; 0000001bH
  00226	33 f7		 xor	 esi, edi
  00228	c1 fe 07	 sar	 esi, 7
  0022b	83 e6 01	 and	 esi, 1
  0022e	6b f6 1b	 imul	 esi, 27			; 0000001bH
  00231	33 ce		 xor	 ecx, esi
  00233	c1 f9 07	 sar	 ecx, 7
  00236	83 e1 01	 and	 ecx, 1
  00239	6b c9 1b	 imul	 ecx, 27			; 0000001bH
  0023c	33 c1		 xor	 eax, ecx
  0023e	d1 e0		 shl	 eax, 1
  00240	0f b6 4d bf	 movzx	 ecx, BYTE PTR _c$[ebp]
  00244	8b 75 0c	 mov	 esi, DWORD PTR _r$[ebp]
  00247	0f b6 0c 0e	 movzx	 ecx, BYTE PTR [esi+ecx]
  0024b	d1 e1		 shl	 ecx, 1
  0024d	0f b6 75 bf	 movzx	 esi, BYTE PTR _c$[ebp]
  00251	8b 7d 0c	 mov	 edi, DWORD PTR _r$[ebp]
  00254	0f b6 34 37	 movzx	 esi, BYTE PTR [edi+esi]
  00258	c1 fe 07	 sar	 esi, 7
  0025b	83 e6 01	 and	 esi, 1
  0025e	6b f6 1b	 imul	 esi, 27			; 0000001bH
  00261	33 ce		 xor	 ecx, esi
  00263	d1 e1		 shl	 ecx, 1
  00265	0f b6 75 bf	 movzx	 esi, BYTE PTR _c$[ebp]
  00269	8b 7d 0c	 mov	 edi, DWORD PTR _r$[ebp]
  0026c	0f b6 34 37	 movzx	 esi, BYTE PTR [edi+esi]
  00270	d1 e6		 shl	 esi, 1
  00272	0f b6 7d bf	 movzx	 edi, BYTE PTR _c$[ebp]
  00276	8b 5d 0c	 mov	 ebx, DWORD PTR _r$[ebp]
  00279	0f b6 3c 3b	 movzx	 edi, BYTE PTR [ebx+edi]
  0027d	c1 ff 07	 sar	 edi, 7
  00280	83 e7 01	 and	 edi, 1
  00283	6b ff 1b	 imul	 edi, 27			; 0000001bH
  00286	33 f7		 xor	 esi, edi
  00288	c1 fe 07	 sar	 esi, 7
  0028b	83 e6 01	 and	 esi, 1
  0028e	6b f6 1b	 imul	 esi, 27			; 0000001bH
  00291	33 ce		 xor	 ecx, esi
  00293	d1 e1		 shl	 ecx, 1
  00295	0f b6 75 bf	 movzx	 esi, BYTE PTR _c$[ebp]
  00299	8b 7d 0c	 mov	 edi, DWORD PTR _r$[ebp]
  0029c	0f b6 34 37	 movzx	 esi, BYTE PTR [edi+esi]
  002a0	d1 e6		 shl	 esi, 1
  002a2	0f b6 7d bf	 movzx	 edi, BYTE PTR _c$[ebp]
  002a6	8b 5d 0c	 mov	 ebx, DWORD PTR _r$[ebp]
  002a9	0f b6 3c 3b	 movzx	 edi, BYTE PTR [ebx+edi]
  002ad	c1 ff 07	 sar	 edi, 7
  002b0	83 e7 01	 and	 edi, 1
  002b3	6b ff 1b	 imul	 edi, 27			; 0000001bH
  002b6	33 f7		 xor	 esi, edi
  002b8	d1 e6		 shl	 esi, 1
  002ba	0f b6 7d bf	 movzx	 edi, BYTE PTR _c$[ebp]
  002be	8b 5d 0c	 mov	 ebx, DWORD PTR _r$[ebp]
  002c1	0f b6 3c 3b	 movzx	 edi, BYTE PTR [ebx+edi]
  002c5	d1 e7		 shl	 edi, 1
  002c7	0f b6 5d bf	 movzx	 ebx, BYTE PTR _c$[ebp]
  002cb	89 95 f4 fe ff
	ff		 mov	 DWORD PTR tv9238[ebp], edx
  002d1	8b 55 0c	 mov	 edx, DWORD PTR _r$[ebp]
  002d4	0f b6 14 1a	 movzx	 edx, BYTE PTR [edx+ebx]
  002d8	c1 fa 07	 sar	 edx, 7
  002db	83 e2 01	 and	 edx, 1
  002de	6b d2 1b	 imul	 edx, 27			; 0000001bH
  002e1	33 fa		 xor	 edi, edx
  002e3	c1 ff 07	 sar	 edi, 7
  002e6	83 e7 01	 and	 edi, 1
  002e9	6b ff 1b	 imul	 edi, 27			; 0000001bH
  002ec	33 f7		 xor	 esi, edi
  002ee	c1 fe 07	 sar	 esi, 7
  002f1	83 e6 01	 and	 esi, 1
  002f4	6b f6 1b	 imul	 esi, 27			; 0000001bH
  002f7	33 ce		 xor	 ecx, esi
  002f9	c1 f9 07	 sar	 ecx, 7
  002fc	83 e1 01	 and	 ecx, 1
  002ff	6b c9 1b	 imul	 ecx, 27			; 0000001bH
  00302	33 c1		 xor	 eax, ecx
  00304	6b c0 00	 imul	 eax, 0
  00307	8b 8d f4 fe ff
	ff		 mov	 ecx, DWORD PTR tv9238[ebp]
  0030d	33 c8		 xor	 ecx, eax
  0030f	0f b6 55 bf	 movzx	 edx, BYTE PTR _c$[ebp]
  00313	8b 45 0c	 mov	 eax, DWORD PTR _r$[ebp]
  00316	0f b6 14 10	 movzx	 edx, BYTE PTR [eax+edx]
  0031a	d1 e2		 shl	 edx, 1
  0031c	0f b6 45 bf	 movzx	 eax, BYTE PTR _c$[ebp]
  00320	8b 75 0c	 mov	 esi, DWORD PTR _r$[ebp]
  00323	0f b6 04 06	 movzx	 eax, BYTE PTR [esi+eax]
  00327	c1 f8 07	 sar	 eax, 7
  0032a	83 e0 01	 and	 eax, 1
  0032d	6b c0 1b	 imul	 eax, 27			; 0000001bH
  00330	33 d0		 xor	 edx, eax
  00332	d1 e2		 shl	 edx, 1
  00334	0f b6 45 bf	 movzx	 eax, BYTE PTR _c$[ebp]
  00338	8b 75 0c	 mov	 esi, DWORD PTR _r$[ebp]
  0033b	0f b6 04 06	 movzx	 eax, BYTE PTR [esi+eax]
  0033f	d1 e0		 shl	 eax, 1
  00341	0f b6 75 bf	 movzx	 esi, BYTE PTR _c$[ebp]
  00345	8b 7d 0c	 mov	 edi, DWORD PTR _r$[ebp]
  00348	0f b6 34 37	 movzx	 esi, BYTE PTR [edi+esi]
  0034c	c1 fe 07	 sar	 esi, 7
  0034f	83 e6 01	 and	 esi, 1
  00352	6b f6 1b	 imul	 esi, 27			; 0000001bH
  00355	33 c6		 xor	 eax, esi
  00357	c1 f8 07	 sar	 eax, 7
  0035a	83 e0 01	 and	 eax, 1
  0035d	6b c0 1b	 imul	 eax, 27			; 0000001bH
  00360	33 d0		 xor	 edx, eax
  00362	d1 e2		 shl	 edx, 1
  00364	0f b6 45 bf	 movzx	 eax, BYTE PTR _c$[ebp]
  00368	8b 75 0c	 mov	 esi, DWORD PTR _r$[ebp]
  0036b	0f b6 04 06	 movzx	 eax, BYTE PTR [esi+eax]
  0036f	d1 e0		 shl	 eax, 1
  00371	0f b6 75 bf	 movzx	 esi, BYTE PTR _c$[ebp]
  00375	8b 7d 0c	 mov	 edi, DWORD PTR _r$[ebp]
  00378	0f b6 34 37	 movzx	 esi, BYTE PTR [edi+esi]
  0037c	c1 fe 07	 sar	 esi, 7
  0037f	83 e6 01	 and	 esi, 1
  00382	6b f6 1b	 imul	 esi, 27			; 0000001bH
  00385	33 c6		 xor	 eax, esi
  00387	d1 e0		 shl	 eax, 1
  00389	0f b6 75 bf	 movzx	 esi, BYTE PTR _c$[ebp]
  0038d	8b 7d 0c	 mov	 edi, DWORD PTR _r$[ebp]
  00390	0f b6 34 37	 movzx	 esi, BYTE PTR [edi+esi]
  00394	d1 e6		 shl	 esi, 1
  00396	0f b6 7d bf	 movzx	 edi, BYTE PTR _c$[ebp]
  0039a	8b 5d 0c	 mov	 ebx, DWORD PTR _r$[ebp]
  0039d	0f b6 3c 3b	 movzx	 edi, BYTE PTR [ebx+edi]
  003a1	c1 ff 07	 sar	 edi, 7
  003a4	83 e7 01	 and	 edi, 1
  003a7	6b ff 1b	 imul	 edi, 27			; 0000001bH
  003aa	33 f7		 xor	 esi, edi
  003ac	c1 fe 07	 sar	 esi, 7
  003af	83 e6 01	 and	 esi, 1
  003b2	6b f6 1b	 imul	 esi, 27			; 0000001bH
  003b5	33 c6		 xor	 eax, esi
  003b7	c1 f8 07	 sar	 eax, 7
  003ba	83 e0 01	 and	 eax, 1
  003bd	6b c0 1b	 imul	 eax, 27			; 0000001bH
  003c0	33 d0		 xor	 edx, eax
  003c2	d1 e2		 shl	 edx, 1
  003c4	0f b6 45 bf	 movzx	 eax, BYTE PTR _c$[ebp]
  003c8	8b 75 0c	 mov	 esi, DWORD PTR _r$[ebp]
  003cb	0f b6 04 06	 movzx	 eax, BYTE PTR [esi+eax]
  003cf	d1 e0		 shl	 eax, 1
  003d1	0f b6 75 bf	 movzx	 esi, BYTE PTR _c$[ebp]
  003d5	8b 7d 0c	 mov	 edi, DWORD PTR _r$[ebp]
  003d8	0f b6 34 37	 movzx	 esi, BYTE PTR [edi+esi]
  003dc	c1 fe 07	 sar	 esi, 7
  003df	83 e6 01	 and	 esi, 1
  003e2	6b f6 1b	 imul	 esi, 27			; 0000001bH
  003e5	33 c6		 xor	 eax, esi
  003e7	d1 e0		 shl	 eax, 1
  003e9	0f b6 75 bf	 movzx	 esi, BYTE PTR _c$[ebp]
  003ed	8b 7d 0c	 mov	 edi, DWORD PTR _r$[ebp]
  003f0	0f b6 34 37	 movzx	 esi, BYTE PTR [edi+esi]
  003f4	d1 e6		 shl	 esi, 1
  003f6	0f b6 7d bf	 movzx	 edi, BYTE PTR _c$[ebp]
  003fa	8b 5d 0c	 mov	 ebx, DWORD PTR _r$[ebp]
  003fd	0f b6 3c 3b	 movzx	 edi, BYTE PTR [ebx+edi]
  00401	c1 ff 07	 sar	 edi, 7
  00404	83 e7 01	 and	 edi, 1
  00407	6b ff 1b	 imul	 edi, 27			; 0000001bH
  0040a	33 f7		 xor	 esi, edi
  0040c	c1 fe 07	 sar	 esi, 7
  0040f	83 e6 01	 and	 esi, 1
  00412	6b f6 1b	 imul	 esi, 27			; 0000001bH
  00415	33 c6		 xor	 eax, esi
  00417	d1 e0		 shl	 eax, 1
  00419	0f b6 75 bf	 movzx	 esi, BYTE PTR _c$[ebp]
  0041d	8b 7d 0c	 mov	 edi, DWORD PTR _r$[ebp]
  00420	0f b6 34 37	 movzx	 esi, BYTE PTR [edi+esi]
  00424	d1 e6		 shl	 esi, 1
  00426	0f b6 7d bf	 movzx	 edi, BYTE PTR _c$[ebp]
  0042a	8b 5d 0c	 mov	 ebx, DWORD PTR _r$[ebp]
  0042d	0f b6 3c 3b	 movzx	 edi, BYTE PTR [ebx+edi]
  00431	c1 ff 07	 sar	 edi, 7
  00434	83 e7 01	 and	 edi, 1
  00437	6b ff 1b	 imul	 edi, 27			; 0000001bH
  0043a	33 f7		 xor	 esi, edi
  0043c	d1 e6		 shl	 esi, 1
  0043e	0f b6 7d bf	 movzx	 edi, BYTE PTR _c$[ebp]
  00442	8b 5d 0c	 mov	 ebx, DWORD PTR _r$[ebp]
  00445	0f b6 3c 3b	 movzx	 edi, BYTE PTR [ebx+edi]
  00449	d1 e7		 shl	 edi, 1
  0044b	0f b6 5d bf	 movzx	 ebx, BYTE PTR _c$[ebp]
  0044f	89 8d f0 fe ff
	ff		 mov	 DWORD PTR tv9240[ebp], ecx
  00455	8b 4d 0c	 mov	 ecx, DWORD PTR _r$[ebp]
  00458	0f b6 0c 19	 movzx	 ecx, BYTE PTR [ecx+ebx]
  0045c	c1 f9 07	 sar	 ecx, 7
  0045f	83 e1 01	 and	 ecx, 1
  00462	6b c9 1b	 imul	 ecx, 27			; 0000001bH
  00465	33 f9		 xor	 edi, ecx
  00467	c1 ff 07	 sar	 edi, 7
  0046a	83 e7 01	 and	 edi, 1
  0046d	6b ff 1b	 imul	 edi, 27			; 0000001bH
  00470	33 f7		 xor	 esi, edi
  00472	c1 fe 07	 sar	 esi, 7
  00475	83 e6 01	 and	 esi, 1
  00478	6b f6 1b	 imul	 esi, 27			; 0000001bH
  0047b	33 c6		 xor	 eax, esi
  0047d	c1 f8 07	 sar	 eax, 7
  00480	83 e0 01	 and	 eax, 1
  00483	6b c0 1b	 imul	 eax, 27			; 0000001bH
  00486	33 d0		 xor	 edx, eax
  00488	d1 e2		 shl	 edx, 1
  0048a	0f b6 45 bf	 movzx	 eax, BYTE PTR _c$[ebp]
  0048e	8b 4d 0c	 mov	 ecx, DWORD PTR _r$[ebp]
  00491	0f b6 04 01	 movzx	 eax, BYTE PTR [ecx+eax]
  00495	d1 e0		 shl	 eax, 1
  00497	0f b6 4d bf	 movzx	 ecx, BYTE PTR _c$[ebp]
  0049b	8b 75 0c	 mov	 esi, DWORD PTR _r$[ebp]
  0049e	0f b6 0c 0e	 movzx	 ecx, BYTE PTR [esi+ecx]
  004a2	c1 f9 07	 sar	 ecx, 7
  004a5	83 e1 01	 and	 ecx, 1
  004a8	6b c9 1b	 imul	 ecx, 27			; 0000001bH
  004ab	33 c1		 xor	 eax, ecx
  004ad	d1 e0		 shl	 eax, 1
  004af	0f b6 4d bf	 movzx	 ecx, BYTE PTR _c$[ebp]
  004b3	8b 75 0c	 mov	 esi, DWORD PTR _r$[ebp]
  004b6	0f b6 0c 0e	 movzx	 ecx, BYTE PTR [esi+ecx]
  004ba	d1 e1		 shl	 ecx, 1
  004bc	0f b6 75 bf	 movzx	 esi, BYTE PTR _c$[ebp]
  004c0	8b 7d 0c	 mov	 edi, DWORD PTR _r$[ebp]
  004c3	0f b6 34 37	 movzx	 esi, BYTE PTR [edi+esi]
  004c7	c1 fe 07	 sar	 esi, 7
  004ca	83 e6 01	 and	 esi, 1
  004cd	6b f6 1b	 imul	 esi, 27			; 0000001bH
  004d0	33 ce		 xor	 ecx, esi
  004d2	c1 f9 07	 sar	 ecx, 7
  004d5	83 e1 01	 and	 ecx, 1
  004d8	6b c9 1b	 imul	 ecx, 27			; 0000001bH
  004db	33 c1		 xor	 eax, ecx
  004dd	d1 e0		 shl	 eax, 1
  004df	0f b6 4d bf	 movzx	 ecx, BYTE PTR _c$[ebp]
  004e3	8b 75 0c	 mov	 esi, DWORD PTR _r$[ebp]
  004e6	0f b6 0c 0e	 movzx	 ecx, BYTE PTR [esi+ecx]
  004ea	d1 e1		 shl	 ecx, 1
  004ec	0f b6 75 bf	 movzx	 esi, BYTE PTR _c$[ebp]
  004f0	8b 7d 0c	 mov	 edi, DWORD PTR _r$[ebp]
  004f3	0f b6 34 37	 movzx	 esi, BYTE PTR [edi+esi]
  004f7	c1 fe 07	 sar	 esi, 7
  004fa	83 e6 01	 and	 esi, 1
  004fd	6b f6 1b	 imul	 esi, 27			; 0000001bH
  00500	33 ce		 xor	 ecx, esi
  00502	d1 e1		 shl	 ecx, 1
  00504	0f b6 75 bf	 movzx	 esi, BYTE PTR _c$[ebp]
  00508	8b 7d 0c	 mov	 edi, DWORD PTR _r$[ebp]
  0050b	0f b6 34 37	 movzx	 esi, BYTE PTR [edi+esi]
  0050f	d1 e6		 shl	 esi, 1
  00511	0f b6 7d bf	 movzx	 edi, BYTE PTR _c$[ebp]
  00515	8b 5d 0c	 mov	 ebx, DWORD PTR _r$[ebp]
  00518	0f b6 3c 3b	 movzx	 edi, BYTE PTR [ebx+edi]
  0051c	c1 ff 07	 sar	 edi, 7
  0051f	83 e7 01	 and	 edi, 1
  00522	6b ff 1b	 imul	 edi, 27			; 0000001bH
  00525	33 f7		 xor	 esi, edi
  00527	c1 fe 07	 sar	 esi, 7
  0052a	83 e6 01	 and	 esi, 1
  0052d	6b f6 1b	 imul	 esi, 27			; 0000001bH
  00530	33 ce		 xor	 ecx, esi
  00532	c1 f9 07	 sar	 ecx, 7
  00535	83 e1 01	 and	 ecx, 1
  00538	6b c9 1b	 imul	 ecx, 27			; 0000001bH
  0053b	33 c1		 xor	 eax, ecx
  0053d	d1 e0		 shl	 eax, 1
  0053f	0f b6 4d bf	 movzx	 ecx, BYTE PTR _c$[ebp]
  00543	8b 75 0c	 mov	 esi, DWORD PTR _r$[ebp]
  00546	0f b6 0c 0e	 movzx	 ecx, BYTE PTR [esi+ecx]
  0054a	d1 e1		 shl	 ecx, 1
  0054c	0f b6 75 bf	 movzx	 esi, BYTE PTR _c$[ebp]
  00550	8b 7d 0c	 mov	 edi, DWORD PTR _r$[ebp]
  00553	0f b6 34 37	 movzx	 esi, BYTE PTR [edi+esi]
  00557	c1 fe 07	 sar	 esi, 7
  0055a	83 e6 01	 and	 esi, 1
  0055d	6b f6 1b	 imul	 esi, 27			; 0000001bH
  00560	33 ce		 xor	 ecx, esi
  00562	d1 e1		 shl	 ecx, 1
  00564	0f b6 75 bf	 movzx	 esi, BYTE PTR _c$[ebp]
  00568	8b 7d 0c	 mov	 edi, DWORD PTR _r$[ebp]
  0056b	0f b6 34 37	 movzx	 esi, BYTE PTR [edi+esi]
  0056f	d1 e6		 shl	 esi, 1
  00571	0f b6 7d bf	 movzx	 edi, BYTE PTR _c$[ebp]
  00575	8b 5d 0c	 mov	 ebx, DWORD PTR _r$[ebp]
  00578	0f b6 3c 3b	 movzx	 edi, BYTE PTR [ebx+edi]
  0057c	c1 ff 07	 sar	 edi, 7
  0057f	83 e7 01	 and	 edi, 1
  00582	6b ff 1b	 imul	 edi, 27			; 0000001bH
  00585	33 f7		 xor	 esi, edi
  00587	c1 fe 07	 sar	 esi, 7
  0058a	83 e6 01	 and	 esi, 1
  0058d	6b f6 1b	 imul	 esi, 27			; 0000001bH
  00590	33 ce		 xor	 ecx, esi
  00592	d1 e1		 shl	 ecx, 1
  00594	0f b6 75 bf	 movzx	 esi, BYTE PTR _c$[ebp]
  00598	8b 7d 0c	 mov	 edi, DWORD PTR _r$[ebp]
  0059b	0f b6 34 37	 movzx	 esi, BYTE PTR [edi+esi]
  0059f	d1 e6		 shl	 esi, 1
  005a1	0f b6 7d bf	 movzx	 edi, BYTE PTR _c$[ebp]
  005a5	8b 5d 0c	 mov	 ebx, DWORD PTR _r$[ebp]
  005a8	0f b6 3c 3b	 movzx	 edi, BYTE PTR [ebx+edi]
  005ac	c1 ff 07	 sar	 edi, 7
  005af	83 e7 01	 and	 edi, 1
  005b2	6b ff 1b	 imul	 edi, 27			; 0000001bH
  005b5	33 f7		 xor	 esi, edi
  005b7	d1 e6		 shl	 esi, 1
  005b9	0f b6 7d bf	 movzx	 edi, BYTE PTR _c$[ebp]
  005bd	8b 5d 0c	 mov	 ebx, DWORD PTR _r$[ebp]
  005c0	0f b6 3c 3b	 movzx	 edi, BYTE PTR [ebx+edi]
  005c4	d1 e7		 shl	 edi, 1
  005c6	0f b6 5d bf	 movzx	 ebx, BYTE PTR _c$[ebp]
  005ca	89 95 ec fe ff
	ff		 mov	 DWORD PTR tv9242[ebp], edx
  005d0	8b 55 0c	 mov	 edx, DWORD PTR _r$[ebp]
  005d3	0f b6 14 1a	 movzx	 edx, BYTE PTR [edx+ebx]
  005d7	c1 fa 07	 sar	 edx, 7
  005da	83 e2 01	 and	 edx, 1
  005dd	6b d2 1b	 imul	 edx, 27			; 0000001bH
  005e0	33 fa		 xor	 edi, edx
  005e2	c1 ff 07	 sar	 edi, 7
  005e5	83 e7 01	 and	 edi, 1
  005e8	6b ff 1b	 imul	 edi, 27			; 0000001bH
  005eb	33 f7		 xor	 esi, edi
  005ed	c1 fe 07	 sar	 esi, 7
  005f0	83 e6 01	 and	 esi, 1
  005f3	6b f6 1b	 imul	 esi, 27			; 0000001bH
  005f6	33 ce		 xor	 ecx, esi
  005f8	c1 f9 07	 sar	 ecx, 7
  005fb	83 e1 01	 and	 ecx, 1
  005fe	6b c9 1b	 imul	 ecx, 27			; 0000001bH
  00601	33 c1		 xor	 eax, ecx
  00603	c1 f8 07	 sar	 eax, 7
  00606	83 e0 01	 and	 eax, 1
  00609	6b c0 1b	 imul	 eax, 27			; 0000001bH
  0060c	8b 8d ec fe ff
	ff		 mov	 ecx, DWORD PTR tv9242[ebp]
  00612	33 c8		 xor	 ecx, eax
  00614	6b c9 00	 imul	 ecx, 0
  00617	8b 95 f0 fe ff
	ff		 mov	 edx, DWORD PTR tv9240[ebp]
  0061d	33 d1		 xor	 edx, ecx
  0061f	0f b6 45 bf	 movzx	 eax, BYTE PTR _c$[ebp]
  00623	8b 4d 0c	 mov	 ecx, DWORD PTR _r$[ebp]
  00626	0f b6 04 01	 movzx	 eax, BYTE PTR [ecx+eax]
  0062a	d1 e0		 shl	 eax, 1
  0062c	0f b6 4d bf	 movzx	 ecx, BYTE PTR _c$[ebp]
  00630	8b 75 0c	 mov	 esi, DWORD PTR _r$[ebp]
  00633	0f b6 0c 0e	 movzx	 ecx, BYTE PTR [esi+ecx]
  00637	c1 f9 07	 sar	 ecx, 7
  0063a	83 e1 01	 and	 ecx, 1
  0063d	6b c9 1b	 imul	 ecx, 27			; 0000001bH
  00640	33 c1		 xor	 eax, ecx
  00642	d1 e0		 shl	 eax, 1
  00644	0f b6 4d bf	 movzx	 ecx, BYTE PTR _c$[ebp]
  00648	8b 75 0c	 mov	 esi, DWORD PTR _r$[ebp]
  0064b	0f b6 0c 0e	 movzx	 ecx, BYTE PTR [esi+ecx]
  0064f	d1 e1		 shl	 ecx, 1
  00651	0f b6 75 bf	 movzx	 esi, BYTE PTR _c$[ebp]
  00655	8b 7d 0c	 mov	 edi, DWORD PTR _r$[ebp]
  00658	0f b6 34 37	 movzx	 esi, BYTE PTR [edi+esi]
  0065c	c1 fe 07	 sar	 esi, 7
  0065f	83 e6 01	 and	 esi, 1
  00662	6b f6 1b	 imul	 esi, 27			; 0000001bH
  00665	33 ce		 xor	 ecx, esi
  00667	c1 f9 07	 sar	 ecx, 7
  0066a	83 e1 01	 and	 ecx, 1
  0066d	6b c9 1b	 imul	 ecx, 27			; 0000001bH
  00670	33 c1		 xor	 eax, ecx
  00672	d1 e0		 shl	 eax, 1
  00674	0f b6 4d bf	 movzx	 ecx, BYTE PTR _c$[ebp]
  00678	8b 75 0c	 mov	 esi, DWORD PTR _r$[ebp]
  0067b	0f b6 0c 0e	 movzx	 ecx, BYTE PTR [esi+ecx]
  0067f	d1 e1		 shl	 ecx, 1
  00681	0f b6 75 bf	 movzx	 esi, BYTE PTR _c$[ebp]
  00685	8b 7d 0c	 mov	 edi, DWORD PTR _r$[ebp]
  00688	0f b6 34 37	 movzx	 esi, BYTE PTR [edi+esi]
  0068c	c1 fe 07	 sar	 esi, 7
  0068f	83 e6 01	 and	 esi, 1
  00692	6b f6 1b	 imul	 esi, 27			; 0000001bH
  00695	33 ce		 xor	 ecx, esi
  00697	d1 e1		 shl	 ecx, 1
  00699	0f b6 75 bf	 movzx	 esi, BYTE PTR _c$[ebp]
  0069d	8b 7d 0c	 mov	 edi, DWORD PTR _r$[ebp]
  006a0	0f b6 34 37	 movzx	 esi, BYTE PTR [edi+esi]
  006a4	d1 e6		 shl	 esi, 1
  006a6	0f b6 7d bf	 movzx	 edi, BYTE PTR _c$[ebp]
  006aa	8b 5d 0c	 mov	 ebx, DWORD PTR _r$[ebp]
  006ad	0f b6 3c 3b	 movzx	 edi, BYTE PTR [ebx+edi]
  006b1	c1 ff 07	 sar	 edi, 7
  006b4	83 e7 01	 and	 edi, 1
  006b7	6b ff 1b	 imul	 edi, 27			; 0000001bH
  006ba	33 f7		 xor	 esi, edi
  006bc	c1 fe 07	 sar	 esi, 7
  006bf	83 e6 01	 and	 esi, 1
  006c2	6b f6 1b	 imul	 esi, 27			; 0000001bH
  006c5	33 ce		 xor	 ecx, esi
  006c7	c1 f9 07	 sar	 ecx, 7
  006ca	83 e1 01	 and	 ecx, 1
  006cd	6b c9 1b	 imul	 ecx, 27			; 0000001bH
  006d0	33 c1		 xor	 eax, ecx
  006d2	d1 e0		 shl	 eax, 1
  006d4	0f b6 4d bf	 movzx	 ecx, BYTE PTR _c$[ebp]
  006d8	8b 75 0c	 mov	 esi, DWORD PTR _r$[ebp]
  006db	0f b6 0c 0e	 movzx	 ecx, BYTE PTR [esi+ecx]
  006df	d1 e1		 shl	 ecx, 1
  006e1	0f b6 75 bf	 movzx	 esi, BYTE PTR _c$[ebp]
  006e5	8b 7d 0c	 mov	 edi, DWORD PTR _r$[ebp]
  006e8	0f b6 34 37	 movzx	 esi, BYTE PTR [edi+esi]
  006ec	c1 fe 07	 sar	 esi, 7
  006ef	83 e6 01	 and	 esi, 1
  006f2	6b f6 1b	 imul	 esi, 27			; 0000001bH
  006f5	33 ce		 xor	 ecx, esi
  006f7	d1 e1		 shl	 ecx, 1
  006f9	0f b6 75 bf	 movzx	 esi, BYTE PTR _c$[ebp]
  006fd	8b 7d 0c	 mov	 edi, DWORD PTR _r$[ebp]
  00700	0f b6 34 37	 movzx	 esi, BYTE PTR [edi+esi]
  00704	d1 e6		 shl	 esi, 1
  00706	0f b6 7d bf	 movzx	 edi, BYTE PTR _c$[ebp]
  0070a	8b 5d 0c	 mov	 ebx, DWORD PTR _r$[ebp]
  0070d	0f b6 3c 3b	 movzx	 edi, BYTE PTR [ebx+edi]
  00711	c1 ff 07	 sar	 edi, 7
  00714	83 e7 01	 and	 edi, 1
  00717	6b ff 1b	 imul	 edi, 27			; 0000001bH
  0071a	33 f7		 xor	 esi, edi
  0071c	c1 fe 07	 sar	 esi, 7
  0071f	83 e6 01	 and	 esi, 1
  00722	6b f6 1b	 imul	 esi, 27			; 0000001bH
  00725	33 ce		 xor	 ecx, esi
  00727	d1 e1		 shl	 ecx, 1
  00729	0f b6 75 bf	 movzx	 esi, BYTE PTR _c$[ebp]
  0072d	8b 7d 0c	 mov	 edi, DWORD PTR _r$[ebp]
  00730	0f b6 34 37	 movzx	 esi, BYTE PTR [edi+esi]
  00734	d1 e6		 shl	 esi, 1
  00736	0f b6 7d bf	 movzx	 edi, BYTE PTR _c$[ebp]
  0073a	8b 5d 0c	 mov	 ebx, DWORD PTR _r$[ebp]
  0073d	0f b6 3c 3b	 movzx	 edi, BYTE PTR [ebx+edi]
  00741	c1 ff 07	 sar	 edi, 7
  00744	83 e7 01	 and	 edi, 1
  00747	6b ff 1b	 imul	 edi, 27			; 0000001bH
  0074a	33 f7		 xor	 esi, edi
  0074c	d1 e6		 shl	 esi, 1
  0074e	0f b6 7d bf	 movzx	 edi, BYTE PTR _c$[ebp]
  00752	8b 5d 0c	 mov	 ebx, DWORD PTR _r$[ebp]
  00755	0f b6 3c 3b	 movzx	 edi, BYTE PTR [ebx+edi]
  00759	d1 e7		 shl	 edi, 1
  0075b	0f b6 5d bf	 movzx	 ebx, BYTE PTR _c$[ebp]
  0075f	89 95 e8 fe ff
	ff		 mov	 DWORD PTR tv9244[ebp], edx
  00765	8b 55 0c	 mov	 edx, DWORD PTR _r$[ebp]
  00768	0f b6 14 1a	 movzx	 edx, BYTE PTR [edx+ebx]
  0076c	c1 fa 07	 sar	 edx, 7
  0076f	83 e2 01	 and	 edx, 1
  00772	6b d2 1b	 imul	 edx, 27			; 0000001bH
  00775	33 fa		 xor	 edi, edx
  00777	c1 ff 07	 sar	 edi, 7
  0077a	83 e7 01	 and	 edi, 1
  0077d	6b ff 1b	 imul	 edi, 27			; 0000001bH
  00780	33 f7		 xor	 esi, edi
  00782	c1 fe 07	 sar	 esi, 7
  00785	83 e6 01	 and	 esi, 1
  00788	6b f6 1b	 imul	 esi, 27			; 0000001bH
  0078b	33 ce		 xor	 ecx, esi
  0078d	c1 f9 07	 sar	 ecx, 7
  00790	83 e1 01	 and	 ecx, 1
  00793	6b c9 1b	 imul	 ecx, 27			; 0000001bH
  00796	33 c1		 xor	 eax, ecx
  00798	d1 e0		 shl	 eax, 1
  0079a	0f b6 4d bf	 movzx	 ecx, BYTE PTR _c$[ebp]
  0079e	8b 55 0c	 mov	 edx, DWORD PTR _r$[ebp]
  007a1	0f b6 0c 0a	 movzx	 ecx, BYTE PTR [edx+ecx]
  007a5	d1 e1		 shl	 ecx, 1
  007a7	0f b6 55 bf	 movzx	 edx, BYTE PTR _c$[ebp]
  007ab	8b 75 0c	 mov	 esi, DWORD PTR _r$[ebp]
  007ae	0f b6 14 16	 movzx	 edx, BYTE PTR [esi+edx]
  007b2	c1 fa 07	 sar	 edx, 7
  007b5	83 e2 01	 and	 edx, 1
  007b8	6b d2 1b	 imul	 edx, 27			; 0000001bH
  007bb	33 ca		 xor	 ecx, edx
  007bd	d1 e1		 shl	 ecx, 1
  007bf	0f b6 55 bf	 movzx	 edx, BYTE PTR _c$[ebp]
  007c3	8b 75 0c	 mov	 esi, DWORD PTR _r$[ebp]
  007c6	0f b6 14 16	 movzx	 edx, BYTE PTR [esi+edx]
  007ca	d1 e2		 shl	 edx, 1
  007cc	0f b6 75 bf	 movzx	 esi, BYTE PTR _c$[ebp]
  007d0	8b 7d 0c	 mov	 edi, DWORD PTR _r$[ebp]
  007d3	0f b6 34 37	 movzx	 esi, BYTE PTR [edi+esi]
  007d7	c1 fe 07	 sar	 esi, 7
  007da	83 e6 01	 and	 esi, 1
  007dd	6b f6 1b	 imul	 esi, 27			; 0000001bH
  007e0	33 d6		 xor	 edx, esi
  007e2	c1 fa 07	 sar	 edx, 7
  007e5	83 e2 01	 and	 edx, 1
  007e8	6b d2 1b	 imul	 edx, 27			; 0000001bH
  007eb	33 ca		 xor	 ecx, edx
  007ed	d1 e1		 shl	 ecx, 1
  007ef	0f b6 55 bf	 movzx	 edx, BYTE PTR _c$[ebp]
  007f3	8b 75 0c	 mov	 esi, DWORD PTR _r$[ebp]
  007f6	0f b6 14 16	 movzx	 edx, BYTE PTR [esi+edx]
  007fa	d1 e2		 shl	 edx, 1
  007fc	0f b6 75 bf	 movzx	 esi, BYTE PTR _c$[ebp]
  00800	8b 7d 0c	 mov	 edi, DWORD PTR _r$[ebp]
  00803	0f b6 34 37	 movzx	 esi, BYTE PTR [edi+esi]
  00807	c1 fe 07	 sar	 esi, 7
  0080a	83 e6 01	 and	 esi, 1
  0080d	6b f6 1b	 imul	 esi, 27			; 0000001bH
  00810	33 d6		 xor	 edx, esi
  00812	d1 e2		 shl	 edx, 1
  00814	0f b6 75 bf	 movzx	 esi, BYTE PTR _c$[ebp]
  00818	8b 7d 0c	 mov	 edi, DWORD PTR _r$[ebp]
  0081b	0f b6 34 37	 movzx	 esi, BYTE PTR [edi+esi]
  0081f	d1 e6		 shl	 esi, 1
  00821	0f b6 7d bf	 movzx	 edi, BYTE PTR _c$[ebp]
  00825	8b 5d 0c	 mov	 ebx, DWORD PTR _r$[ebp]
  00828	0f b6 3c 3b	 movzx	 edi, BYTE PTR [ebx+edi]
  0082c	c1 ff 07	 sar	 edi, 7
  0082f	83 e7 01	 and	 edi, 1
  00832	6b ff 1b	 imul	 edi, 27			; 0000001bH
  00835	33 f7		 xor	 esi, edi
  00837	c1 fe 07	 sar	 esi, 7
  0083a	83 e6 01	 and	 esi, 1
  0083d	6b f6 1b	 imul	 esi, 27			; 0000001bH
  00840	33 d6		 xor	 edx, esi
  00842	c1 fa 07	 sar	 edx, 7
  00845	83 e2 01	 and	 edx, 1
  00848	6b d2 1b	 imul	 edx, 27			; 0000001bH
  0084b	33 ca		 xor	 ecx, edx
  0084d	d1 e1		 shl	 ecx, 1
  0084f	0f b6 55 bf	 movzx	 edx, BYTE PTR _c$[ebp]
  00853	8b 75 0c	 mov	 esi, DWORD PTR _r$[ebp]
  00856	0f b6 14 16	 movzx	 edx, BYTE PTR [esi+edx]
  0085a	d1 e2		 shl	 edx, 1
  0085c	0f b6 75 bf	 movzx	 esi, BYTE PTR _c$[ebp]
  00860	8b 7d 0c	 mov	 edi, DWORD PTR _r$[ebp]
  00863	0f b6 34 37	 movzx	 esi, BYTE PTR [edi+esi]
  00867	c1 fe 07	 sar	 esi, 7
  0086a	83 e6 01	 and	 esi, 1
  0086d	6b f6 1b	 imul	 esi, 27			; 0000001bH
  00870	33 d6		 xor	 edx, esi
  00872	d1 e2		 shl	 edx, 1
  00874	0f b6 75 bf	 movzx	 esi, BYTE PTR _c$[ebp]
  00878	8b 7d 0c	 mov	 edi, DWORD PTR _r$[ebp]
  0087b	0f b6 34 37	 movzx	 esi, BYTE PTR [edi+esi]
  0087f	d1 e6		 shl	 esi, 1
  00881	0f b6 7d bf	 movzx	 edi, BYTE PTR _c$[ebp]
  00885	8b 5d 0c	 mov	 ebx, DWORD PTR _r$[ebp]
  00888	0f b6 3c 3b	 movzx	 edi, BYTE PTR [ebx+edi]
  0088c	c1 ff 07	 sar	 edi, 7
  0088f	83 e7 01	 and	 edi, 1
  00892	6b ff 1b	 imul	 edi, 27			; 0000001bH
  00895	33 f7		 xor	 esi, edi
  00897	c1 fe 07	 sar	 esi, 7
  0089a	83 e6 01	 and	 esi, 1
  0089d	6b f6 1b	 imul	 esi, 27			; 0000001bH
  008a0	33 d6		 xor	 edx, esi
  008a2	d1 e2		 shl	 edx, 1
  008a4	0f b6 75 bf	 movzx	 esi, BYTE PTR _c$[ebp]
  008a8	8b 7d 0c	 mov	 edi, DWORD PTR _r$[ebp]
  008ab	0f b6 34 37	 movzx	 esi, BYTE PTR [edi+esi]
  008af	d1 e6		 shl	 esi, 1
  008b1	0f b6 7d bf	 movzx	 edi, BYTE PTR _c$[ebp]
  008b5	8b 5d 0c	 mov	 ebx, DWORD PTR _r$[ebp]
  008b8	0f b6 3c 3b	 movzx	 edi, BYTE PTR [ebx+edi]
  008bc	c1 ff 07	 sar	 edi, 7
  008bf	83 e7 01	 and	 edi, 1
  008c2	6b ff 1b	 imul	 edi, 27			; 0000001bH
  008c5	33 f7		 xor	 esi, edi
  008c7	d1 e6		 shl	 esi, 1
  008c9	0f b6 7d bf	 movzx	 edi, BYTE PTR _c$[ebp]
  008cd	8b 5d 0c	 mov	 ebx, DWORD PTR _r$[ebp]
  008d0	0f b6 3c 3b	 movzx	 edi, BYTE PTR [ebx+edi]
  008d4	d1 e7		 shl	 edi, 1
  008d6	0f b6 5d bf	 movzx	 ebx, BYTE PTR _c$[ebp]
  008da	89 85 e4 fe ff
	ff		 mov	 DWORD PTR tv9246[ebp], eax
  008e0	8b 45 0c	 mov	 eax, DWORD PTR _r$[ebp]
  008e3	0f b6 04 18	 movzx	 eax, BYTE PTR [eax+ebx]
  008e7	c1 f8 07	 sar	 eax, 7
  008ea	83 e0 01	 and	 eax, 1
  008ed	6b c0 1b	 imul	 eax, 27			; 0000001bH
  008f0	33 f8		 xor	 edi, eax
  008f2	c1 ff 07	 sar	 edi, 7
  008f5	83 e7 01	 and	 edi, 1
  008f8	6b ff 1b	 imul	 edi, 27			; 0000001bH
  008fb	33 f7		 xor	 esi, edi
  008fd	c1 fe 07	 sar	 esi, 7
  00900	83 e6 01	 and	 esi, 1
  00903	6b f6 1b	 imul	 esi, 27			; 0000001bH
  00906	33 d6		 xor	 edx, esi
  00908	c1 fa 07	 sar	 edx, 7
  0090b	83 e2 01	 and	 edx, 1
  0090e	6b d2 1b	 imul	 edx, 27			; 0000001bH
  00911	33 ca		 xor	 ecx, edx
  00913	c1 f9 07	 sar	 ecx, 7
  00916	83 e1 01	 and	 ecx, 1
  00919	6b c9 1b	 imul	 ecx, 27			; 0000001bH
  0091c	8b 95 e4 fe ff
	ff		 mov	 edx, DWORD PTR tv9246[ebp]
  00922	33 d1		 xor	 edx, ecx
  00924	d1 e2		 shl	 edx, 1
  00926	0f b6 45 bf	 movzx	 eax, BYTE PTR _c$[ebp]
  0092a	8b 4d 0c	 mov	 ecx, DWORD PTR _r$[ebp]
  0092d	0f b6 04 01	 movzx	 eax, BYTE PTR [ecx+eax]
  00931	d1 e0		 shl	 eax, 1
  00933	0f b6 4d bf	 movzx	 ecx, BYTE PTR _c$[ebp]
  00937	8b 75 0c	 mov	 esi, DWORD PTR _r$[ebp]
  0093a	0f b6 0c 0e	 movzx	 ecx, BYTE PTR [esi+ecx]
  0093e	c1 f9 07	 sar	 ecx, 7
  00941	83 e1 01	 and	 ecx, 1
  00944	6b c9 1b	 imul	 ecx, 27			; 0000001bH
  00947	33 c1		 xor	 eax, ecx
  00949	d1 e0		 shl	 eax, 1
  0094b	0f b6 4d bf	 movzx	 ecx, BYTE PTR _c$[ebp]
  0094f	8b 75 0c	 mov	 esi, DWORD PTR _r$[ebp]
  00952	0f b6 0c 0e	 movzx	 ecx, BYTE PTR [esi+ecx]
  00956	d1 e1		 shl	 ecx, 1
  00958	0f b6 75 bf	 movzx	 esi, BYTE PTR _c$[ebp]
  0095c	8b 7d 0c	 mov	 edi, DWORD PTR _r$[ebp]
  0095f	0f b6 34 37	 movzx	 esi, BYTE PTR [edi+esi]
  00963	c1 fe 07	 sar	 esi, 7
  00966	83 e6 01	 and	 esi, 1
  00969	6b f6 1b	 imul	 esi, 27			; 0000001bH
  0096c	33 ce		 xor	 ecx, esi
  0096e	c1 f9 07	 sar	 ecx, 7
  00971	83 e1 01	 and	 ecx, 1
  00974	6b c9 1b	 imul	 ecx, 27			; 0000001bH
  00977	33 c1		 xor	 eax, ecx
  00979	d1 e0		 shl	 eax, 1
  0097b	0f b6 4d bf	 movzx	 ecx, BYTE PTR _c$[ebp]
  0097f	8b 75 0c	 mov	 esi, DWORD PTR _r$[ebp]
  00982	0f b6 0c 0e	 movzx	 ecx, BYTE PTR [esi+ecx]
  00986	d1 e1		 shl	 ecx, 1
  00988	0f b6 75 bf	 movzx	 esi, BYTE PTR _c$[ebp]
  0098c	8b 7d 0c	 mov	 edi, DWORD PTR _r$[ebp]
  0098f	0f b6 34 37	 movzx	 esi, BYTE PTR [edi+esi]
  00993	c1 fe 07	 sar	 esi, 7
  00996	83 e6 01	 and	 esi, 1
  00999	6b f6 1b	 imul	 esi, 27			; 0000001bH
  0099c	33 ce		 xor	 ecx, esi
  0099e	d1 e1		 shl	 ecx, 1
  009a0	0f b6 75 bf	 movzx	 esi, BYTE PTR _c$[ebp]
  009a4	8b 7d 0c	 mov	 edi, DWORD PTR _r$[ebp]
  009a7	0f b6 34 37	 movzx	 esi, BYTE PTR [edi+esi]
  009ab	d1 e6		 shl	 esi, 1
  009ad	0f b6 7d bf	 movzx	 edi, BYTE PTR _c$[ebp]
  009b1	8b 5d 0c	 mov	 ebx, DWORD PTR _r$[ebp]
  009b4	0f b6 3c 3b	 movzx	 edi, BYTE PTR [ebx+edi]
  009b8	c1 ff 07	 sar	 edi, 7
  009bb	83 e7 01	 and	 edi, 1
  009be	6b ff 1b	 imul	 edi, 27			; 0000001bH
  009c1	33 f7		 xor	 esi, edi
  009c3	c1 fe 07	 sar	 esi, 7
  009c6	83 e6 01	 and	 esi, 1
  009c9	6b f6 1b	 imul	 esi, 27			; 0000001bH
  009cc	33 ce		 xor	 ecx, esi
  009ce	c1 f9 07	 sar	 ecx, 7
  009d1	83 e1 01	 and	 ecx, 1
  009d4	6b c9 1b	 imul	 ecx, 27			; 0000001bH
  009d7	33 c1		 xor	 eax, ecx
  009d9	d1 e0		 shl	 eax, 1
  009db	0f b6 4d bf	 movzx	 ecx, BYTE PTR _c$[ebp]
  009df	8b 75 0c	 mov	 esi, DWORD PTR _r$[ebp]
  009e2	0f b6 0c 0e	 movzx	 ecx, BYTE PTR [esi+ecx]
  009e6	d1 e1		 shl	 ecx, 1
  009e8	0f b6 75 bf	 movzx	 esi, BYTE PTR _c$[ebp]
  009ec	8b 7d 0c	 mov	 edi, DWORD PTR _r$[ebp]
  009ef	0f b6 34 37	 movzx	 esi, BYTE PTR [edi+esi]
  009f3	c1 fe 07	 sar	 esi, 7
  009f6	83 e6 01	 and	 esi, 1
  009f9	6b f6 1b	 imul	 esi, 27			; 0000001bH
  009fc	33 ce		 xor	 ecx, esi
  009fe	d1 e1		 shl	 ecx, 1
  00a00	0f b6 75 bf	 movzx	 esi, BYTE PTR _c$[ebp]
  00a04	8b 7d 0c	 mov	 edi, DWORD PTR _r$[ebp]
  00a07	0f b6 34 37	 movzx	 esi, BYTE PTR [edi+esi]
  00a0b	d1 e6		 shl	 esi, 1
  00a0d	0f b6 7d bf	 movzx	 edi, BYTE PTR _c$[ebp]
  00a11	8b 5d 0c	 mov	 ebx, DWORD PTR _r$[ebp]
  00a14	0f b6 3c 3b	 movzx	 edi, BYTE PTR [ebx+edi]
  00a18	c1 ff 07	 sar	 edi, 7
  00a1b	83 e7 01	 and	 edi, 1
  00a1e	6b ff 1b	 imul	 edi, 27			; 0000001bH
  00a21	33 f7		 xor	 esi, edi
  00a23	c1 fe 07	 sar	 esi, 7
  00a26	83 e6 01	 and	 esi, 1
  00a29	6b f6 1b	 imul	 esi, 27			; 0000001bH
  00a2c	33 ce		 xor	 ecx, esi
  00a2e	d1 e1		 shl	 ecx, 1
  00a30	0f b6 75 bf	 movzx	 esi, BYTE PTR _c$[ebp]
  00a34	8b 7d 0c	 mov	 edi, DWORD PTR _r$[ebp]
  00a37	0f b6 34 37	 movzx	 esi, BYTE PTR [edi+esi]
  00a3b	d1 e6		 shl	 esi, 1
  00a3d	0f b6 7d bf	 movzx	 edi, BYTE PTR _c$[ebp]
  00a41	8b 5d 0c	 mov	 ebx, DWORD PTR _r$[ebp]
  00a44	0f b6 3c 3b	 movzx	 edi, BYTE PTR [ebx+edi]
  00a48	c1 ff 07	 sar	 edi, 7
  00a4b	83 e7 01	 and	 edi, 1
  00a4e	6b ff 1b	 imul	 edi, 27			; 0000001bH
  00a51	33 f7		 xor	 esi, edi
  00a53	d1 e6		 shl	 esi, 1
  00a55	0f b6 7d bf	 movzx	 edi, BYTE PTR _c$[ebp]
  00a59	8b 5d 0c	 mov	 ebx, DWORD PTR _r$[ebp]
  00a5c	0f b6 3c 3b	 movzx	 edi, BYTE PTR [ebx+edi]
  00a60	d1 e7		 shl	 edi, 1
  00a62	0f b6 5d bf	 movzx	 ebx, BYTE PTR _c$[ebp]
  00a66	89 95 e0 fe ff
	ff		 mov	 DWORD PTR tv9248[ebp], edx
  00a6c	8b 55 0c	 mov	 edx, DWORD PTR _r$[ebp]
  00a6f	0f b6 14 1a	 movzx	 edx, BYTE PTR [edx+ebx]
  00a73	c1 fa 07	 sar	 edx, 7
  00a76	83 e2 01	 and	 edx, 1
  00a79	6b d2 1b	 imul	 edx, 27			; 0000001bH
  00a7c	33 fa		 xor	 edi, edx
  00a7e	c1 ff 07	 sar	 edi, 7
  00a81	83 e7 01	 and	 edi, 1
  00a84	6b ff 1b	 imul	 edi, 27			; 0000001bH
  00a87	33 f7		 xor	 esi, edi
  00a89	c1 fe 07	 sar	 esi, 7
  00a8c	83 e6 01	 and	 esi, 1
  00a8f	6b f6 1b	 imul	 esi, 27			; 0000001bH
  00a92	33 ce		 xor	 ecx, esi
  00a94	c1 f9 07	 sar	 ecx, 7
  00a97	83 e1 01	 and	 ecx, 1
  00a9a	6b c9 1b	 imul	 ecx, 27			; 0000001bH
  00a9d	33 c1		 xor	 eax, ecx
  00a9f	d1 e0		 shl	 eax, 1
  00aa1	0f b6 4d bf	 movzx	 ecx, BYTE PTR _c$[ebp]
  00aa5	8b 55 0c	 mov	 edx, DWORD PTR _r$[ebp]
  00aa8	0f b6 0c 0a	 movzx	 ecx, BYTE PTR [edx+ecx]
  00aac	d1 e1		 shl	 ecx, 1
  00aae	0f b6 55 bf	 movzx	 edx, BYTE PTR _c$[ebp]
  00ab2	8b 75 0c	 mov	 esi, DWORD PTR _r$[ebp]
  00ab5	0f b6 14 16	 movzx	 edx, BYTE PTR [esi+edx]
  00ab9	c1 fa 07	 sar	 edx, 7
  00abc	83 e2 01	 and	 edx, 1
  00abf	6b d2 1b	 imul	 edx, 27			; 0000001bH
  00ac2	33 ca		 xor	 ecx, edx
  00ac4	d1 e1		 shl	 ecx, 1
  00ac6	0f b6 55 bf	 movzx	 edx, BYTE PTR _c$[ebp]
  00aca	8b 75 0c	 mov	 esi, DWORD PTR _r$[ebp]
  00acd	0f b6 14 16	 movzx	 edx, BYTE PTR [esi+edx]
  00ad1	d1 e2		 shl	 edx, 1
  00ad3	0f b6 75 bf	 movzx	 esi, BYTE PTR _c$[ebp]
  00ad7	8b 7d 0c	 mov	 edi, DWORD PTR _r$[ebp]
  00ada	0f b6 34 37	 movzx	 esi, BYTE PTR [edi+esi]
  00ade	c1 fe 07	 sar	 esi, 7
  00ae1	83 e6 01	 and	 esi, 1
  00ae4	6b f6 1b	 imul	 esi, 27			; 0000001bH
  00ae7	33 d6		 xor	 edx, esi
  00ae9	c1 fa 07	 sar	 edx, 7
  00aec	83 e2 01	 and	 edx, 1
  00aef	6b d2 1b	 imul	 edx, 27			; 0000001bH
  00af2	33 ca		 xor	 ecx, edx
  00af4	d1 e1		 shl	 ecx, 1
  00af6	0f b6 55 bf	 movzx	 edx, BYTE PTR _c$[ebp]
  00afa	8b 75 0c	 mov	 esi, DWORD PTR _r$[ebp]
  00afd	0f b6 14 16	 movzx	 edx, BYTE PTR [esi+edx]
  00b01	d1 e2		 shl	 edx, 1
  00b03	0f b6 75 bf	 movzx	 esi, BYTE PTR _c$[ebp]
  00b07	8b 7d 0c	 mov	 edi, DWORD PTR _r$[ebp]
  00b0a	0f b6 34 37	 movzx	 esi, BYTE PTR [edi+esi]
  00b0e	c1 fe 07	 sar	 esi, 7
  00b11	83 e6 01	 and	 esi, 1
  00b14	6b f6 1b	 imul	 esi, 27			; 0000001bH
  00b17	33 d6		 xor	 edx, esi
  00b19	d1 e2		 shl	 edx, 1
  00b1b	0f b6 75 bf	 movzx	 esi, BYTE PTR _c$[ebp]
  00b1f	8b 7d 0c	 mov	 edi, DWORD PTR _r$[ebp]
  00b22	0f b6 34 37	 movzx	 esi, BYTE PTR [edi+esi]
  00b26	d1 e6		 shl	 esi, 1
  00b28	0f b6 7d bf	 movzx	 edi, BYTE PTR _c$[ebp]
  00b2c	8b 5d 0c	 mov	 ebx, DWORD PTR _r$[ebp]
  00b2f	0f b6 3c 3b	 movzx	 edi, BYTE PTR [ebx+edi]
  00b33	c1 ff 07	 sar	 edi, 7
  00b36	83 e7 01	 and	 edi, 1
  00b39	6b ff 1b	 imul	 edi, 27			; 0000001bH
  00b3c	33 f7		 xor	 esi, edi
  00b3e	c1 fe 07	 sar	 esi, 7
  00b41	83 e6 01	 and	 esi, 1
  00b44	6b f6 1b	 imul	 esi, 27			; 0000001bH
  00b47	33 d6		 xor	 edx, esi
  00b49	c1 fa 07	 sar	 edx, 7
  00b4c	83 e2 01	 and	 edx, 1
  00b4f	6b d2 1b	 imul	 edx, 27			; 0000001bH
  00b52	33 ca		 xor	 ecx, edx
  00b54	d1 e1		 shl	 ecx, 1
  00b56	0f b6 55 bf	 movzx	 edx, BYTE PTR _c$[ebp]
  00b5a	8b 75 0c	 mov	 esi, DWORD PTR _r$[ebp]
  00b5d	0f b6 14 16	 movzx	 edx, BYTE PTR [esi+edx]
  00b61	d1 e2		 shl	 edx, 1
  00b63	0f b6 75 bf	 movzx	 esi, BYTE PTR _c$[ebp]
  00b67	8b 7d 0c	 mov	 edi, DWORD PTR _r$[ebp]
  00b6a	0f b6 34 37	 movzx	 esi, BYTE PTR [edi+esi]
  00b6e	c1 fe 07	 sar	 esi, 7
  00b71	83 e6 01	 and	 esi, 1
  00b74	6b f6 1b	 imul	 esi, 27			; 0000001bH
  00b77	33 d6		 xor	 edx, esi
  00b79	d1 e2		 shl	 edx, 1
  00b7b	0f b6 75 bf	 movzx	 esi, BYTE PTR _c$[ebp]
  00b7f	8b 7d 0c	 mov	 edi, DWORD PTR _r$[ebp]
  00b82	0f b6 34 37	 movzx	 esi, BYTE PTR [edi+esi]
  00b86	d1 e6		 shl	 esi, 1
  00b88	0f b6 7d bf	 movzx	 edi, BYTE PTR _c$[ebp]
  00b8c	8b 5d 0c	 mov	 ebx, DWORD PTR _r$[ebp]
  00b8f	0f b6 3c 3b	 movzx	 edi, BYTE PTR [ebx+edi]
  00b93	c1 ff 07	 sar	 edi, 7
  00b96	83 e7 01	 and	 edi, 1
  00b99	6b ff 1b	 imul	 edi, 27			; 0000001bH
  00b9c	33 f7		 xor	 esi, edi
  00b9e	c1 fe 07	 sar	 esi, 7
  00ba1	83 e6 01	 and	 esi, 1
  00ba4	6b f6 1b	 imul	 esi, 27			; 0000001bH
  00ba7	33 d6		 xor	 edx, esi
  00ba9	d1 e2		 shl	 edx, 1
  00bab	0f b6 75 bf	 movzx	 esi, BYTE PTR _c$[ebp]
  00baf	8b 7d 0c	 mov	 edi, DWORD PTR _r$[ebp]
  00bb2	0f b6 34 37	 movzx	 esi, BYTE PTR [edi+esi]
  00bb6	d1 e6		 shl	 esi, 1
  00bb8	0f b6 7d bf	 movzx	 edi, BYTE PTR _c$[ebp]
  00bbc	8b 5d 0c	 mov	 ebx, DWORD PTR _r$[ebp]
  00bbf	0f b6 3c 3b	 movzx	 edi, BYTE PTR [ebx+edi]
  00bc3	c1 ff 07	 sar	 edi, 7
  00bc6	83 e7 01	 and	 edi, 1
  00bc9	6b ff 1b	 imul	 edi, 27			; 0000001bH
  00bcc	33 f7		 xor	 esi, edi
  00bce	d1 e6		 shl	 esi, 1
  00bd0	0f b6 7d bf	 movzx	 edi, BYTE PTR _c$[ebp]
  00bd4	8b 5d 0c	 mov	 ebx, DWORD PTR _r$[ebp]
  00bd7	0f b6 3c 3b	 movzx	 edi, BYTE PTR [ebx+edi]
  00bdb	d1 e7		 shl	 edi, 1
  00bdd	0f b6 5d bf	 movzx	 ebx, BYTE PTR _c$[ebp]
  00be1	89 85 dc fe ff
	ff		 mov	 DWORD PTR tv9250[ebp], eax
  00be7	8b 45 0c	 mov	 eax, DWORD PTR _r$[ebp]
  00bea	0f b6 04 18	 movzx	 eax, BYTE PTR [eax+ebx]
  00bee	c1 f8 07	 sar	 eax, 7
  00bf1	83 e0 01	 and	 eax, 1
  00bf4	6b c0 1b	 imul	 eax, 27			; 0000001bH
  00bf7	33 f8		 xor	 edi, eax
  00bf9	c1 ff 07	 sar	 edi, 7
  00bfc	83 e7 01	 and	 edi, 1
  00bff	6b ff 1b	 imul	 edi, 27			; 0000001bH
  00c02	33 f7		 xor	 esi, edi
  00c04	c1 fe 07	 sar	 esi, 7
  00c07	83 e6 01	 and	 esi, 1
  00c0a	6b f6 1b	 imul	 esi, 27			; 0000001bH
  00c0d	33 d6		 xor	 edx, esi
  00c0f	c1 fa 07	 sar	 edx, 7
  00c12	83 e2 01	 and	 edx, 1
  00c15	6b d2 1b	 imul	 edx, 27			; 0000001bH
  00c18	33 ca		 xor	 ecx, edx
  00c1a	c1 f9 07	 sar	 ecx, 7
  00c1d	83 e1 01	 and	 ecx, 1
  00c20	6b c9 1b	 imul	 ecx, 27			; 0000001bH
  00c23	8b 95 dc fe ff
	ff		 mov	 edx, DWORD PTR tv9250[ebp]
  00c29	33 d1		 xor	 edx, ecx
  00c2b	c1 fa 07	 sar	 edx, 7
  00c2e	83 e2 01	 and	 edx, 1
  00c31	6b d2 1b	 imul	 edx, 27			; 0000001bH
  00c34	8b 85 e0 fe ff
	ff		 mov	 eax, DWORD PTR tv9248[ebp]
  00c3a	33 c2		 xor	 eax, edx
  00c3c	6b c0 00	 imul	 eax, 0
  00c3f	8b 8d e8 fe ff
	ff		 mov	 ecx, DWORD PTR tv9244[ebp]
  00c45	33 c8		 xor	 ecx, eax
  00c47	0f b6 55 bf	 movzx	 edx, BYTE PTR _c$[ebp]
  00c4b	8b 45 0c	 mov	 eax, DWORD PTR _r$[ebp]
  00c4e	0f b6 14 10	 movzx	 edx, BYTE PTR [eax+edx]
  00c52	d1 e2		 shl	 edx, 1
  00c54	0f b6 45 bf	 movzx	 eax, BYTE PTR _c$[ebp]
  00c58	8b 75 0c	 mov	 esi, DWORD PTR _r$[ebp]
  00c5b	0f b6 04 06	 movzx	 eax, BYTE PTR [esi+eax]
  00c5f	c1 f8 07	 sar	 eax, 7
  00c62	83 e0 01	 and	 eax, 1
  00c65	6b c0 1b	 imul	 eax, 27			; 0000001bH
  00c68	33 d0		 xor	 edx, eax
  00c6a	d1 e2		 shl	 edx, 1
  00c6c	0f b6 45 bf	 movzx	 eax, BYTE PTR _c$[ebp]
  00c70	8b 75 0c	 mov	 esi, DWORD PTR _r$[ebp]
  00c73	0f b6 04 06	 movzx	 eax, BYTE PTR [esi+eax]
  00c77	d1 e0		 shl	 eax, 1
  00c79	0f b6 75 bf	 movzx	 esi, BYTE PTR _c$[ebp]
  00c7d	8b 7d 0c	 mov	 edi, DWORD PTR _r$[ebp]
  00c80	0f b6 34 37	 movzx	 esi, BYTE PTR [edi+esi]
  00c84	c1 fe 07	 sar	 esi, 7
  00c87	83 e6 01	 and	 esi, 1
  00c8a	6b f6 1b	 imul	 esi, 27			; 0000001bH
  00c8d	33 c6		 xor	 eax, esi
  00c8f	c1 f8 07	 sar	 eax, 7
  00c92	83 e0 01	 and	 eax, 1
  00c95	6b c0 1b	 imul	 eax, 27			; 0000001bH
  00c98	33 d0		 xor	 edx, eax
  00c9a	d1 e2		 shl	 edx, 1
  00c9c	0f b6 45 bf	 movzx	 eax, BYTE PTR _c$[ebp]
  00ca0	8b 75 0c	 mov	 esi, DWORD PTR _r$[ebp]
  00ca3	0f b6 04 06	 movzx	 eax, BYTE PTR [esi+eax]
  00ca7	d1 e0		 shl	 eax, 1
  00ca9	0f b6 75 bf	 movzx	 esi, BYTE PTR _c$[ebp]
  00cad	8b 7d 0c	 mov	 edi, DWORD PTR _r$[ebp]
  00cb0	0f b6 34 37	 movzx	 esi, BYTE PTR [edi+esi]
  00cb4	c1 fe 07	 sar	 esi, 7
  00cb7	83 e6 01	 and	 esi, 1
  00cba	6b f6 1b	 imul	 esi, 27			; 0000001bH
  00cbd	33 c6		 xor	 eax, esi
  00cbf	d1 e0		 shl	 eax, 1
  00cc1	0f b6 75 bf	 movzx	 esi, BYTE PTR _c$[ebp]
  00cc5	8b 7d 0c	 mov	 edi, DWORD PTR _r$[ebp]
  00cc8	0f b6 34 37	 movzx	 esi, BYTE PTR [edi+esi]
  00ccc	d1 e6		 shl	 esi, 1
  00cce	0f b6 7d bf	 movzx	 edi, BYTE PTR _c$[ebp]
  00cd2	8b 5d 0c	 mov	 ebx, DWORD PTR _r$[ebp]
  00cd5	0f b6 3c 3b	 movzx	 edi, BYTE PTR [ebx+edi]
  00cd9	c1 ff 07	 sar	 edi, 7
  00cdc	83 e7 01	 and	 edi, 1
  00cdf	6b ff 1b	 imul	 edi, 27			; 0000001bH
  00ce2	33 f7		 xor	 esi, edi
  00ce4	c1 fe 07	 sar	 esi, 7
  00ce7	83 e6 01	 and	 esi, 1
  00cea	6b f6 1b	 imul	 esi, 27			; 0000001bH
  00ced	33 c6		 xor	 eax, esi
  00cef	c1 f8 07	 sar	 eax, 7
  00cf2	83 e0 01	 and	 eax, 1
  00cf5	6b c0 1b	 imul	 eax, 27			; 0000001bH
  00cf8	33 d0		 xor	 edx, eax
  00cfa	d1 e2		 shl	 edx, 1
  00cfc	0f b6 45 bf	 movzx	 eax, BYTE PTR _c$[ebp]
  00d00	8b 75 0c	 mov	 esi, DWORD PTR _r$[ebp]
  00d03	0f b6 04 06	 movzx	 eax, BYTE PTR [esi+eax]
  00d07	d1 e0		 shl	 eax, 1
  00d09	0f b6 75 bf	 movzx	 esi, BYTE PTR _c$[ebp]
  00d0d	8b 7d 0c	 mov	 edi, DWORD PTR _r$[ebp]
  00d10	0f b6 34 37	 movzx	 esi, BYTE PTR [edi+esi]
  00d14	c1 fe 07	 sar	 esi, 7
  00d17	83 e6 01	 and	 esi, 1
  00d1a	6b f6 1b	 imul	 esi, 27			; 0000001bH
  00d1d	33 c6		 xor	 eax, esi
  00d1f	d1 e0		 shl	 eax, 1
  00d21	0f b6 75 bf	 movzx	 esi, BYTE PTR _c$[ebp]
  00d25	8b 7d 0c	 mov	 edi, DWORD PTR _r$[ebp]
  00d28	0f b6 34 37	 movzx	 esi, BYTE PTR [edi+esi]
  00d2c	d1 e6		 shl	 esi, 1
  00d2e	0f b6 7d bf	 movzx	 edi, BYTE PTR _c$[ebp]
  00d32	8b 5d 0c	 mov	 ebx, DWORD PTR _r$[ebp]
  00d35	0f b6 3c 3b	 movzx	 edi, BYTE PTR [ebx+edi]
  00d39	c1 ff 07	 sar	 edi, 7
  00d3c	83 e7 01	 and	 edi, 1
  00d3f	6b ff 1b	 imul	 edi, 27			; 0000001bH
  00d42	33 f7		 xor	 esi, edi
  00d44	c1 fe 07	 sar	 esi, 7
  00d47	83 e6 01	 and	 esi, 1
  00d4a	6b f6 1b	 imul	 esi, 27			; 0000001bH
  00d4d	33 c6		 xor	 eax, esi
  00d4f	d1 e0		 shl	 eax, 1
  00d51	0f b6 75 bf	 movzx	 esi, BYTE PTR _c$[ebp]
  00d55	8b 7d 0c	 mov	 edi, DWORD PTR _r$[ebp]
  00d58	0f b6 34 37	 movzx	 esi, BYTE PTR [edi+esi]
  00d5c	d1 e6		 shl	 esi, 1
  00d5e	0f b6 7d bf	 movzx	 edi, BYTE PTR _c$[ebp]
  00d62	8b 5d 0c	 mov	 ebx, DWORD PTR _r$[ebp]
  00d65	0f b6 3c 3b	 movzx	 edi, BYTE PTR [ebx+edi]
  00d69	c1 ff 07	 sar	 edi, 7
  00d6c	83 e7 01	 and	 edi, 1
  00d6f	6b ff 1b	 imul	 edi, 27			; 0000001bH
  00d72	33 f7		 xor	 esi, edi
  00d74	d1 e6		 shl	 esi, 1
  00d76	0f b6 7d bf	 movzx	 edi, BYTE PTR _c$[ebp]
  00d7a	8b 5d 0c	 mov	 ebx, DWORD PTR _r$[ebp]
  00d7d	0f b6 3c 3b	 movzx	 edi, BYTE PTR [ebx+edi]
  00d81	d1 e7		 shl	 edi, 1
  00d83	0f b6 5d bf	 movzx	 ebx, BYTE PTR _c$[ebp]
  00d87	89 8d d8 fe ff
	ff		 mov	 DWORD PTR tv9252[ebp], ecx
  00d8d	8b 4d 0c	 mov	 ecx, DWORD PTR _r$[ebp]
  00d90	0f b6 0c 19	 movzx	 ecx, BYTE PTR [ecx+ebx]
  00d94	c1 f9 07	 sar	 ecx, 7
  00d97	83 e1 01	 and	 ecx, 1
  00d9a	6b c9 1b	 imul	 ecx, 27			; 0000001bH
  00d9d	33 f9		 xor	 edi, ecx
  00d9f	c1 ff 07	 sar	 edi, 7
  00da2	83 e7 01	 and	 edi, 1
  00da5	6b ff 1b	 imul	 edi, 27			; 0000001bH
  00da8	33 f7		 xor	 esi, edi
  00daa	c1 fe 07	 sar	 esi, 7
  00dad	83 e6 01	 and	 esi, 1
  00db0	6b f6 1b	 imul	 esi, 27			; 0000001bH
  00db3	33 c6		 xor	 eax, esi
  00db5	c1 f8 07	 sar	 eax, 7
  00db8	83 e0 01	 and	 eax, 1
  00dbb	6b c0 1b	 imul	 eax, 27			; 0000001bH
  00dbe	33 d0		 xor	 edx, eax
  00dc0	d1 e2		 shl	 edx, 1
  00dc2	0f b6 45 bf	 movzx	 eax, BYTE PTR _c$[ebp]
  00dc6	8b 4d 0c	 mov	 ecx, DWORD PTR _r$[ebp]
  00dc9	0f b6 04 01	 movzx	 eax, BYTE PTR [ecx+eax]
  00dcd	d1 e0		 shl	 eax, 1
  00dcf	0f b6 4d bf	 movzx	 ecx, BYTE PTR _c$[ebp]
  00dd3	8b 75 0c	 mov	 esi, DWORD PTR _r$[ebp]
  00dd6	0f b6 0c 0e	 movzx	 ecx, BYTE PTR [esi+ecx]
  00dda	c1 f9 07	 sar	 ecx, 7
  00ddd	83 e1 01	 and	 ecx, 1
  00de0	6b c9 1b	 imul	 ecx, 27			; 0000001bH
  00de3	33 c1		 xor	 eax, ecx
  00de5	d1 e0		 shl	 eax, 1
  00de7	0f b6 4d bf	 movzx	 ecx, BYTE PTR _c$[ebp]
  00deb	8b 75 0c	 mov	 esi, DWORD PTR _r$[ebp]
  00dee	0f b6 0c 0e	 movzx	 ecx, BYTE PTR [esi+ecx]
  00df2	d1 e1		 shl	 ecx, 1
  00df4	0f b6 75 bf	 movzx	 esi, BYTE PTR _c$[ebp]
  00df8	8b 7d 0c	 mov	 edi, DWORD PTR _r$[ebp]
  00dfb	0f b6 34 37	 movzx	 esi, BYTE PTR [edi+esi]
  00dff	c1 fe 07	 sar	 esi, 7
  00e02	83 e6 01	 and	 esi, 1
  00e05	6b f6 1b	 imul	 esi, 27			; 0000001bH
  00e08	33 ce		 xor	 ecx, esi
  00e0a	c1 f9 07	 sar	 ecx, 7
  00e0d	83 e1 01	 and	 ecx, 1
  00e10	6b c9 1b	 imul	 ecx, 27			; 0000001bH
  00e13	33 c1		 xor	 eax, ecx
  00e15	d1 e0		 shl	 eax, 1
  00e17	0f b6 4d bf	 movzx	 ecx, BYTE PTR _c$[ebp]
  00e1b	8b 75 0c	 mov	 esi, DWORD PTR _r$[ebp]
  00e1e	0f b6 0c 0e	 movzx	 ecx, BYTE PTR [esi+ecx]
  00e22	d1 e1		 shl	 ecx, 1
  00e24	0f b6 75 bf	 movzx	 esi, BYTE PTR _c$[ebp]
  00e28	8b 7d 0c	 mov	 edi, DWORD PTR _r$[ebp]
  00e2b	0f b6 34 37	 movzx	 esi, BYTE PTR [edi+esi]
  00e2f	c1 fe 07	 sar	 esi, 7
  00e32	83 e6 01	 and	 esi, 1
  00e35	6b f6 1b	 imul	 esi, 27			; 0000001bH
  00e38	33 ce		 xor	 ecx, esi
  00e3a	d1 e1		 shl	 ecx, 1
  00e3c	0f b6 75 bf	 movzx	 esi, BYTE PTR _c$[ebp]
  00e40	8b 7d 0c	 mov	 edi, DWORD PTR _r$[ebp]
  00e43	0f b6 34 37	 movzx	 esi, BYTE PTR [edi+esi]
  00e47	d1 e6		 shl	 esi, 1
  00e49	0f b6 7d bf	 movzx	 edi, BYTE PTR _c$[ebp]
  00e4d	8b 5d 0c	 mov	 ebx, DWORD PTR _r$[ebp]
  00e50	0f b6 3c 3b	 movzx	 edi, BYTE PTR [ebx+edi]
  00e54	c1 ff 07	 sar	 edi, 7
  00e57	83 e7 01	 and	 edi, 1
  00e5a	6b ff 1b	 imul	 edi, 27			; 0000001bH
  00e5d	33 f7		 xor	 esi, edi
  00e5f	c1 fe 07	 sar	 esi, 7
  00e62	83 e6 01	 and	 esi, 1
  00e65	6b f6 1b	 imul	 esi, 27			; 0000001bH
  00e68	33 ce		 xor	 ecx, esi
  00e6a	c1 f9 07	 sar	 ecx, 7
  00e6d	83 e1 01	 and	 ecx, 1
  00e70	6b c9 1b	 imul	 ecx, 27			; 0000001bH
  00e73	33 c1		 xor	 eax, ecx
  00e75	d1 e0		 shl	 eax, 1
  00e77	0f b6 4d bf	 movzx	 ecx, BYTE PTR _c$[ebp]
  00e7b	8b 75 0c	 mov	 esi, DWORD PTR _r$[ebp]
  00e7e	0f b6 0c 0e	 movzx	 ecx, BYTE PTR [esi+ecx]
  00e82	d1 e1		 shl	 ecx, 1
  00e84	0f b6 75 bf	 movzx	 esi, BYTE PTR _c$[ebp]
  00e88	8b 7d 0c	 mov	 edi, DWORD PTR _r$[ebp]
  00e8b	0f b6 34 37	 movzx	 esi, BYTE PTR [edi+esi]
  00e8f	c1 fe 07	 sar	 esi, 7
  00e92	83 e6 01	 and	 esi, 1
  00e95	6b f6 1b	 imul	 esi, 27			; 0000001bH
  00e98	33 ce		 xor	 ecx, esi
  00e9a	d1 e1		 shl	 ecx, 1
  00e9c	0f b6 75 bf	 movzx	 esi, BYTE PTR _c$[ebp]
  00ea0	8b 7d 0c	 mov	 edi, DWORD PTR _r$[ebp]
  00ea3	0f b6 34 37	 movzx	 esi, BYTE PTR [edi+esi]
  00ea7	d1 e6		 shl	 esi, 1
  00ea9	0f b6 7d bf	 movzx	 edi, BYTE PTR _c$[ebp]
  00ead	8b 5d 0c	 mov	 ebx, DWORD PTR _r$[ebp]
  00eb0	0f b6 3c 3b	 movzx	 edi, BYTE PTR [ebx+edi]
  00eb4	c1 ff 07	 sar	 edi, 7
  00eb7	83 e7 01	 and	 edi, 1
  00eba	6b ff 1b	 imul	 edi, 27			; 0000001bH
  00ebd	33 f7		 xor	 esi, edi
  00ebf	c1 fe 07	 sar	 esi, 7
  00ec2	83 e6 01	 and	 esi, 1
  00ec5	6b f6 1b	 imul	 esi, 27			; 0000001bH
  00ec8	33 ce		 xor	 ecx, esi
  00eca	d1 e1		 shl	 ecx, 1
  00ecc	0f b6 75 bf	 movzx	 esi, BYTE PTR _c$[ebp]
  00ed0	8b 7d 0c	 mov	 edi, DWORD PTR _r$[ebp]
  00ed3	0f b6 34 37	 movzx	 esi, BYTE PTR [edi+esi]
  00ed7	d1 e6		 shl	 esi, 1
  00ed9	0f b6 7d bf	 movzx	 edi, BYTE PTR _c$[ebp]
  00edd	8b 5d 0c	 mov	 ebx, DWORD PTR _r$[ebp]
  00ee0	0f b6 3c 3b	 movzx	 edi, BYTE PTR [ebx+edi]
  00ee4	c1 ff 07	 sar	 edi, 7
  00ee7	83 e7 01	 and	 edi, 1
  00eea	6b ff 1b	 imul	 edi, 27			; 0000001bH
  00eed	33 f7		 xor	 esi, edi
  00eef	d1 e6		 shl	 esi, 1
  00ef1	0f b6 7d bf	 movzx	 edi, BYTE PTR _c$[ebp]
  00ef5	8b 5d 0c	 mov	 ebx, DWORD PTR _r$[ebp]
  00ef8	0f b6 3c 3b	 movzx	 edi, BYTE PTR [ebx+edi]
  00efc	d1 e7		 shl	 edi, 1
  00efe	0f b6 5d bf	 movzx	 ebx, BYTE PTR _c$[ebp]
  00f02	89 95 d4 fe ff
	ff		 mov	 DWORD PTR tv9254[ebp], edx
  00f08	8b 55 0c	 mov	 edx, DWORD PTR _r$[ebp]
  00f0b	0f b6 14 1a	 movzx	 edx, BYTE PTR [edx+ebx]
  00f0f	c1 fa 07	 sar	 edx, 7
  00f12	83 e2 01	 and	 edx, 1
  00f15	6b d2 1b	 imul	 edx, 27			; 0000001bH
  00f18	33 fa		 xor	 edi, edx
  00f1a	c1 ff 07	 sar	 edi, 7
  00f1d	83 e7 01	 and	 edi, 1
  00f20	6b ff 1b	 imul	 edi, 27			; 0000001bH
  00f23	33 f7		 xor	 esi, edi
  00f25	c1 fe 07	 sar	 esi, 7
  00f28	83 e6 01	 and	 esi, 1
  00f2b	6b f6 1b	 imul	 esi, 27			; 0000001bH
  00f2e	33 ce		 xor	 ecx, esi
  00f30	c1 f9 07	 sar	 ecx, 7
  00f33	83 e1 01	 and	 ecx, 1
  00f36	6b c9 1b	 imul	 ecx, 27			; 0000001bH
  00f39	33 c1		 xor	 eax, ecx
  00f3b	c1 f8 07	 sar	 eax, 7
  00f3e	83 e0 01	 and	 eax, 1
  00f41	6b c0 1b	 imul	 eax, 27			; 0000001bH
  00f44	8b 8d d4 fe ff
	ff		 mov	 ecx, DWORD PTR tv9254[ebp]
  00f4a	33 c8		 xor	 ecx, eax
  00f4c	d1 e1		 shl	 ecx, 1
  00f4e	0f b6 55 bf	 movzx	 edx, BYTE PTR _c$[ebp]
  00f52	8b 45 0c	 mov	 eax, DWORD PTR _r$[ebp]
  00f55	0f b6 14 10	 movzx	 edx, BYTE PTR [eax+edx]
  00f59	d1 e2		 shl	 edx, 1
  00f5b	0f b6 45 bf	 movzx	 eax, BYTE PTR _c$[ebp]
  00f5f	8b 75 0c	 mov	 esi, DWORD PTR _r$[ebp]
  00f62	0f b6 04 06	 movzx	 eax, BYTE PTR [esi+eax]
  00f66	c1 f8 07	 sar	 eax, 7
  00f69	83 e0 01	 and	 eax, 1
  00f6c	6b c0 1b	 imul	 eax, 27			; 0000001bH
  00f6f	33 d0		 xor	 edx, eax
  00f71	d1 e2		 shl	 edx, 1
  00f73	0f b6 45 bf	 movzx	 eax, BYTE PTR _c$[ebp]
  00f77	8b 75 0c	 mov	 esi, DWORD PTR _r$[ebp]
  00f7a	0f b6 04 06	 movzx	 eax, BYTE PTR [esi+eax]
  00f7e	d1 e0		 shl	 eax, 1
  00f80	0f b6 75 bf	 movzx	 esi, BYTE PTR _c$[ebp]
  00f84	8b 7d 0c	 mov	 edi, DWORD PTR _r$[ebp]
  00f87	0f b6 34 37	 movzx	 esi, BYTE PTR [edi+esi]
  00f8b	c1 fe 07	 sar	 esi, 7
  00f8e	83 e6 01	 and	 esi, 1
  00f91	6b f6 1b	 imul	 esi, 27			; 0000001bH
  00f94	33 c6		 xor	 eax, esi
  00f96	c1 f8 07	 sar	 eax, 7
  00f99	83 e0 01	 and	 eax, 1
  00f9c	6b c0 1b	 imul	 eax, 27			; 0000001bH
  00f9f	33 d0		 xor	 edx, eax
  00fa1	d1 e2		 shl	 edx, 1
  00fa3	0f b6 45 bf	 movzx	 eax, BYTE PTR _c$[ebp]
  00fa7	8b 75 0c	 mov	 esi, DWORD PTR _r$[ebp]
  00faa	0f b6 04 06	 movzx	 eax, BYTE PTR [esi+eax]
  00fae	d1 e0		 shl	 eax, 1
  00fb0	0f b6 75 bf	 movzx	 esi, BYTE PTR _c$[ebp]
  00fb4	8b 7d 0c	 mov	 edi, DWORD PTR _r$[ebp]
  00fb7	0f b6 34 37	 movzx	 esi, BYTE PTR [edi+esi]
  00fbb	c1 fe 07	 sar	 esi, 7
  00fbe	83 e6 01	 and	 esi, 1
  00fc1	6b f6 1b	 imul	 esi, 27			; 0000001bH
  00fc4	33 c6		 xor	 eax, esi
  00fc6	d1 e0		 shl	 eax, 1
  00fc8	0f b6 75 bf	 movzx	 esi, BYTE PTR _c$[ebp]
  00fcc	8b 7d 0c	 mov	 edi, DWORD PTR _r$[ebp]
  00fcf	0f b6 34 37	 movzx	 esi, BYTE PTR [edi+esi]
  00fd3	d1 e6		 shl	 esi, 1
  00fd5	0f b6 7d bf	 movzx	 edi, BYTE PTR _c$[ebp]
  00fd9	8b 5d 0c	 mov	 ebx, DWORD PTR _r$[ebp]
  00fdc	0f b6 3c 3b	 movzx	 edi, BYTE PTR [ebx+edi]
  00fe0	c1 ff 07	 sar	 edi, 7
  00fe3	83 e7 01	 and	 edi, 1
  00fe6	6b ff 1b	 imul	 edi, 27			; 0000001bH
  00fe9	33 f7		 xor	 esi, edi
  00feb	c1 fe 07	 sar	 esi, 7
  00fee	83 e6 01	 and	 esi, 1
  00ff1	6b f6 1b	 imul	 esi, 27			; 0000001bH
  00ff4	33 c6		 xor	 eax, esi
  00ff6	c1 f8 07	 sar	 eax, 7
  00ff9	83 e0 01	 and	 eax, 1
  00ffc	6b c0 1b	 imul	 eax, 27			; 0000001bH
  00fff	33 d0		 xor	 edx, eax
  01001	d1 e2		 shl	 edx, 1
  01003	0f b6 45 bf	 movzx	 eax, BYTE PTR _c$[ebp]
  01007	8b 75 0c	 mov	 esi, DWORD PTR _r$[ebp]
  0100a	0f b6 04 06	 movzx	 eax, BYTE PTR [esi+eax]
  0100e	d1 e0		 shl	 eax, 1
  01010	0f b6 75 bf	 movzx	 esi, BYTE PTR _c$[ebp]
  01014	8b 7d 0c	 mov	 edi, DWORD PTR _r$[ebp]
  01017	0f b6 34 37	 movzx	 esi, BYTE PTR [edi+esi]
  0101b	c1 fe 07	 sar	 esi, 7
  0101e	83 e6 01	 and	 esi, 1
  01021	6b f6 1b	 imul	 esi, 27			; 0000001bH
  01024	33 c6		 xor	 eax, esi
  01026	d1 e0		 shl	 eax, 1
  01028	0f b6 75 bf	 movzx	 esi, BYTE PTR _c$[ebp]
  0102c	8b 7d 0c	 mov	 edi, DWORD PTR _r$[ebp]
  0102f	0f b6 34 37	 movzx	 esi, BYTE PTR [edi+esi]
  01033	d1 e6		 shl	 esi, 1
  01035	0f b6 7d bf	 movzx	 edi, BYTE PTR _c$[ebp]
  01039	8b 5d 0c	 mov	 ebx, DWORD PTR _r$[ebp]
  0103c	0f b6 3c 3b	 movzx	 edi, BYTE PTR [ebx+edi]
  01040	c1 ff 07	 sar	 edi, 7
  01043	83 e7 01	 and	 edi, 1
  01046	6b ff 1b	 imul	 edi, 27			; 0000001bH
  01049	33 f7		 xor	 esi, edi
  0104b	c1 fe 07	 sar	 esi, 7
  0104e	83 e6 01	 and	 esi, 1
  01051	6b f6 1b	 imul	 esi, 27			; 0000001bH
  01054	33 c6		 xor	 eax, esi
  01056	d1 e0		 shl	 eax, 1
  01058	0f b6 75 bf	 movzx	 esi, BYTE PTR _c$[ebp]
  0105c	8b 7d 0c	 mov	 edi, DWORD PTR _r$[ebp]
  0105f	0f b6 34 37	 movzx	 esi, BYTE PTR [edi+esi]
  01063	d1 e6		 shl	 esi, 1
  01065	0f b6 7d bf	 movzx	 edi, BYTE PTR _c$[ebp]
  01069	8b 5d 0c	 mov	 ebx, DWORD PTR _r$[ebp]
  0106c	0f b6 3c 3b	 movzx	 edi, BYTE PTR [ebx+edi]
  01070	c1 ff 07	 sar	 edi, 7
  01073	83 e7 01	 and	 edi, 1
  01076	6b ff 1b	 imul	 edi, 27			; 0000001bH
  01079	33 f7		 xor	 esi, edi
  0107b	d1 e6		 shl	 esi, 1
  0107d	0f b6 7d bf	 movzx	 edi, BYTE PTR _c$[ebp]
  01081	8b 5d 0c	 mov	 ebx, DWORD PTR _r$[ebp]
  01084	0f b6 3c 3b	 movzx	 edi, BYTE PTR [ebx+edi]
  01088	d1 e7		 shl	 edi, 1
  0108a	0f b6 5d bf	 movzx	 ebx, BYTE PTR _c$[ebp]
  0108e	89 8d d0 fe ff
	ff		 mov	 DWORD PTR tv9256[ebp], ecx
  01094	8b 4d 0c	 mov	 ecx, DWORD PTR _r$[ebp]
  01097	0f b6 0c 19	 movzx	 ecx, BYTE PTR [ecx+ebx]
  0109b	c1 f9 07	 sar	 ecx, 7
  0109e	83 e1 01	 and	 ecx, 1
  010a1	6b c9 1b	 imul	 ecx, 27			; 0000001bH
  010a4	33 f9		 xor	 edi, ecx
  010a6	c1 ff 07	 sar	 edi, 7
  010a9	83 e7 01	 and	 edi, 1
  010ac	6b ff 1b	 imul	 edi, 27			; 0000001bH
  010af	33 f7		 xor	 esi, edi
  010b1	c1 fe 07	 sar	 esi, 7
  010b4	83 e6 01	 and	 esi, 1
  010b7	6b f6 1b	 imul	 esi, 27			; 0000001bH
  010ba	33 c6		 xor	 eax, esi
  010bc	c1 f8 07	 sar	 eax, 7
  010bf	83 e0 01	 and	 eax, 1
  010c2	6b c0 1b	 imul	 eax, 27			; 0000001bH
  010c5	33 d0		 xor	 edx, eax
  010c7	d1 e2		 shl	 edx, 1
  010c9	0f b6 45 bf	 movzx	 eax, BYTE PTR _c$[ebp]
  010cd	8b 4d 0c	 mov	 ecx, DWORD PTR _r$[ebp]
  010d0	0f b6 04 01	 movzx	 eax, BYTE PTR [ecx+eax]
  010d4	d1 e0		 shl	 eax, 1
  010d6	0f b6 4d bf	 movzx	 ecx, BYTE PTR _c$[ebp]
  010da	8b 75 0c	 mov	 esi, DWORD PTR _r$[ebp]
  010dd	0f b6 0c 0e	 movzx	 ecx, BYTE PTR [esi+ecx]
  010e1	c1 f9 07	 sar	 ecx, 7
  010e4	83 e1 01	 and	 ecx, 1
  010e7	6b c9 1b	 imul	 ecx, 27			; 0000001bH
  010ea	33 c1		 xor	 eax, ecx
  010ec	d1 e0		 shl	 eax, 1
  010ee	0f b6 4d bf	 movzx	 ecx, BYTE PTR _c$[ebp]
  010f2	8b 75 0c	 mov	 esi, DWORD PTR _r$[ebp]
  010f5	0f b6 0c 0e	 movzx	 ecx, BYTE PTR [esi+ecx]
  010f9	d1 e1		 shl	 ecx, 1
  010fb	0f b6 75 bf	 movzx	 esi, BYTE PTR _c$[ebp]
  010ff	8b 7d 0c	 mov	 edi, DWORD PTR _r$[ebp]
  01102	0f b6 34 37	 movzx	 esi, BYTE PTR [edi+esi]
  01106	c1 fe 07	 sar	 esi, 7
  01109	83 e6 01	 and	 esi, 1
  0110c	6b f6 1b	 imul	 esi, 27			; 0000001bH
  0110f	33 ce		 xor	 ecx, esi
  01111	c1 f9 07	 sar	 ecx, 7
  01114	83 e1 01	 and	 ecx, 1
  01117	6b c9 1b	 imul	 ecx, 27			; 0000001bH
  0111a	33 c1		 xor	 eax, ecx
  0111c	d1 e0		 shl	 eax, 1
  0111e	0f b6 4d bf	 movzx	 ecx, BYTE PTR _c$[ebp]
  01122	8b 75 0c	 mov	 esi, DWORD PTR _r$[ebp]
  01125	0f b6 0c 0e	 movzx	 ecx, BYTE PTR [esi+ecx]
  01129	d1 e1		 shl	 ecx, 1
  0112b	0f b6 75 bf	 movzx	 esi, BYTE PTR _c$[ebp]
  0112f	8b 7d 0c	 mov	 edi, DWORD PTR _r$[ebp]
  01132	0f b6 34 37	 movzx	 esi, BYTE PTR [edi+esi]
  01136	c1 fe 07	 sar	 esi, 7
  01139	83 e6 01	 and	 esi, 1
  0113c	6b f6 1b	 imul	 esi, 27			; 0000001bH
  0113f	33 ce		 xor	 ecx, esi
  01141	d1 e1		 shl	 ecx, 1
  01143	0f b6 75 bf	 movzx	 esi, BYTE PTR _c$[ebp]
  01147	8b 7d 0c	 mov	 edi, DWORD PTR _r$[ebp]
  0114a	0f b6 34 37	 movzx	 esi, BYTE PTR [edi+esi]
  0114e	d1 e6		 shl	 esi, 1
  01150	0f b6 7d bf	 movzx	 edi, BYTE PTR _c$[ebp]
  01154	8b 5d 0c	 mov	 ebx, DWORD PTR _r$[ebp]
  01157	0f b6 3c 3b	 movzx	 edi, BYTE PTR [ebx+edi]
  0115b	c1 ff 07	 sar	 edi, 7
  0115e	83 e7 01	 and	 edi, 1
  01161	6b ff 1b	 imul	 edi, 27			; 0000001bH
  01164	33 f7		 xor	 esi, edi
  01166	c1 fe 07	 sar	 esi, 7
  01169	83 e6 01	 and	 esi, 1
  0116c	6b f6 1b	 imul	 esi, 27			; 0000001bH
  0116f	33 ce		 xor	 ecx, esi
  01171	c1 f9 07	 sar	 ecx, 7
  01174	83 e1 01	 and	 ecx, 1
  01177	6b c9 1b	 imul	 ecx, 27			; 0000001bH
  0117a	33 c1		 xor	 eax, ecx
  0117c	d1 e0		 shl	 eax, 1
  0117e	0f b6 4d bf	 movzx	 ecx, BYTE PTR _c$[ebp]
  01182	8b 75 0c	 mov	 esi, DWORD PTR _r$[ebp]
  01185	0f b6 0c 0e	 movzx	 ecx, BYTE PTR [esi+ecx]
  01189	d1 e1		 shl	 ecx, 1
  0118b	0f b6 75 bf	 movzx	 esi, BYTE PTR _c$[ebp]
  0118f	8b 7d 0c	 mov	 edi, DWORD PTR _r$[ebp]
  01192	0f b6 34 37	 movzx	 esi, BYTE PTR [edi+esi]
  01196	c1 fe 07	 sar	 esi, 7
  01199	83 e6 01	 and	 esi, 1
  0119c	6b f6 1b	 imul	 esi, 27			; 0000001bH
  0119f	33 ce		 xor	 ecx, esi
  011a1	d1 e1		 shl	 ecx, 1
  011a3	0f b6 75 bf	 movzx	 esi, BYTE PTR _c$[ebp]
  011a7	8b 7d 0c	 mov	 edi, DWORD PTR _r$[ebp]
  011aa	0f b6 34 37	 movzx	 esi, BYTE PTR [edi+esi]
  011ae	d1 e6		 shl	 esi, 1
  011b0	0f b6 7d bf	 movzx	 edi, BYTE PTR _c$[ebp]
  011b4	8b 5d 0c	 mov	 ebx, DWORD PTR _r$[ebp]
  011b7	0f b6 3c 3b	 movzx	 edi, BYTE PTR [ebx+edi]
  011bb	c1 ff 07	 sar	 edi, 7
  011be	83 e7 01	 and	 edi, 1
  011c1	6b ff 1b	 imul	 edi, 27			; 0000001bH
  011c4	33 f7		 xor	 esi, edi
  011c6	c1 fe 07	 sar	 esi, 7
  011c9	83 e6 01	 and	 esi, 1
  011cc	6b f6 1b	 imul	 esi, 27			; 0000001bH
  011cf	33 ce		 xor	 ecx, esi
  011d1	d1 e1		 shl	 ecx, 1
  011d3	0f b6 75 bf	 movzx	 esi, BYTE PTR _c$[ebp]
  011d7	8b 7d 0c	 mov	 edi, DWORD PTR _r$[ebp]
  011da	0f b6 34 37	 movzx	 esi, BYTE PTR [edi+esi]
  011de	d1 e6		 shl	 esi, 1
  011e0	0f b6 7d bf	 movzx	 edi, BYTE PTR _c$[ebp]
  011e4	8b 5d 0c	 mov	 ebx, DWORD PTR _r$[ebp]
  011e7	0f b6 3c 3b	 movzx	 edi, BYTE PTR [ebx+edi]
  011eb	c1 ff 07	 sar	 edi, 7
  011ee	83 e7 01	 and	 edi, 1
  011f1	6b ff 1b	 imul	 edi, 27			; 0000001bH
  011f4	33 f7		 xor	 esi, edi
  011f6	d1 e6		 shl	 esi, 1
  011f8	0f b6 7d bf	 movzx	 edi, BYTE PTR _c$[ebp]
  011fc	8b 5d 0c	 mov	 ebx, DWORD PTR _r$[ebp]
  011ff	0f b6 3c 3b	 movzx	 edi, BYTE PTR [ebx+edi]
  01203	d1 e7		 shl	 edi, 1
  01205	0f b6 5d bf	 movzx	 ebx, BYTE PTR _c$[ebp]
  01209	89 95 cc fe ff
	ff		 mov	 DWORD PTR tv9258[ebp], edx
  0120f	8b 55 0c	 mov	 edx, DWORD PTR _r$[ebp]
  01212	0f b6 14 1a	 movzx	 edx, BYTE PTR [edx+ebx]
  01216	c1 fa 07	 sar	 edx, 7
  01219	83 e2 01	 and	 edx, 1
  0121c	6b d2 1b	 imul	 edx, 27			; 0000001bH
  0121f	33 fa		 xor	 edi, edx
  01221	c1 ff 07	 sar	 edi, 7
  01224	83 e7 01	 and	 edi, 1
  01227	6b ff 1b	 imul	 edi, 27			; 0000001bH
  0122a	33 f7		 xor	 esi, edi
  0122c	c1 fe 07	 sar	 esi, 7
  0122f	83 e6 01	 and	 esi, 1
  01232	6b f6 1b	 imul	 esi, 27			; 0000001bH
  01235	33 ce		 xor	 ecx, esi
  01237	c1 f9 07	 sar	 ecx, 7
  0123a	83 e1 01	 and	 ecx, 1
  0123d	6b c9 1b	 imul	 ecx, 27			; 0000001bH
  01240	33 c1		 xor	 eax, ecx
  01242	c1 f8 07	 sar	 eax, 7
  01245	83 e0 01	 and	 eax, 1
  01248	6b c0 1b	 imul	 eax, 27			; 0000001bH
  0124b	8b 8d cc fe ff
	ff		 mov	 ecx, DWORD PTR tv9258[ebp]
  01251	33 c8		 xor	 ecx, eax
  01253	c1 f9 07	 sar	 ecx, 7
  01256	83 e1 01	 and	 ecx, 1
  01259	6b c9 1b	 imul	 ecx, 27			; 0000001bH
  0125c	8b 95 d0 fe ff
	ff		 mov	 edx, DWORD PTR tv9256[ebp]
  01262	33 d1		 xor	 edx, ecx
  01264	d1 e2		 shl	 edx, 1
  01266	0f b6 45 bf	 movzx	 eax, BYTE PTR _c$[ebp]
  0126a	8b 4d 0c	 mov	 ecx, DWORD PTR _r$[ebp]
  0126d	0f b6 04 01	 movzx	 eax, BYTE PTR [ecx+eax]
  01271	d1 e0		 shl	 eax, 1
  01273	0f b6 4d bf	 movzx	 ecx, BYTE PTR _c$[ebp]
  01277	8b 75 0c	 mov	 esi, DWORD PTR _r$[ebp]
  0127a	0f b6 0c 0e	 movzx	 ecx, BYTE PTR [esi+ecx]
  0127e	c1 f9 07	 sar	 ecx, 7
  01281	83 e1 01	 and	 ecx, 1
  01284	6b c9 1b	 imul	 ecx, 27			; 0000001bH
  01287	33 c1		 xor	 eax, ecx
  01289	d1 e0		 shl	 eax, 1
  0128b	0f b6 4d bf	 movzx	 ecx, BYTE PTR _c$[ebp]
  0128f	8b 75 0c	 mov	 esi, DWORD PTR _r$[ebp]
  01292	0f b6 0c 0e	 movzx	 ecx, BYTE PTR [esi+ecx]
  01296	d1 e1		 shl	 ecx, 1
  01298	0f b6 75 bf	 movzx	 esi, BYTE PTR _c$[ebp]
  0129c	8b 7d 0c	 mov	 edi, DWORD PTR _r$[ebp]
  0129f	0f b6 34 37	 movzx	 esi, BYTE PTR [edi+esi]
  012a3	c1 fe 07	 sar	 esi, 7
  012a6	83 e6 01	 and	 esi, 1
  012a9	6b f6 1b	 imul	 esi, 27			; 0000001bH
  012ac	33 ce		 xor	 ecx, esi
  012ae	c1 f9 07	 sar	 ecx, 7
  012b1	83 e1 01	 and	 ecx, 1
  012b4	6b c9 1b	 imul	 ecx, 27			; 0000001bH
  012b7	33 c1		 xor	 eax, ecx
  012b9	d1 e0		 shl	 eax, 1
  012bb	0f b6 4d bf	 movzx	 ecx, BYTE PTR _c$[ebp]
  012bf	8b 75 0c	 mov	 esi, DWORD PTR _r$[ebp]
  012c2	0f b6 0c 0e	 movzx	 ecx, BYTE PTR [esi+ecx]
  012c6	d1 e1		 shl	 ecx, 1
  012c8	0f b6 75 bf	 movzx	 esi, BYTE PTR _c$[ebp]
  012cc	8b 7d 0c	 mov	 edi, DWORD PTR _r$[ebp]
  012cf	0f b6 34 37	 movzx	 esi, BYTE PTR [edi+esi]
  012d3	c1 fe 07	 sar	 esi, 7
  012d6	83 e6 01	 and	 esi, 1
  012d9	6b f6 1b	 imul	 esi, 27			; 0000001bH
  012dc	33 ce		 xor	 ecx, esi
  012de	d1 e1		 shl	 ecx, 1
  012e0	0f b6 75 bf	 movzx	 esi, BYTE PTR _c$[ebp]
  012e4	8b 7d 0c	 mov	 edi, DWORD PTR _r$[ebp]
  012e7	0f b6 34 37	 movzx	 esi, BYTE PTR [edi+esi]
  012eb	d1 e6		 shl	 esi, 1
  012ed	0f b6 7d bf	 movzx	 edi, BYTE PTR _c$[ebp]
  012f1	8b 5d 0c	 mov	 ebx, DWORD PTR _r$[ebp]
  012f4	0f b6 3c 3b	 movzx	 edi, BYTE PTR [ebx+edi]
  012f8	c1 ff 07	 sar	 edi, 7
  012fb	83 e7 01	 and	 edi, 1
  012fe	6b ff 1b	 imul	 edi, 27			; 0000001bH
  01301	33 f7		 xor	 esi, edi
  01303	c1 fe 07	 sar	 esi, 7
  01306	83 e6 01	 and	 esi, 1
  01309	6b f6 1b	 imul	 esi, 27			; 0000001bH
  0130c	33 ce		 xor	 ecx, esi
  0130e	c1 f9 07	 sar	 ecx, 7
  01311	83 e1 01	 and	 ecx, 1
  01314	6b c9 1b	 imul	 ecx, 27			; 0000001bH
  01317	33 c1		 xor	 eax, ecx
  01319	d1 e0		 shl	 eax, 1
  0131b	0f b6 4d bf	 movzx	 ecx, BYTE PTR _c$[ebp]
  0131f	8b 75 0c	 mov	 esi, DWORD PTR _r$[ebp]
  01322	0f b6 0c 0e	 movzx	 ecx, BYTE PTR [esi+ecx]
  01326	d1 e1		 shl	 ecx, 1
  01328	0f b6 75 bf	 movzx	 esi, BYTE PTR _c$[ebp]
  0132c	8b 7d 0c	 mov	 edi, DWORD PTR _r$[ebp]
  0132f	0f b6 34 37	 movzx	 esi, BYTE PTR [edi+esi]
  01333	c1 fe 07	 sar	 esi, 7
  01336	83 e6 01	 and	 esi, 1
  01339	6b f6 1b	 imul	 esi, 27			; 0000001bH
  0133c	33 ce		 xor	 ecx, esi
  0133e	d1 e1		 shl	 ecx, 1
  01340	0f b6 75 bf	 movzx	 esi, BYTE PTR _c$[ebp]
  01344	8b 7d 0c	 mov	 edi, DWORD PTR _r$[ebp]
  01347	0f b6 34 37	 movzx	 esi, BYTE PTR [edi+esi]
  0134b	d1 e6		 shl	 esi, 1
  0134d	0f b6 7d bf	 movzx	 edi, BYTE PTR _c$[ebp]
  01351	8b 5d 0c	 mov	 ebx, DWORD PTR _r$[ebp]
  01354	0f b6 3c 3b	 movzx	 edi, BYTE PTR [ebx+edi]
  01358	c1 ff 07	 sar	 edi, 7
  0135b	83 e7 01	 and	 edi, 1
  0135e	6b ff 1b	 imul	 edi, 27			; 0000001bH
  01361	33 f7		 xor	 esi, edi
  01363	c1 fe 07	 sar	 esi, 7
  01366	83 e6 01	 and	 esi, 1
  01369	6b f6 1b	 imul	 esi, 27			; 0000001bH
  0136c	33 ce		 xor	 ecx, esi
  0136e	d1 e1		 shl	 ecx, 1
  01370	0f b6 75 bf	 movzx	 esi, BYTE PTR _c$[ebp]
  01374	8b 7d 0c	 mov	 edi, DWORD PTR _r$[ebp]
  01377	0f b6 34 37	 movzx	 esi, BYTE PTR [edi+esi]
  0137b	d1 e6		 shl	 esi, 1
  0137d	0f b6 7d bf	 movzx	 edi, BYTE PTR _c$[ebp]
  01381	8b 5d 0c	 mov	 ebx, DWORD PTR _r$[ebp]
  01384	0f b6 3c 3b	 movzx	 edi, BYTE PTR [ebx+edi]
  01388	c1 ff 07	 sar	 edi, 7
  0138b	83 e7 01	 and	 edi, 1
  0138e	6b ff 1b	 imul	 edi, 27			; 0000001bH
  01391	33 f7		 xor	 esi, edi
  01393	d1 e6		 shl	 esi, 1
  01395	0f b6 7d bf	 movzx	 edi, BYTE PTR _c$[ebp]
  01399	8b 5d 0c	 mov	 ebx, DWORD PTR _r$[ebp]
  0139c	0f b6 3c 3b	 movzx	 edi, BYTE PTR [ebx+edi]
  013a0	d1 e7		 shl	 edi, 1
  013a2	0f b6 5d bf	 movzx	 ebx, BYTE PTR _c$[ebp]
  013a6	89 95 c8 fe ff
	ff		 mov	 DWORD PTR tv9260[ebp], edx
  013ac	8b 55 0c	 mov	 edx, DWORD PTR _r$[ebp]
  013af	0f b6 14 1a	 movzx	 edx, BYTE PTR [edx+ebx]
  013b3	c1 fa 07	 sar	 edx, 7
  013b6	83 e2 01	 and	 edx, 1
  013b9	6b d2 1b	 imul	 edx, 27			; 0000001bH
  013bc	33 fa		 xor	 edi, edx
  013be	c1 ff 07	 sar	 edi, 7
  013c1	83 e7 01	 and	 edi, 1
  013c4	6b ff 1b	 imul	 edi, 27			; 0000001bH
  013c7	33 f7		 xor	 esi, edi
  013c9	c1 fe 07	 sar	 esi, 7
  013cc	83 e6 01	 and	 esi, 1
  013cf	6b f6 1b	 imul	 esi, 27			; 0000001bH
  013d2	33 ce		 xor	 ecx, esi
  013d4	c1 f9 07	 sar	 ecx, 7
  013d7	83 e1 01	 and	 ecx, 1
  013da	6b c9 1b	 imul	 ecx, 27			; 0000001bH
  013dd	33 c1		 xor	 eax, ecx
  013df	d1 e0		 shl	 eax, 1
  013e1	0f b6 4d bf	 movzx	 ecx, BYTE PTR _c$[ebp]
  013e5	8b 55 0c	 mov	 edx, DWORD PTR _r$[ebp]
  013e8	0f b6 0c 0a	 movzx	 ecx, BYTE PTR [edx+ecx]
  013ec	d1 e1		 shl	 ecx, 1
  013ee	0f b6 55 bf	 movzx	 edx, BYTE PTR _c$[ebp]
  013f2	8b 75 0c	 mov	 esi, DWORD PTR _r$[ebp]
  013f5	0f b6 14 16	 movzx	 edx, BYTE PTR [esi+edx]
  013f9	c1 fa 07	 sar	 edx, 7
  013fc	83 e2 01	 and	 edx, 1
  013ff	6b d2 1b	 imul	 edx, 27			; 0000001bH
  01402	33 ca		 xor	 ecx, edx
  01404	d1 e1		 shl	 ecx, 1
  01406	0f b6 55 bf	 movzx	 edx, BYTE PTR _c$[ebp]
  0140a	8b 75 0c	 mov	 esi, DWORD PTR _r$[ebp]
  0140d	0f b6 14 16	 movzx	 edx, BYTE PTR [esi+edx]
  01411	d1 e2		 shl	 edx, 1
  01413	0f b6 75 bf	 movzx	 esi, BYTE PTR _c$[ebp]
  01417	8b 7d 0c	 mov	 edi, DWORD PTR _r$[ebp]
  0141a	0f b6 34 37	 movzx	 esi, BYTE PTR [edi+esi]
  0141e	c1 fe 07	 sar	 esi, 7
  01421	83 e6 01	 and	 esi, 1
  01424	6b f6 1b	 imul	 esi, 27			; 0000001bH
  01427	33 d6		 xor	 edx, esi
  01429	c1 fa 07	 sar	 edx, 7
  0142c	83 e2 01	 and	 edx, 1
  0142f	6b d2 1b	 imul	 edx, 27			; 0000001bH
  01432	33 ca		 xor	 ecx, edx
  01434	d1 e1		 shl	 ecx, 1
  01436	0f b6 55 bf	 movzx	 edx, BYTE PTR _c$[ebp]
  0143a	8b 75 0c	 mov	 esi, DWORD PTR _r$[ebp]
  0143d	0f b6 14 16	 movzx	 edx, BYTE PTR [esi+edx]
  01441	d1 e2		 shl	 edx, 1
  01443	0f b6 75 bf	 movzx	 esi, BYTE PTR _c$[ebp]
  01447	8b 7d 0c	 mov	 edi, DWORD PTR _r$[ebp]
  0144a	0f b6 34 37	 movzx	 esi, BYTE PTR [edi+esi]
  0144e	c1 fe 07	 sar	 esi, 7
  01451	83 e6 01	 and	 esi, 1
  01454	6b f6 1b	 imul	 esi, 27			; 0000001bH
  01457	33 d6		 xor	 edx, esi
  01459	d1 e2		 shl	 edx, 1
  0145b	0f b6 75 bf	 movzx	 esi, BYTE PTR _c$[ebp]
  0145f	8b 7d 0c	 mov	 edi, DWORD PTR _r$[ebp]
  01462	0f b6 34 37	 movzx	 esi, BYTE PTR [edi+esi]
  01466	d1 e6		 shl	 esi, 1
  01468	0f b6 7d bf	 movzx	 edi, BYTE PTR _c$[ebp]
  0146c	8b 5d 0c	 mov	 ebx, DWORD PTR _r$[ebp]
  0146f	0f b6 3c 3b	 movzx	 edi, BYTE PTR [ebx+edi]
  01473	c1 ff 07	 sar	 edi, 7
  01476	83 e7 01	 and	 edi, 1
  01479	6b ff 1b	 imul	 edi, 27			; 0000001bH
  0147c	33 f7		 xor	 esi, edi
  0147e	c1 fe 07	 sar	 esi, 7
  01481	83 e6 01	 and	 esi, 1
  01484	6b f6 1b	 imul	 esi, 27			; 0000001bH
  01487	33 d6		 xor	 edx, esi
  01489	c1 fa 07	 sar	 edx, 7
  0148c	83 e2 01	 and	 edx, 1
  0148f	6b d2 1b	 imul	 edx, 27			; 0000001bH
  01492	33 ca		 xor	 ecx, edx
  01494	d1 e1		 shl	 ecx, 1
  01496	0f b6 55 bf	 movzx	 edx, BYTE PTR _c$[ebp]
  0149a	8b 75 0c	 mov	 esi, DWORD PTR _r$[ebp]
  0149d	0f b6 14 16	 movzx	 edx, BYTE PTR [esi+edx]
  014a1	d1 e2		 shl	 edx, 1
  014a3	0f b6 75 bf	 movzx	 esi, BYTE PTR _c$[ebp]
  014a7	8b 7d 0c	 mov	 edi, DWORD PTR _r$[ebp]
  014aa	0f b6 34 37	 movzx	 esi, BYTE PTR [edi+esi]
  014ae	c1 fe 07	 sar	 esi, 7
  014b1	83 e6 01	 and	 esi, 1
  014b4	6b f6 1b	 imul	 esi, 27			; 0000001bH
  014b7	33 d6		 xor	 edx, esi
  014b9	d1 e2		 shl	 edx, 1
  014bb	0f b6 75 bf	 movzx	 esi, BYTE PTR _c$[ebp]
  014bf	8b 7d 0c	 mov	 edi, DWORD PTR _r$[ebp]
  014c2	0f b6 34 37	 movzx	 esi, BYTE PTR [edi+esi]
  014c6	d1 e6		 shl	 esi, 1
  014c8	0f b6 7d bf	 movzx	 edi, BYTE PTR _c$[ebp]
  014cc	8b 5d 0c	 mov	 ebx, DWORD PTR _r$[ebp]
  014cf	0f b6 3c 3b	 movzx	 edi, BYTE PTR [ebx+edi]
  014d3	c1 ff 07	 sar	 edi, 7
  014d6	83 e7 01	 and	 edi, 1
  014d9	6b ff 1b	 imul	 edi, 27			; 0000001bH
  014dc	33 f7		 xor	 esi, edi
  014de	c1 fe 07	 sar	 esi, 7
  014e1	83 e6 01	 and	 esi, 1
  014e4	6b f6 1b	 imul	 esi, 27			; 0000001bH
  014e7	33 d6		 xor	 edx, esi
  014e9	d1 e2		 shl	 edx, 1
  014eb	0f b6 75 bf	 movzx	 esi, BYTE PTR _c$[ebp]
  014ef	8b 7d 0c	 mov	 edi, DWORD PTR _r$[ebp]
  014f2	0f b6 34 37	 movzx	 esi, BYTE PTR [edi+esi]
  014f6	d1 e6		 shl	 esi, 1
  014f8	0f b6 7d bf	 movzx	 edi, BYTE PTR _c$[ebp]
  014fc	8b 5d 0c	 mov	 ebx, DWORD PTR _r$[ebp]
  014ff	0f b6 3c 3b	 movzx	 edi, BYTE PTR [ebx+edi]
  01503	c1 ff 07	 sar	 edi, 7
  01506	83 e7 01	 and	 edi, 1
  01509	6b ff 1b	 imul	 edi, 27			; 0000001bH
  0150c	33 f7		 xor	 esi, edi
  0150e	d1 e6		 shl	 esi, 1
  01510	0f b6 7d bf	 movzx	 edi, BYTE PTR _c$[ebp]
  01514	8b 5d 0c	 mov	 ebx, DWORD PTR _r$[ebp]
  01517	0f b6 3c 3b	 movzx	 edi, BYTE PTR [ebx+edi]
  0151b	d1 e7		 shl	 edi, 1
  0151d	0f b6 5d bf	 movzx	 ebx, BYTE PTR _c$[ebp]
  01521	89 85 c4 fe ff
	ff		 mov	 DWORD PTR tv9262[ebp], eax
  01527	8b 45 0c	 mov	 eax, DWORD PTR _r$[ebp]
  0152a	0f b6 04 18	 movzx	 eax, BYTE PTR [eax+ebx]
  0152e	c1 f8 07	 sar	 eax, 7
  01531	83 e0 01	 and	 eax, 1
  01534	6b c0 1b	 imul	 eax, 27			; 0000001bH
  01537	33 f8		 xor	 edi, eax
  01539	c1 ff 07	 sar	 edi, 7
  0153c	83 e7 01	 and	 edi, 1
  0153f	6b ff 1b	 imul	 edi, 27			; 0000001bH
  01542	33 f7		 xor	 esi, edi
  01544	c1 fe 07	 sar	 esi, 7
  01547	83 e6 01	 and	 esi, 1
  0154a	6b f6 1b	 imul	 esi, 27			; 0000001bH
  0154d	33 d6		 xor	 edx, esi
  0154f	c1 fa 07	 sar	 edx, 7
  01552	83 e2 01	 and	 edx, 1
  01555	6b d2 1b	 imul	 edx, 27			; 0000001bH
  01558	33 ca		 xor	 ecx, edx
  0155a	c1 f9 07	 sar	 ecx, 7
  0155d	83 e1 01	 and	 ecx, 1
  01560	6b c9 1b	 imul	 ecx, 27			; 0000001bH
  01563	8b 95 c4 fe ff
	ff		 mov	 edx, DWORD PTR tv9262[ebp]
  01569	33 d1		 xor	 edx, ecx
  0156b	d1 e2		 shl	 edx, 1
  0156d	0f b6 45 bf	 movzx	 eax, BYTE PTR _c$[ebp]
  01571	8b 4d 0c	 mov	 ecx, DWORD PTR _r$[ebp]
  01574	0f b6 04 01	 movzx	 eax, BYTE PTR [ecx+eax]
  01578	d1 e0		 shl	 eax, 1
  0157a	0f b6 4d bf	 movzx	 ecx, BYTE PTR _c$[ebp]
  0157e	8b 75 0c	 mov	 esi, DWORD PTR _r$[ebp]
  01581	0f b6 0c 0e	 movzx	 ecx, BYTE PTR [esi+ecx]
  01585	c1 f9 07	 sar	 ecx, 7
  01588	83 e1 01	 and	 ecx, 1
  0158b	6b c9 1b	 imul	 ecx, 27			; 0000001bH
  0158e	33 c1		 xor	 eax, ecx
  01590	d1 e0		 shl	 eax, 1
  01592	0f b6 4d bf	 movzx	 ecx, BYTE PTR _c$[ebp]
  01596	8b 75 0c	 mov	 esi, DWORD PTR _r$[ebp]
  01599	0f b6 0c 0e	 movzx	 ecx, BYTE PTR [esi+ecx]
  0159d	d1 e1		 shl	 ecx, 1
  0159f	0f b6 75 bf	 movzx	 esi, BYTE PTR _c$[ebp]
  015a3	8b 7d 0c	 mov	 edi, DWORD PTR _r$[ebp]
  015a6	0f b6 34 37	 movzx	 esi, BYTE PTR [edi+esi]
  015aa	c1 fe 07	 sar	 esi, 7
  015ad	83 e6 01	 and	 esi, 1
  015b0	6b f6 1b	 imul	 esi, 27			; 0000001bH
  015b3	33 ce		 xor	 ecx, esi
  015b5	c1 f9 07	 sar	 ecx, 7
  015b8	83 e1 01	 and	 ecx, 1
  015bb	6b c9 1b	 imul	 ecx, 27			; 0000001bH
  015be	33 c1		 xor	 eax, ecx
  015c0	d1 e0		 shl	 eax, 1
  015c2	0f b6 4d bf	 movzx	 ecx, BYTE PTR _c$[ebp]
  015c6	8b 75 0c	 mov	 esi, DWORD PTR _r$[ebp]
  015c9	0f b6 0c 0e	 movzx	 ecx, BYTE PTR [esi+ecx]
  015cd	d1 e1		 shl	 ecx, 1
  015cf	0f b6 75 bf	 movzx	 esi, BYTE PTR _c$[ebp]
  015d3	8b 7d 0c	 mov	 edi, DWORD PTR _r$[ebp]
  015d6	0f b6 34 37	 movzx	 esi, BYTE PTR [edi+esi]
  015da	c1 fe 07	 sar	 esi, 7
  015dd	83 e6 01	 and	 esi, 1
  015e0	6b f6 1b	 imul	 esi, 27			; 0000001bH
  015e3	33 ce		 xor	 ecx, esi
  015e5	d1 e1		 shl	 ecx, 1
  015e7	0f b6 75 bf	 movzx	 esi, BYTE PTR _c$[ebp]
  015eb	8b 7d 0c	 mov	 edi, DWORD PTR _r$[ebp]
  015ee	0f b6 34 37	 movzx	 esi, BYTE PTR [edi+esi]
  015f2	d1 e6		 shl	 esi, 1
  015f4	0f b6 7d bf	 movzx	 edi, BYTE PTR _c$[ebp]
  015f8	8b 5d 0c	 mov	 ebx, DWORD PTR _r$[ebp]
  015fb	0f b6 3c 3b	 movzx	 edi, BYTE PTR [ebx+edi]
  015ff	c1 ff 07	 sar	 edi, 7
  01602	83 e7 01	 and	 edi, 1
  01605	6b ff 1b	 imul	 edi, 27			; 0000001bH
  01608	33 f7		 xor	 esi, edi
  0160a	c1 fe 07	 sar	 esi, 7
  0160d	83 e6 01	 and	 esi, 1
  01610	6b f6 1b	 imul	 esi, 27			; 0000001bH
  01613	33 ce		 xor	 ecx, esi
  01615	c1 f9 07	 sar	 ecx, 7
  01618	83 e1 01	 and	 ecx, 1
  0161b	6b c9 1b	 imul	 ecx, 27			; 0000001bH
  0161e	33 c1		 xor	 eax, ecx
  01620	d1 e0		 shl	 eax, 1
  01622	0f b6 4d bf	 movzx	 ecx, BYTE PTR _c$[ebp]
  01626	8b 75 0c	 mov	 esi, DWORD PTR _r$[ebp]
  01629	0f b6 0c 0e	 movzx	 ecx, BYTE PTR [esi+ecx]
  0162d	d1 e1		 shl	 ecx, 1
  0162f	0f b6 75 bf	 movzx	 esi, BYTE PTR _c$[ebp]
  01633	8b 7d 0c	 mov	 edi, DWORD PTR _r$[ebp]
  01636	0f b6 34 37	 movzx	 esi, BYTE PTR [edi+esi]
  0163a	c1 fe 07	 sar	 esi, 7
  0163d	83 e6 01	 and	 esi, 1
  01640	6b f6 1b	 imul	 esi, 27			; 0000001bH
  01643	33 ce		 xor	 ecx, esi
  01645	d1 e1		 shl	 ecx, 1
  01647	0f b6 75 bf	 movzx	 esi, BYTE PTR _c$[ebp]
  0164b	8b 7d 0c	 mov	 edi, DWORD PTR _r$[ebp]
  0164e	0f b6 34 37	 movzx	 esi, BYTE PTR [edi+esi]
  01652	d1 e6		 shl	 esi, 1
  01654	0f b6 7d bf	 movzx	 edi, BYTE PTR _c$[ebp]
  01658	8b 5d 0c	 mov	 ebx, DWORD PTR _r$[ebp]
  0165b	0f b6 3c 3b	 movzx	 edi, BYTE PTR [ebx+edi]
  0165f	c1 ff 07	 sar	 edi, 7
  01662	83 e7 01	 and	 edi, 1
  01665	6b ff 1b	 imul	 edi, 27			; 0000001bH
  01668	33 f7		 xor	 esi, edi
  0166a	c1 fe 07	 sar	 esi, 7
  0166d	83 e6 01	 and	 esi, 1
  01670	6b f6 1b	 imul	 esi, 27			; 0000001bH
  01673	33 ce		 xor	 ecx, esi
  01675	d1 e1		 shl	 ecx, 1
  01677	0f b6 75 bf	 movzx	 esi, BYTE PTR _c$[ebp]
  0167b	8b 7d 0c	 mov	 edi, DWORD PTR _r$[ebp]
  0167e	0f b6 34 37	 movzx	 esi, BYTE PTR [edi+esi]
  01682	d1 e6		 shl	 esi, 1
  01684	0f b6 7d bf	 movzx	 edi, BYTE PTR _c$[ebp]
  01688	8b 5d 0c	 mov	 ebx, DWORD PTR _r$[ebp]
  0168b	0f b6 3c 3b	 movzx	 edi, BYTE PTR [ebx+edi]
  0168f	c1 ff 07	 sar	 edi, 7
  01692	83 e7 01	 and	 edi, 1
  01695	6b ff 1b	 imul	 edi, 27			; 0000001bH
  01698	33 f7		 xor	 esi, edi
  0169a	d1 e6		 shl	 esi, 1
  0169c	0f b6 7d bf	 movzx	 edi, BYTE PTR _c$[ebp]
  016a0	8b 5d 0c	 mov	 ebx, DWORD PTR _r$[ebp]
  016a3	0f b6 3c 3b	 movzx	 edi, BYTE PTR [ebx+edi]
  016a7	d1 e7		 shl	 edi, 1
  016a9	0f b6 5d bf	 movzx	 ebx, BYTE PTR _c$[ebp]
  016ad	89 95 c0 fe ff
	ff		 mov	 DWORD PTR tv9264[ebp], edx
  016b3	8b 55 0c	 mov	 edx, DWORD PTR _r$[ebp]
  016b6	0f b6 14 1a	 movzx	 edx, BYTE PTR [edx+ebx]
  016ba	c1 fa 07	 sar	 edx, 7
  016bd	83 e2 01	 and	 edx, 1
  016c0	6b d2 1b	 imul	 edx, 27			; 0000001bH
  016c3	33 fa		 xor	 edi, edx
  016c5	c1 ff 07	 sar	 edi, 7
  016c8	83 e7 01	 and	 edi, 1
  016cb	6b ff 1b	 imul	 edi, 27			; 0000001bH
  016ce	33 f7		 xor	 esi, edi
  016d0	c1 fe 07	 sar	 esi, 7
  016d3	83 e6 01	 and	 esi, 1
  016d6	6b f6 1b	 imul	 esi, 27			; 0000001bH
  016d9	33 ce		 xor	 ecx, esi
  016db	c1 f9 07	 sar	 ecx, 7
  016de	83 e1 01	 and	 ecx, 1
  016e1	6b c9 1b	 imul	 ecx, 27			; 0000001bH
  016e4	33 c1		 xor	 eax, ecx
  016e6	d1 e0		 shl	 eax, 1
  016e8	0f b6 4d bf	 movzx	 ecx, BYTE PTR _c$[ebp]
  016ec	8b 55 0c	 mov	 edx, DWORD PTR _r$[ebp]
  016ef	0f b6 0c 0a	 movzx	 ecx, BYTE PTR [edx+ecx]
  016f3	d1 e1		 shl	 ecx, 1
  016f5	0f b6 55 bf	 movzx	 edx, BYTE PTR _c$[ebp]
  016f9	8b 75 0c	 mov	 esi, DWORD PTR _r$[ebp]
  016fc	0f b6 14 16	 movzx	 edx, BYTE PTR [esi+edx]
  01700	c1 fa 07	 sar	 edx, 7
  01703	83 e2 01	 and	 edx, 1
  01706	6b d2 1b	 imul	 edx, 27			; 0000001bH
  01709	33 ca		 xor	 ecx, edx
  0170b	d1 e1		 shl	 ecx, 1
  0170d	0f b6 55 bf	 movzx	 edx, BYTE PTR _c$[ebp]
  01711	8b 75 0c	 mov	 esi, DWORD PTR _r$[ebp]
  01714	0f b6 14 16	 movzx	 edx, BYTE PTR [esi+edx]
  01718	d1 e2		 shl	 edx, 1
  0171a	0f b6 75 bf	 movzx	 esi, BYTE PTR _c$[ebp]
  0171e	8b 7d 0c	 mov	 edi, DWORD PTR _r$[ebp]
  01721	0f b6 34 37	 movzx	 esi, BYTE PTR [edi+esi]
  01725	c1 fe 07	 sar	 esi, 7
  01728	83 e6 01	 and	 esi, 1
  0172b	6b f6 1b	 imul	 esi, 27			; 0000001bH
  0172e	33 d6		 xor	 edx, esi
  01730	c1 fa 07	 sar	 edx, 7
  01733	83 e2 01	 and	 edx, 1
  01736	6b d2 1b	 imul	 edx, 27			; 0000001bH
  01739	33 ca		 xor	 ecx, edx
  0173b	d1 e1		 shl	 ecx, 1
  0173d	0f b6 55 bf	 movzx	 edx, BYTE PTR _c$[ebp]
  01741	8b 75 0c	 mov	 esi, DWORD PTR _r$[ebp]
  01744	0f b6 14 16	 movzx	 edx, BYTE PTR [esi+edx]
  01748	d1 e2		 shl	 edx, 1
  0174a	0f b6 75 bf	 movzx	 esi, BYTE PTR _c$[ebp]
  0174e	8b 7d 0c	 mov	 edi, DWORD PTR _r$[ebp]
  01751	0f b6 34 37	 movzx	 esi, BYTE PTR [edi+esi]
  01755	c1 fe 07	 sar	 esi, 7
  01758	83 e6 01	 and	 esi, 1
  0175b	6b f6 1b	 imul	 esi, 27			; 0000001bH
  0175e	33 d6		 xor	 edx, esi
  01760	d1 e2		 shl	 edx, 1
  01762	0f b6 75 bf	 movzx	 esi, BYTE PTR _c$[ebp]
  01766	8b 7d 0c	 mov	 edi, DWORD PTR _r$[ebp]
  01769	0f b6 34 37	 movzx	 esi, BYTE PTR [edi+esi]
  0176d	d1 e6		 shl	 esi, 1
  0176f	0f b6 7d bf	 movzx	 edi, BYTE PTR _c$[ebp]
  01773	8b 5d 0c	 mov	 ebx, DWORD PTR _r$[ebp]
  01776	0f b6 3c 3b	 movzx	 edi, BYTE PTR [ebx+edi]
  0177a	c1 ff 07	 sar	 edi, 7
  0177d	83 e7 01	 and	 edi, 1
  01780	6b ff 1b	 imul	 edi, 27			; 0000001bH
  01783	33 f7		 xor	 esi, edi
  01785	c1 fe 07	 sar	 esi, 7
  01788	83 e6 01	 and	 esi, 1
  0178b	6b f6 1b	 imul	 esi, 27			; 0000001bH
  0178e	33 d6		 xor	 edx, esi
  01790	c1 fa 07	 sar	 edx, 7
  01793	83 e2 01	 and	 edx, 1
  01796	6b d2 1b	 imul	 edx, 27			; 0000001bH
  01799	33 ca		 xor	 ecx, edx
  0179b	d1 e1		 shl	 ecx, 1
  0179d	0f b6 55 bf	 movzx	 edx, BYTE PTR _c$[ebp]
  017a1	8b 75 0c	 mov	 esi, DWORD PTR _r$[ebp]
  017a4	0f b6 14 16	 movzx	 edx, BYTE PTR [esi+edx]
  017a8	d1 e2		 shl	 edx, 1
  017aa	0f b6 75 bf	 movzx	 esi, BYTE PTR _c$[ebp]
  017ae	8b 7d 0c	 mov	 edi, DWORD PTR _r$[ebp]
  017b1	0f b6 34 37	 movzx	 esi, BYTE PTR [edi+esi]
  017b5	c1 fe 07	 sar	 esi, 7
  017b8	83 e6 01	 and	 esi, 1
  017bb	6b f6 1b	 imul	 esi, 27			; 0000001bH
  017be	33 d6		 xor	 edx, esi
  017c0	d1 e2		 shl	 edx, 1
  017c2	0f b6 75 bf	 movzx	 esi, BYTE PTR _c$[ebp]
  017c6	8b 7d 0c	 mov	 edi, DWORD PTR _r$[ebp]
  017c9	0f b6 34 37	 movzx	 esi, BYTE PTR [edi+esi]
  017cd	d1 e6		 shl	 esi, 1
  017cf	0f b6 7d bf	 movzx	 edi, BYTE PTR _c$[ebp]
  017d3	8b 5d 0c	 mov	 ebx, DWORD PTR _r$[ebp]
  017d6	0f b6 3c 3b	 movzx	 edi, BYTE PTR [ebx+edi]
  017da	c1 ff 07	 sar	 edi, 7
  017dd	83 e7 01	 and	 edi, 1
  017e0	6b ff 1b	 imul	 edi, 27			; 0000001bH
  017e3	33 f7		 xor	 esi, edi
  017e5	c1 fe 07	 sar	 esi, 7
  017e8	83 e6 01	 and	 esi, 1
  017eb	6b f6 1b	 imul	 esi, 27			; 0000001bH
  017ee	33 d6		 xor	 edx, esi
  017f0	d1 e2		 shl	 edx, 1
  017f2	0f b6 75 bf	 movzx	 esi, BYTE PTR _c$[ebp]
  017f6	8b 7d 0c	 mov	 edi, DWORD PTR _r$[ebp]
  017f9	0f b6 34 37	 movzx	 esi, BYTE PTR [edi+esi]
  017fd	d1 e6		 shl	 esi, 1
  017ff	0f b6 7d bf	 movzx	 edi, BYTE PTR _c$[ebp]
  01803	8b 5d 0c	 mov	 ebx, DWORD PTR _r$[ebp]
  01806	0f b6 3c 3b	 movzx	 edi, BYTE PTR [ebx+edi]
  0180a	c1 ff 07	 sar	 edi, 7
  0180d	83 e7 01	 and	 edi, 1
  01810	6b ff 1b	 imul	 edi, 27			; 0000001bH
  01813	33 f7		 xor	 esi, edi
  01815	d1 e6		 shl	 esi, 1
  01817	0f b6 7d bf	 movzx	 edi, BYTE PTR _c$[ebp]
  0181b	8b 5d 0c	 mov	 ebx, DWORD PTR _r$[ebp]
  0181e	0f b6 3c 3b	 movzx	 edi, BYTE PTR [ebx+edi]
  01822	d1 e7		 shl	 edi, 1
  01824	0f b6 5d bf	 movzx	 ebx, BYTE PTR _c$[ebp]
  01828	89 85 bc fe ff
	ff		 mov	 DWORD PTR tv9266[ebp], eax
  0182e	8b 45 0c	 mov	 eax, DWORD PTR _r$[ebp]
  01831	0f b6 04 18	 movzx	 eax, BYTE PTR [eax+ebx]
  01835	c1 f8 07	 sar	 eax, 7
  01838	83 e0 01	 and	 eax, 1
  0183b	6b c0 1b	 imul	 eax, 27			; 0000001bH
  0183e	33 f8		 xor	 edi, eax
  01840	c1 ff 07	 sar	 edi, 7
  01843	83 e7 01	 and	 edi, 1
  01846	6b ff 1b	 imul	 edi, 27			; 0000001bH
  01849	33 f7		 xor	 esi, edi
  0184b	c1 fe 07	 sar	 esi, 7
  0184e	83 e6 01	 and	 esi, 1
  01851	6b f6 1b	 imul	 esi, 27			; 0000001bH
  01854	33 d6		 xor	 edx, esi
  01856	c1 fa 07	 sar	 edx, 7
  01859	83 e2 01	 and	 edx, 1
  0185c	6b d2 1b	 imul	 edx, 27			; 0000001bH
  0185f	33 ca		 xor	 ecx, edx
  01861	c1 f9 07	 sar	 ecx, 7
  01864	83 e1 01	 and	 ecx, 1
  01867	6b c9 1b	 imul	 ecx, 27			; 0000001bH
  0186a	8b 95 bc fe ff
	ff		 mov	 edx, DWORD PTR tv9266[ebp]
  01870	33 d1		 xor	 edx, ecx
  01872	c1 fa 07	 sar	 edx, 7
  01875	83 e2 01	 and	 edx, 1
  01878	6b d2 1b	 imul	 edx, 27			; 0000001bH
  0187b	8b 85 c0 fe ff
	ff		 mov	 eax, DWORD PTR tv9264[ebp]
  01881	33 c2		 xor	 eax, edx
  01883	c1 f8 07	 sar	 eax, 7
  01886	83 e0 01	 and	 eax, 1
  01889	6b c0 1b	 imul	 eax, 27			; 0000001bH
  0188c	8b 8d c8 fe ff
	ff		 mov	 ecx, DWORD PTR tv9260[ebp]
  01892	33 c8		 xor	 ecx, eax
  01894	6b c9 00	 imul	 ecx, 0
  01897	8b 95 d8 fe ff
	ff		 mov	 edx, DWORD PTR tv9252[ebp]
  0189d	33 d1		 xor	 edx, ecx
  0189f	0f b6 45 bf	 movzx	 eax, BYTE PTR _c$[ebp]
  018a3	88 54 05 ec	 mov	 BYTE PTR _t9$[ebp+eax], dl

; 599  : 		tb[c] = MULTIPLY(r[c],0xb);

  018a7	0f b6 45 bf	 movzx	 eax, BYTE PTR _c$[ebp]
  018ab	8b 4d 0c	 mov	 ecx, DWORD PTR _r$[ebp]
  018ae	0f b6 14 01	 movzx	 edx, BYTE PTR [ecx+eax]
  018b2	0f b6 45 bf	 movzx	 eax, BYTE PTR _c$[ebp]
  018b6	8b 4d 0c	 mov	 ecx, DWORD PTR _r$[ebp]
  018b9	0f b6 04 01	 movzx	 eax, BYTE PTR [ecx+eax]
  018bd	d1 e0		 shl	 eax, 1
  018bf	0f b6 4d bf	 movzx	 ecx, BYTE PTR _c$[ebp]
  018c3	8b 75 0c	 mov	 esi, DWORD PTR _r$[ebp]
  018c6	0f b6 0c 0e	 movzx	 ecx, BYTE PTR [esi+ecx]
  018ca	c1 f9 07	 sar	 ecx, 7
  018cd	83 e1 01	 and	 ecx, 1
  018d0	6b c9 1b	 imul	 ecx, 27			; 0000001bH
  018d3	33 c1		 xor	 eax, ecx
  018d5	33 d0		 xor	 edx, eax
  018d7	0f b6 45 bf	 movzx	 eax, BYTE PTR _c$[ebp]
  018db	8b 4d 0c	 mov	 ecx, DWORD PTR _r$[ebp]
  018de	0f b6 04 01	 movzx	 eax, BYTE PTR [ecx+eax]
  018e2	d1 e0		 shl	 eax, 1
  018e4	0f b6 4d bf	 movzx	 ecx, BYTE PTR _c$[ebp]
  018e8	8b 75 0c	 mov	 esi, DWORD PTR _r$[ebp]
  018eb	0f b6 0c 0e	 movzx	 ecx, BYTE PTR [esi+ecx]
  018ef	c1 f9 07	 sar	 ecx, 7
  018f2	83 e1 01	 and	 ecx, 1
  018f5	6b c9 1b	 imul	 ecx, 27			; 0000001bH
  018f8	33 c1		 xor	 eax, ecx
  018fa	d1 e0		 shl	 eax, 1
  018fc	0f b6 4d bf	 movzx	 ecx, BYTE PTR _c$[ebp]
  01900	8b 75 0c	 mov	 esi, DWORD PTR _r$[ebp]
  01903	0f b6 0c 0e	 movzx	 ecx, BYTE PTR [esi+ecx]
  01907	d1 e1		 shl	 ecx, 1
  01909	0f b6 75 bf	 movzx	 esi, BYTE PTR _c$[ebp]
  0190d	8b 7d 0c	 mov	 edi, DWORD PTR _r$[ebp]
  01910	0f b6 34 37	 movzx	 esi, BYTE PTR [edi+esi]
  01914	c1 fe 07	 sar	 esi, 7
  01917	83 e6 01	 and	 esi, 1
  0191a	6b f6 1b	 imul	 esi, 27			; 0000001bH
  0191d	33 ce		 xor	 ecx, esi
  0191f	c1 f9 07	 sar	 ecx, 7
  01922	83 e1 01	 and	 ecx, 1
  01925	6b c9 1b	 imul	 ecx, 27			; 0000001bH
  01928	33 c1		 xor	 eax, ecx
  0192a	6b c0 00	 imul	 eax, 0
  0192d	33 d0		 xor	 edx, eax
  0192f	0f b6 45 bf	 movzx	 eax, BYTE PTR _c$[ebp]
  01933	8b 4d 0c	 mov	 ecx, DWORD PTR _r$[ebp]
  01936	0f b6 04 01	 movzx	 eax, BYTE PTR [ecx+eax]
  0193a	d1 e0		 shl	 eax, 1
  0193c	0f b6 4d bf	 movzx	 ecx, BYTE PTR _c$[ebp]
  01940	8b 75 0c	 mov	 esi, DWORD PTR _r$[ebp]
  01943	0f b6 0c 0e	 movzx	 ecx, BYTE PTR [esi+ecx]
  01947	c1 f9 07	 sar	 ecx, 7
  0194a	83 e1 01	 and	 ecx, 1
  0194d	6b c9 1b	 imul	 ecx, 27			; 0000001bH
  01950	33 c1		 xor	 eax, ecx
  01952	d1 e0		 shl	 eax, 1
  01954	0f b6 4d bf	 movzx	 ecx, BYTE PTR _c$[ebp]
  01958	8b 75 0c	 mov	 esi, DWORD PTR _r$[ebp]
  0195b	0f b6 0c 0e	 movzx	 ecx, BYTE PTR [esi+ecx]
  0195f	d1 e1		 shl	 ecx, 1
  01961	0f b6 75 bf	 movzx	 esi, BYTE PTR _c$[ebp]
  01965	8b 7d 0c	 mov	 edi, DWORD PTR _r$[ebp]
  01968	0f b6 34 37	 movzx	 esi, BYTE PTR [edi+esi]
  0196c	c1 fe 07	 sar	 esi, 7
  0196f	83 e6 01	 and	 esi, 1
  01972	6b f6 1b	 imul	 esi, 27			; 0000001bH
  01975	33 ce		 xor	 ecx, esi
  01977	c1 f9 07	 sar	 ecx, 7
  0197a	83 e1 01	 and	 ecx, 1
  0197d	6b c9 1b	 imul	 ecx, 27			; 0000001bH
  01980	33 c1		 xor	 eax, ecx
  01982	d1 e0		 shl	 eax, 1
  01984	0f b6 4d bf	 movzx	 ecx, BYTE PTR _c$[ebp]
  01988	8b 75 0c	 mov	 esi, DWORD PTR _r$[ebp]
  0198b	0f b6 0c 0e	 movzx	 ecx, BYTE PTR [esi+ecx]
  0198f	d1 e1		 shl	 ecx, 1
  01991	0f b6 75 bf	 movzx	 esi, BYTE PTR _c$[ebp]
  01995	8b 7d 0c	 mov	 edi, DWORD PTR _r$[ebp]
  01998	0f b6 34 37	 movzx	 esi, BYTE PTR [edi+esi]
  0199c	c1 fe 07	 sar	 esi, 7
  0199f	83 e6 01	 and	 esi, 1
  019a2	6b f6 1b	 imul	 esi, 27			; 0000001bH
  019a5	33 ce		 xor	 ecx, esi
  019a7	d1 e1		 shl	 ecx, 1
  019a9	0f b6 75 bf	 movzx	 esi, BYTE PTR _c$[ebp]
  019ad	8b 7d 0c	 mov	 edi, DWORD PTR _r$[ebp]
  019b0	0f b6 34 37	 movzx	 esi, BYTE PTR [edi+esi]
  019b4	d1 e6		 shl	 esi, 1
  019b6	0f b6 7d bf	 movzx	 edi, BYTE PTR _c$[ebp]
  019ba	8b 5d 0c	 mov	 ebx, DWORD PTR _r$[ebp]
  019bd	0f b6 3c 3b	 movzx	 edi, BYTE PTR [ebx+edi]
  019c1	c1 ff 07	 sar	 edi, 7
  019c4	83 e7 01	 and	 edi, 1
  019c7	6b ff 1b	 imul	 edi, 27			; 0000001bH
  019ca	33 f7		 xor	 esi, edi
  019cc	c1 fe 07	 sar	 esi, 7
  019cf	83 e6 01	 and	 esi, 1
  019d2	6b f6 1b	 imul	 esi, 27			; 0000001bH
  019d5	33 ce		 xor	 ecx, esi
  019d7	c1 f9 07	 sar	 ecx, 7
  019da	83 e1 01	 and	 ecx, 1
  019dd	6b c9 1b	 imul	 ecx, 27			; 0000001bH
  019e0	33 c1		 xor	 eax, ecx
  019e2	33 d0		 xor	 edx, eax
  019e4	0f b6 45 bf	 movzx	 eax, BYTE PTR _c$[ebp]
  019e8	8b 4d 0c	 mov	 ecx, DWORD PTR _r$[ebp]
  019eb	0f b6 04 01	 movzx	 eax, BYTE PTR [ecx+eax]
  019ef	d1 e0		 shl	 eax, 1
  019f1	0f b6 4d bf	 movzx	 ecx, BYTE PTR _c$[ebp]
  019f5	8b 75 0c	 mov	 esi, DWORD PTR _r$[ebp]
  019f8	0f b6 0c 0e	 movzx	 ecx, BYTE PTR [esi+ecx]
  019fc	c1 f9 07	 sar	 ecx, 7
  019ff	83 e1 01	 and	 ecx, 1
  01a02	6b c9 1b	 imul	 ecx, 27			; 0000001bH
  01a05	33 c1		 xor	 eax, ecx
  01a07	d1 e0		 shl	 eax, 1
  01a09	0f b6 4d bf	 movzx	 ecx, BYTE PTR _c$[ebp]
  01a0d	8b 75 0c	 mov	 esi, DWORD PTR _r$[ebp]
  01a10	0f b6 0c 0e	 movzx	 ecx, BYTE PTR [esi+ecx]
  01a14	d1 e1		 shl	 ecx, 1
  01a16	0f b6 75 bf	 movzx	 esi, BYTE PTR _c$[ebp]
  01a1a	8b 7d 0c	 mov	 edi, DWORD PTR _r$[ebp]
  01a1d	0f b6 34 37	 movzx	 esi, BYTE PTR [edi+esi]
  01a21	c1 fe 07	 sar	 esi, 7
  01a24	83 e6 01	 and	 esi, 1
  01a27	6b f6 1b	 imul	 esi, 27			; 0000001bH
  01a2a	33 ce		 xor	 ecx, esi
  01a2c	c1 f9 07	 sar	 ecx, 7
  01a2f	83 e1 01	 and	 ecx, 1
  01a32	6b c9 1b	 imul	 ecx, 27			; 0000001bH
  01a35	33 c1		 xor	 eax, ecx
  01a37	d1 e0		 shl	 eax, 1
  01a39	0f b6 4d bf	 movzx	 ecx, BYTE PTR _c$[ebp]
  01a3d	8b 75 0c	 mov	 esi, DWORD PTR _r$[ebp]
  01a40	0f b6 0c 0e	 movzx	 ecx, BYTE PTR [esi+ecx]
  01a44	d1 e1		 shl	 ecx, 1
  01a46	0f b6 75 bf	 movzx	 esi, BYTE PTR _c$[ebp]
  01a4a	8b 7d 0c	 mov	 edi, DWORD PTR _r$[ebp]
  01a4d	0f b6 34 37	 movzx	 esi, BYTE PTR [edi+esi]
  01a51	c1 fe 07	 sar	 esi, 7
  01a54	83 e6 01	 and	 esi, 1
  01a57	6b f6 1b	 imul	 esi, 27			; 0000001bH
  01a5a	33 ce		 xor	 ecx, esi
  01a5c	d1 e1		 shl	 ecx, 1
  01a5e	0f b6 75 bf	 movzx	 esi, BYTE PTR _c$[ebp]
  01a62	8b 7d 0c	 mov	 edi, DWORD PTR _r$[ebp]
  01a65	0f b6 34 37	 movzx	 esi, BYTE PTR [edi+esi]
  01a69	d1 e6		 shl	 esi, 1
  01a6b	0f b6 7d bf	 movzx	 edi, BYTE PTR _c$[ebp]
  01a6f	8b 5d 0c	 mov	 ebx, DWORD PTR _r$[ebp]
  01a72	0f b6 3c 3b	 movzx	 edi, BYTE PTR [ebx+edi]
  01a76	c1 ff 07	 sar	 edi, 7
  01a79	83 e7 01	 and	 edi, 1
  01a7c	6b ff 1b	 imul	 edi, 27			; 0000001bH
  01a7f	33 f7		 xor	 esi, edi
  01a81	c1 fe 07	 sar	 esi, 7
  01a84	83 e6 01	 and	 esi, 1
  01a87	6b f6 1b	 imul	 esi, 27			; 0000001bH
  01a8a	33 ce		 xor	 ecx, esi
  01a8c	c1 f9 07	 sar	 ecx, 7
  01a8f	83 e1 01	 and	 ecx, 1
  01a92	6b c9 1b	 imul	 ecx, 27			; 0000001bH
  01a95	33 c1		 xor	 eax, ecx
  01a97	d1 e0		 shl	 eax, 1
  01a99	0f b6 4d bf	 movzx	 ecx, BYTE PTR _c$[ebp]
  01a9d	8b 75 0c	 mov	 esi, DWORD PTR _r$[ebp]
  01aa0	0f b6 0c 0e	 movzx	 ecx, BYTE PTR [esi+ecx]
  01aa4	d1 e1		 shl	 ecx, 1
  01aa6	0f b6 75 bf	 movzx	 esi, BYTE PTR _c$[ebp]
  01aaa	8b 7d 0c	 mov	 edi, DWORD PTR _r$[ebp]
  01aad	0f b6 34 37	 movzx	 esi, BYTE PTR [edi+esi]
  01ab1	c1 fe 07	 sar	 esi, 7
  01ab4	83 e6 01	 and	 esi, 1
  01ab7	6b f6 1b	 imul	 esi, 27			; 0000001bH
  01aba	33 ce		 xor	 ecx, esi
  01abc	d1 e1		 shl	 ecx, 1
  01abe	0f b6 75 bf	 movzx	 esi, BYTE PTR _c$[ebp]
  01ac2	8b 7d 0c	 mov	 edi, DWORD PTR _r$[ebp]
  01ac5	0f b6 34 37	 movzx	 esi, BYTE PTR [edi+esi]
  01ac9	d1 e6		 shl	 esi, 1
  01acb	0f b6 7d bf	 movzx	 edi, BYTE PTR _c$[ebp]
  01acf	8b 5d 0c	 mov	 ebx, DWORD PTR _r$[ebp]
  01ad2	0f b6 3c 3b	 movzx	 edi, BYTE PTR [ebx+edi]
  01ad6	c1 ff 07	 sar	 edi, 7
  01ad9	83 e7 01	 and	 edi, 1
  01adc	6b ff 1b	 imul	 edi, 27			; 0000001bH
  01adf	33 f7		 xor	 esi, edi
  01ae1	c1 fe 07	 sar	 esi, 7
  01ae4	83 e6 01	 and	 esi, 1
  01ae7	6b f6 1b	 imul	 esi, 27			; 0000001bH
  01aea	33 ce		 xor	 ecx, esi
  01aec	d1 e1		 shl	 ecx, 1
  01aee	0f b6 75 bf	 movzx	 esi, BYTE PTR _c$[ebp]
  01af2	8b 7d 0c	 mov	 edi, DWORD PTR _r$[ebp]
  01af5	0f b6 34 37	 movzx	 esi, BYTE PTR [edi+esi]
  01af9	d1 e6		 shl	 esi, 1
  01afb	0f b6 7d bf	 movzx	 edi, BYTE PTR _c$[ebp]
  01aff	8b 5d 0c	 mov	 ebx, DWORD PTR _r$[ebp]
  01b02	0f b6 3c 3b	 movzx	 edi, BYTE PTR [ebx+edi]
  01b06	c1 ff 07	 sar	 edi, 7
  01b09	83 e7 01	 and	 edi, 1
  01b0c	6b ff 1b	 imul	 edi, 27			; 0000001bH
  01b0f	33 f7		 xor	 esi, edi
  01b11	d1 e6		 shl	 esi, 1
  01b13	0f b6 7d bf	 movzx	 edi, BYTE PTR _c$[ebp]
  01b17	8b 5d 0c	 mov	 ebx, DWORD PTR _r$[ebp]
  01b1a	0f b6 3c 3b	 movzx	 edi, BYTE PTR [ebx+edi]
  01b1e	d1 e7		 shl	 edi, 1
  01b20	0f b6 5d bf	 movzx	 ebx, BYTE PTR _c$[ebp]
  01b24	89 95 f4 fe ff
	ff		 mov	 DWORD PTR tv9268[ebp], edx
  01b2a	8b 55 0c	 mov	 edx, DWORD PTR _r$[ebp]
  01b2d	0f b6 14 1a	 movzx	 edx, BYTE PTR [edx+ebx]
  01b31	c1 fa 07	 sar	 edx, 7
  01b34	83 e2 01	 and	 edx, 1
  01b37	6b d2 1b	 imul	 edx, 27			; 0000001bH
  01b3a	33 fa		 xor	 edi, edx
  01b3c	c1 ff 07	 sar	 edi, 7
  01b3f	83 e7 01	 and	 edi, 1
  01b42	6b ff 1b	 imul	 edi, 27			; 0000001bH
  01b45	33 f7		 xor	 esi, edi
  01b47	c1 fe 07	 sar	 esi, 7
  01b4a	83 e6 01	 and	 esi, 1
  01b4d	6b f6 1b	 imul	 esi, 27			; 0000001bH
  01b50	33 ce		 xor	 ecx, esi
  01b52	c1 f9 07	 sar	 ecx, 7
  01b55	83 e1 01	 and	 ecx, 1
  01b58	6b c9 1b	 imul	 ecx, 27			; 0000001bH
  01b5b	33 c1		 xor	 eax, ecx
  01b5d	6b c0 00	 imul	 eax, 0
  01b60	8b 8d f4 fe ff
	ff		 mov	 ecx, DWORD PTR tv9268[ebp]
  01b66	33 c8		 xor	 ecx, eax
  01b68	0f b6 55 bf	 movzx	 edx, BYTE PTR _c$[ebp]
  01b6c	8b 45 0c	 mov	 eax, DWORD PTR _r$[ebp]
  01b6f	0f b6 14 10	 movzx	 edx, BYTE PTR [eax+edx]
  01b73	d1 e2		 shl	 edx, 1
  01b75	0f b6 45 bf	 movzx	 eax, BYTE PTR _c$[ebp]
  01b79	8b 75 0c	 mov	 esi, DWORD PTR _r$[ebp]
  01b7c	0f b6 04 06	 movzx	 eax, BYTE PTR [esi+eax]
  01b80	c1 f8 07	 sar	 eax, 7
  01b83	83 e0 01	 and	 eax, 1
  01b86	6b c0 1b	 imul	 eax, 27			; 0000001bH
  01b89	33 d0		 xor	 edx, eax
  01b8b	d1 e2		 shl	 edx, 1
  01b8d	0f b6 45 bf	 movzx	 eax, BYTE PTR _c$[ebp]
  01b91	8b 75 0c	 mov	 esi, DWORD PTR _r$[ebp]
  01b94	0f b6 04 06	 movzx	 eax, BYTE PTR [esi+eax]
  01b98	d1 e0		 shl	 eax, 1
  01b9a	0f b6 75 bf	 movzx	 esi, BYTE PTR _c$[ebp]
  01b9e	8b 7d 0c	 mov	 edi, DWORD PTR _r$[ebp]
  01ba1	0f b6 34 37	 movzx	 esi, BYTE PTR [edi+esi]
  01ba5	c1 fe 07	 sar	 esi, 7
  01ba8	83 e6 01	 and	 esi, 1
  01bab	6b f6 1b	 imul	 esi, 27			; 0000001bH
  01bae	33 c6		 xor	 eax, esi
  01bb0	c1 f8 07	 sar	 eax, 7
  01bb3	83 e0 01	 and	 eax, 1
  01bb6	6b c0 1b	 imul	 eax, 27			; 0000001bH
  01bb9	33 d0		 xor	 edx, eax
  01bbb	d1 e2		 shl	 edx, 1
  01bbd	0f b6 45 bf	 movzx	 eax, BYTE PTR _c$[ebp]
  01bc1	8b 75 0c	 mov	 esi, DWORD PTR _r$[ebp]
  01bc4	0f b6 04 06	 movzx	 eax, BYTE PTR [esi+eax]
  01bc8	d1 e0		 shl	 eax, 1
  01bca	0f b6 75 bf	 movzx	 esi, BYTE PTR _c$[ebp]
  01bce	8b 7d 0c	 mov	 edi, DWORD PTR _r$[ebp]
  01bd1	0f b6 34 37	 movzx	 esi, BYTE PTR [edi+esi]
  01bd5	c1 fe 07	 sar	 esi, 7
  01bd8	83 e6 01	 and	 esi, 1
  01bdb	6b f6 1b	 imul	 esi, 27			; 0000001bH
  01bde	33 c6		 xor	 eax, esi
  01be0	d1 e0		 shl	 eax, 1
  01be2	0f b6 75 bf	 movzx	 esi, BYTE PTR _c$[ebp]
  01be6	8b 7d 0c	 mov	 edi, DWORD PTR _r$[ebp]
  01be9	0f b6 34 37	 movzx	 esi, BYTE PTR [edi+esi]
  01bed	d1 e6		 shl	 esi, 1
  01bef	0f b6 7d bf	 movzx	 edi, BYTE PTR _c$[ebp]
  01bf3	8b 5d 0c	 mov	 ebx, DWORD PTR _r$[ebp]
  01bf6	0f b6 3c 3b	 movzx	 edi, BYTE PTR [ebx+edi]
  01bfa	c1 ff 07	 sar	 edi, 7
  01bfd	83 e7 01	 and	 edi, 1
  01c00	6b ff 1b	 imul	 edi, 27			; 0000001bH
  01c03	33 f7		 xor	 esi, edi
  01c05	c1 fe 07	 sar	 esi, 7
  01c08	83 e6 01	 and	 esi, 1
  01c0b	6b f6 1b	 imul	 esi, 27			; 0000001bH
  01c0e	33 c6		 xor	 eax, esi
  01c10	c1 f8 07	 sar	 eax, 7
  01c13	83 e0 01	 and	 eax, 1
  01c16	6b c0 1b	 imul	 eax, 27			; 0000001bH
  01c19	33 d0		 xor	 edx, eax
  01c1b	d1 e2		 shl	 edx, 1
  01c1d	0f b6 45 bf	 movzx	 eax, BYTE PTR _c$[ebp]
  01c21	8b 75 0c	 mov	 esi, DWORD PTR _r$[ebp]
  01c24	0f b6 04 06	 movzx	 eax, BYTE PTR [esi+eax]
  01c28	d1 e0		 shl	 eax, 1
  01c2a	0f b6 75 bf	 movzx	 esi, BYTE PTR _c$[ebp]
  01c2e	8b 7d 0c	 mov	 edi, DWORD PTR _r$[ebp]
  01c31	0f b6 34 37	 movzx	 esi, BYTE PTR [edi+esi]
  01c35	c1 fe 07	 sar	 esi, 7
  01c38	83 e6 01	 and	 esi, 1
  01c3b	6b f6 1b	 imul	 esi, 27			; 0000001bH
  01c3e	33 c6		 xor	 eax, esi
  01c40	d1 e0		 shl	 eax, 1
  01c42	0f b6 75 bf	 movzx	 esi, BYTE PTR _c$[ebp]
  01c46	8b 7d 0c	 mov	 edi, DWORD PTR _r$[ebp]
  01c49	0f b6 34 37	 movzx	 esi, BYTE PTR [edi+esi]
  01c4d	d1 e6		 shl	 esi, 1
  01c4f	0f b6 7d bf	 movzx	 edi, BYTE PTR _c$[ebp]
  01c53	8b 5d 0c	 mov	 ebx, DWORD PTR _r$[ebp]
  01c56	0f b6 3c 3b	 movzx	 edi, BYTE PTR [ebx+edi]
  01c5a	c1 ff 07	 sar	 edi, 7
  01c5d	83 e7 01	 and	 edi, 1
  01c60	6b ff 1b	 imul	 edi, 27			; 0000001bH
  01c63	33 f7		 xor	 esi, edi
  01c65	c1 fe 07	 sar	 esi, 7
  01c68	83 e6 01	 and	 esi, 1
  01c6b	6b f6 1b	 imul	 esi, 27			; 0000001bH
  01c6e	33 c6		 xor	 eax, esi
  01c70	d1 e0		 shl	 eax, 1
  01c72	0f b6 75 bf	 movzx	 esi, BYTE PTR _c$[ebp]
  01c76	8b 7d 0c	 mov	 edi, DWORD PTR _r$[ebp]
  01c79	0f b6 34 37	 movzx	 esi, BYTE PTR [edi+esi]
  01c7d	d1 e6		 shl	 esi, 1
  01c7f	0f b6 7d bf	 movzx	 edi, BYTE PTR _c$[ebp]
  01c83	8b 5d 0c	 mov	 ebx, DWORD PTR _r$[ebp]
  01c86	0f b6 3c 3b	 movzx	 edi, BYTE PTR [ebx+edi]
  01c8a	c1 ff 07	 sar	 edi, 7
  01c8d	83 e7 01	 and	 edi, 1
  01c90	6b ff 1b	 imul	 edi, 27			; 0000001bH
  01c93	33 f7		 xor	 esi, edi
  01c95	d1 e6		 shl	 esi, 1
  01c97	0f b6 7d bf	 movzx	 edi, BYTE PTR _c$[ebp]
  01c9b	8b 5d 0c	 mov	 ebx, DWORD PTR _r$[ebp]
  01c9e	0f b6 3c 3b	 movzx	 edi, BYTE PTR [ebx+edi]
  01ca2	d1 e7		 shl	 edi, 1
  01ca4	0f b6 5d bf	 movzx	 ebx, BYTE PTR _c$[ebp]
  01ca8	89 8d f0 fe ff
	ff		 mov	 DWORD PTR tv9270[ebp], ecx
  01cae	8b 4d 0c	 mov	 ecx, DWORD PTR _r$[ebp]
  01cb1	0f b6 0c 19	 movzx	 ecx, BYTE PTR [ecx+ebx]
  01cb5	c1 f9 07	 sar	 ecx, 7
  01cb8	83 e1 01	 and	 ecx, 1
  01cbb	6b c9 1b	 imul	 ecx, 27			; 0000001bH
  01cbe	33 f9		 xor	 edi, ecx
  01cc0	c1 ff 07	 sar	 edi, 7
  01cc3	83 e7 01	 and	 edi, 1
  01cc6	6b ff 1b	 imul	 edi, 27			; 0000001bH
  01cc9	33 f7		 xor	 esi, edi
  01ccb	c1 fe 07	 sar	 esi, 7
  01cce	83 e6 01	 and	 esi, 1
  01cd1	6b f6 1b	 imul	 esi, 27			; 0000001bH
  01cd4	33 c6		 xor	 eax, esi
  01cd6	c1 f8 07	 sar	 eax, 7
  01cd9	83 e0 01	 and	 eax, 1
  01cdc	6b c0 1b	 imul	 eax, 27			; 0000001bH
  01cdf	33 d0		 xor	 edx, eax
  01ce1	d1 e2		 shl	 edx, 1
  01ce3	0f b6 45 bf	 movzx	 eax, BYTE PTR _c$[ebp]
  01ce7	8b 4d 0c	 mov	 ecx, DWORD PTR _r$[ebp]
  01cea	0f b6 04 01	 movzx	 eax, BYTE PTR [ecx+eax]
  01cee	d1 e0		 shl	 eax, 1
  01cf0	0f b6 4d bf	 movzx	 ecx, BYTE PTR _c$[ebp]
  01cf4	8b 75 0c	 mov	 esi, DWORD PTR _r$[ebp]
  01cf7	0f b6 0c 0e	 movzx	 ecx, BYTE PTR [esi+ecx]
  01cfb	c1 f9 07	 sar	 ecx, 7
  01cfe	83 e1 01	 and	 ecx, 1
  01d01	6b c9 1b	 imul	 ecx, 27			; 0000001bH
  01d04	33 c1		 xor	 eax, ecx
  01d06	d1 e0		 shl	 eax, 1
  01d08	0f b6 4d bf	 movzx	 ecx, BYTE PTR _c$[ebp]
  01d0c	8b 75 0c	 mov	 esi, DWORD PTR _r$[ebp]
  01d0f	0f b6 0c 0e	 movzx	 ecx, BYTE PTR [esi+ecx]
  01d13	d1 e1		 shl	 ecx, 1
  01d15	0f b6 75 bf	 movzx	 esi, BYTE PTR _c$[ebp]
  01d19	8b 7d 0c	 mov	 edi, DWORD PTR _r$[ebp]
  01d1c	0f b6 34 37	 movzx	 esi, BYTE PTR [edi+esi]
  01d20	c1 fe 07	 sar	 esi, 7
  01d23	83 e6 01	 and	 esi, 1
  01d26	6b f6 1b	 imul	 esi, 27			; 0000001bH
  01d29	33 ce		 xor	 ecx, esi
  01d2b	c1 f9 07	 sar	 ecx, 7
  01d2e	83 e1 01	 and	 ecx, 1
  01d31	6b c9 1b	 imul	 ecx, 27			; 0000001bH
  01d34	33 c1		 xor	 eax, ecx
  01d36	d1 e0		 shl	 eax, 1
  01d38	0f b6 4d bf	 movzx	 ecx, BYTE PTR _c$[ebp]
  01d3c	8b 75 0c	 mov	 esi, DWORD PTR _r$[ebp]
  01d3f	0f b6 0c 0e	 movzx	 ecx, BYTE PTR [esi+ecx]
  01d43	d1 e1		 shl	 ecx, 1
  01d45	0f b6 75 bf	 movzx	 esi, BYTE PTR _c$[ebp]
  01d49	8b 7d 0c	 mov	 edi, DWORD PTR _r$[ebp]
  01d4c	0f b6 34 37	 movzx	 esi, BYTE PTR [edi+esi]
  01d50	c1 fe 07	 sar	 esi, 7
  01d53	83 e6 01	 and	 esi, 1
  01d56	6b f6 1b	 imul	 esi, 27			; 0000001bH
  01d59	33 ce		 xor	 ecx, esi
  01d5b	d1 e1		 shl	 ecx, 1
  01d5d	0f b6 75 bf	 movzx	 esi, BYTE PTR _c$[ebp]
  01d61	8b 7d 0c	 mov	 edi, DWORD PTR _r$[ebp]
  01d64	0f b6 34 37	 movzx	 esi, BYTE PTR [edi+esi]
  01d68	d1 e6		 shl	 esi, 1
  01d6a	0f b6 7d bf	 movzx	 edi, BYTE PTR _c$[ebp]
  01d6e	8b 5d 0c	 mov	 ebx, DWORD PTR _r$[ebp]
  01d71	0f b6 3c 3b	 movzx	 edi, BYTE PTR [ebx+edi]
  01d75	c1 ff 07	 sar	 edi, 7
  01d78	83 e7 01	 and	 edi, 1
  01d7b	6b ff 1b	 imul	 edi, 27			; 0000001bH
  01d7e	33 f7		 xor	 esi, edi
  01d80	c1 fe 07	 sar	 esi, 7
  01d83	83 e6 01	 and	 esi, 1
  01d86	6b f6 1b	 imul	 esi, 27			; 0000001bH
  01d89	33 ce		 xor	 ecx, esi
  01d8b	c1 f9 07	 sar	 ecx, 7
  01d8e	83 e1 01	 and	 ecx, 1
  01d91	6b c9 1b	 imul	 ecx, 27			; 0000001bH
  01d94	33 c1		 xor	 eax, ecx
  01d96	d1 e0		 shl	 eax, 1
  01d98	0f b6 4d bf	 movzx	 ecx, BYTE PTR _c$[ebp]
  01d9c	8b 75 0c	 mov	 esi, DWORD PTR _r$[ebp]
  01d9f	0f b6 0c 0e	 movzx	 ecx, BYTE PTR [esi+ecx]
  01da3	d1 e1		 shl	 ecx, 1
  01da5	0f b6 75 bf	 movzx	 esi, BYTE PTR _c$[ebp]
  01da9	8b 7d 0c	 mov	 edi, DWORD PTR _r$[ebp]
  01dac	0f b6 34 37	 movzx	 esi, BYTE PTR [edi+esi]
  01db0	c1 fe 07	 sar	 esi, 7
  01db3	83 e6 01	 and	 esi, 1
  01db6	6b f6 1b	 imul	 esi, 27			; 0000001bH
  01db9	33 ce		 xor	 ecx, esi
  01dbb	d1 e1		 shl	 ecx, 1
  01dbd	0f b6 75 bf	 movzx	 esi, BYTE PTR _c$[ebp]
  01dc1	8b 7d 0c	 mov	 edi, DWORD PTR _r$[ebp]
  01dc4	0f b6 34 37	 movzx	 esi, BYTE PTR [edi+esi]
  01dc8	d1 e6		 shl	 esi, 1
  01dca	0f b6 7d bf	 movzx	 edi, BYTE PTR _c$[ebp]
  01dce	8b 5d 0c	 mov	 ebx, DWORD PTR _r$[ebp]
  01dd1	0f b6 3c 3b	 movzx	 edi, BYTE PTR [ebx+edi]
  01dd5	c1 ff 07	 sar	 edi, 7
  01dd8	83 e7 01	 and	 edi, 1
  01ddb	6b ff 1b	 imul	 edi, 27			; 0000001bH
  01dde	33 f7		 xor	 esi, edi
  01de0	c1 fe 07	 sar	 esi, 7
  01de3	83 e6 01	 and	 esi, 1
  01de6	6b f6 1b	 imul	 esi, 27			; 0000001bH
  01de9	33 ce		 xor	 ecx, esi
  01deb	d1 e1		 shl	 ecx, 1
  01ded	0f b6 75 bf	 movzx	 esi, BYTE PTR _c$[ebp]
  01df1	8b 7d 0c	 mov	 edi, DWORD PTR _r$[ebp]
  01df4	0f b6 34 37	 movzx	 esi, BYTE PTR [edi+esi]
  01df8	d1 e6		 shl	 esi, 1
  01dfa	0f b6 7d bf	 movzx	 edi, BYTE PTR _c$[ebp]
  01dfe	8b 5d 0c	 mov	 ebx, DWORD PTR _r$[ebp]
  01e01	0f b6 3c 3b	 movzx	 edi, BYTE PTR [ebx+edi]
  01e05	c1 ff 07	 sar	 edi, 7
  01e08	83 e7 01	 and	 edi, 1
  01e0b	6b ff 1b	 imul	 edi, 27			; 0000001bH
  01e0e	33 f7		 xor	 esi, edi
  01e10	d1 e6		 shl	 esi, 1
  01e12	0f b6 7d bf	 movzx	 edi, BYTE PTR _c$[ebp]
  01e16	8b 5d 0c	 mov	 ebx, DWORD PTR _r$[ebp]
  01e19	0f b6 3c 3b	 movzx	 edi, BYTE PTR [ebx+edi]
  01e1d	d1 e7		 shl	 edi, 1
  01e1f	0f b6 5d bf	 movzx	 ebx, BYTE PTR _c$[ebp]
  01e23	89 95 ec fe ff
	ff		 mov	 DWORD PTR tv9272[ebp], edx
  01e29	8b 55 0c	 mov	 edx, DWORD PTR _r$[ebp]
  01e2c	0f b6 14 1a	 movzx	 edx, BYTE PTR [edx+ebx]
  01e30	c1 fa 07	 sar	 edx, 7
  01e33	83 e2 01	 and	 edx, 1
  01e36	6b d2 1b	 imul	 edx, 27			; 0000001bH
  01e39	33 fa		 xor	 edi, edx
  01e3b	c1 ff 07	 sar	 edi, 7
  01e3e	83 e7 01	 and	 edi, 1
  01e41	6b ff 1b	 imul	 edi, 27			; 0000001bH
  01e44	33 f7		 xor	 esi, edi
  01e46	c1 fe 07	 sar	 esi, 7
  01e49	83 e6 01	 and	 esi, 1
  01e4c	6b f6 1b	 imul	 esi, 27			; 0000001bH
  01e4f	33 ce		 xor	 ecx, esi
  01e51	c1 f9 07	 sar	 ecx, 7
  01e54	83 e1 01	 and	 ecx, 1
  01e57	6b c9 1b	 imul	 ecx, 27			; 0000001bH
  01e5a	33 c1		 xor	 eax, ecx
  01e5c	c1 f8 07	 sar	 eax, 7
  01e5f	83 e0 01	 and	 eax, 1
  01e62	6b c0 1b	 imul	 eax, 27			; 0000001bH
  01e65	8b 8d ec fe ff
	ff		 mov	 ecx, DWORD PTR tv9272[ebp]
  01e6b	33 c8		 xor	 ecx, eax
  01e6d	6b c9 00	 imul	 ecx, 0
  01e70	8b 95 f0 fe ff
	ff		 mov	 edx, DWORD PTR tv9270[ebp]
  01e76	33 d1		 xor	 edx, ecx
  01e78	0f b6 45 bf	 movzx	 eax, BYTE PTR _c$[ebp]
  01e7c	8b 4d 0c	 mov	 ecx, DWORD PTR _r$[ebp]
  01e7f	0f b6 04 01	 movzx	 eax, BYTE PTR [ecx+eax]
  01e83	d1 e0		 shl	 eax, 1
  01e85	0f b6 4d bf	 movzx	 ecx, BYTE PTR _c$[ebp]
  01e89	8b 75 0c	 mov	 esi, DWORD PTR _r$[ebp]
  01e8c	0f b6 0c 0e	 movzx	 ecx, BYTE PTR [esi+ecx]
  01e90	c1 f9 07	 sar	 ecx, 7
  01e93	83 e1 01	 and	 ecx, 1
  01e96	6b c9 1b	 imul	 ecx, 27			; 0000001bH
  01e99	33 c1		 xor	 eax, ecx
  01e9b	d1 e0		 shl	 eax, 1
  01e9d	0f b6 4d bf	 movzx	 ecx, BYTE PTR _c$[ebp]
  01ea1	8b 75 0c	 mov	 esi, DWORD PTR _r$[ebp]
  01ea4	0f b6 0c 0e	 movzx	 ecx, BYTE PTR [esi+ecx]
  01ea8	d1 e1		 shl	 ecx, 1
  01eaa	0f b6 75 bf	 movzx	 esi, BYTE PTR _c$[ebp]
  01eae	8b 7d 0c	 mov	 edi, DWORD PTR _r$[ebp]
  01eb1	0f b6 34 37	 movzx	 esi, BYTE PTR [edi+esi]
  01eb5	c1 fe 07	 sar	 esi, 7
  01eb8	83 e6 01	 and	 esi, 1
  01ebb	6b f6 1b	 imul	 esi, 27			; 0000001bH
  01ebe	33 ce		 xor	 ecx, esi
  01ec0	c1 f9 07	 sar	 ecx, 7
  01ec3	83 e1 01	 and	 ecx, 1
  01ec6	6b c9 1b	 imul	 ecx, 27			; 0000001bH
  01ec9	33 c1		 xor	 eax, ecx
  01ecb	d1 e0		 shl	 eax, 1
  01ecd	0f b6 4d bf	 movzx	 ecx, BYTE PTR _c$[ebp]
  01ed1	8b 75 0c	 mov	 esi, DWORD PTR _r$[ebp]
  01ed4	0f b6 0c 0e	 movzx	 ecx, BYTE PTR [esi+ecx]
  01ed8	d1 e1		 shl	 ecx, 1
  01eda	0f b6 75 bf	 movzx	 esi, BYTE PTR _c$[ebp]
  01ede	8b 7d 0c	 mov	 edi, DWORD PTR _r$[ebp]
  01ee1	0f b6 34 37	 movzx	 esi, BYTE PTR [edi+esi]
  01ee5	c1 fe 07	 sar	 esi, 7
  01ee8	83 e6 01	 and	 esi, 1
  01eeb	6b f6 1b	 imul	 esi, 27			; 0000001bH
  01eee	33 ce		 xor	 ecx, esi
  01ef0	d1 e1		 shl	 ecx, 1
  01ef2	0f b6 75 bf	 movzx	 esi, BYTE PTR _c$[ebp]
  01ef6	8b 7d 0c	 mov	 edi, DWORD PTR _r$[ebp]
  01ef9	0f b6 34 37	 movzx	 esi, BYTE PTR [edi+esi]
  01efd	d1 e6		 shl	 esi, 1
  01eff	0f b6 7d bf	 movzx	 edi, BYTE PTR _c$[ebp]
  01f03	8b 5d 0c	 mov	 ebx, DWORD PTR _r$[ebp]
  01f06	0f b6 3c 3b	 movzx	 edi, BYTE PTR [ebx+edi]
  01f0a	c1 ff 07	 sar	 edi, 7
  01f0d	83 e7 01	 and	 edi, 1
  01f10	6b ff 1b	 imul	 edi, 27			; 0000001bH
  01f13	33 f7		 xor	 esi, edi
  01f15	c1 fe 07	 sar	 esi, 7
  01f18	83 e6 01	 and	 esi, 1
  01f1b	6b f6 1b	 imul	 esi, 27			; 0000001bH
  01f1e	33 ce		 xor	 ecx, esi
  01f20	c1 f9 07	 sar	 ecx, 7
  01f23	83 e1 01	 and	 ecx, 1
  01f26	6b c9 1b	 imul	 ecx, 27			; 0000001bH
  01f29	33 c1		 xor	 eax, ecx
  01f2b	d1 e0		 shl	 eax, 1
  01f2d	0f b6 4d bf	 movzx	 ecx, BYTE PTR _c$[ebp]
  01f31	8b 75 0c	 mov	 esi, DWORD PTR _r$[ebp]
  01f34	0f b6 0c 0e	 movzx	 ecx, BYTE PTR [esi+ecx]
  01f38	d1 e1		 shl	 ecx, 1
  01f3a	0f b6 75 bf	 movzx	 esi, BYTE PTR _c$[ebp]
  01f3e	8b 7d 0c	 mov	 edi, DWORD PTR _r$[ebp]
  01f41	0f b6 34 37	 movzx	 esi, BYTE PTR [edi+esi]
  01f45	c1 fe 07	 sar	 esi, 7
  01f48	83 e6 01	 and	 esi, 1
  01f4b	6b f6 1b	 imul	 esi, 27			; 0000001bH
  01f4e	33 ce		 xor	 ecx, esi
  01f50	d1 e1		 shl	 ecx, 1
  01f52	0f b6 75 bf	 movzx	 esi, BYTE PTR _c$[ebp]
  01f56	8b 7d 0c	 mov	 edi, DWORD PTR _r$[ebp]
  01f59	0f b6 34 37	 movzx	 esi, BYTE PTR [edi+esi]
  01f5d	d1 e6		 shl	 esi, 1
  01f5f	0f b6 7d bf	 movzx	 edi, BYTE PTR _c$[ebp]
  01f63	8b 5d 0c	 mov	 ebx, DWORD PTR _r$[ebp]
  01f66	0f b6 3c 3b	 movzx	 edi, BYTE PTR [ebx+edi]
  01f6a	c1 ff 07	 sar	 edi, 7
  01f6d	83 e7 01	 and	 edi, 1
  01f70	6b ff 1b	 imul	 edi, 27			; 0000001bH
  01f73	33 f7		 xor	 esi, edi
  01f75	c1 fe 07	 sar	 esi, 7
  01f78	83 e6 01	 and	 esi, 1
  01f7b	6b f6 1b	 imul	 esi, 27			; 0000001bH
  01f7e	33 ce		 xor	 ecx, esi
  01f80	d1 e1		 shl	 ecx, 1
  01f82	0f b6 75 bf	 movzx	 esi, BYTE PTR _c$[ebp]
  01f86	8b 7d 0c	 mov	 edi, DWORD PTR _r$[ebp]
  01f89	0f b6 34 37	 movzx	 esi, BYTE PTR [edi+esi]
  01f8d	d1 e6		 shl	 esi, 1
  01f8f	0f b6 7d bf	 movzx	 edi, BYTE PTR _c$[ebp]
  01f93	8b 5d 0c	 mov	 ebx, DWORD PTR _r$[ebp]
  01f96	0f b6 3c 3b	 movzx	 edi, BYTE PTR [ebx+edi]
  01f9a	c1 ff 07	 sar	 edi, 7
  01f9d	83 e7 01	 and	 edi, 1
  01fa0	6b ff 1b	 imul	 edi, 27			; 0000001bH
  01fa3	33 f7		 xor	 esi, edi
  01fa5	d1 e6		 shl	 esi, 1
  01fa7	0f b6 7d bf	 movzx	 edi, BYTE PTR _c$[ebp]
  01fab	8b 5d 0c	 mov	 ebx, DWORD PTR _r$[ebp]
  01fae	0f b6 3c 3b	 movzx	 edi, BYTE PTR [ebx+edi]
  01fb2	d1 e7		 shl	 edi, 1
  01fb4	0f b6 5d bf	 movzx	 ebx, BYTE PTR _c$[ebp]
  01fb8	89 95 e8 fe ff
	ff		 mov	 DWORD PTR tv9274[ebp], edx
  01fbe	8b 55 0c	 mov	 edx, DWORD PTR _r$[ebp]
  01fc1	0f b6 14 1a	 movzx	 edx, BYTE PTR [edx+ebx]
  01fc5	c1 fa 07	 sar	 edx, 7
  01fc8	83 e2 01	 and	 edx, 1
  01fcb	6b d2 1b	 imul	 edx, 27			; 0000001bH
  01fce	33 fa		 xor	 edi, edx
  01fd0	c1 ff 07	 sar	 edi, 7
  01fd3	83 e7 01	 and	 edi, 1
  01fd6	6b ff 1b	 imul	 edi, 27			; 0000001bH
  01fd9	33 f7		 xor	 esi, edi
  01fdb	c1 fe 07	 sar	 esi, 7
  01fde	83 e6 01	 and	 esi, 1
  01fe1	6b f6 1b	 imul	 esi, 27			; 0000001bH
  01fe4	33 ce		 xor	 ecx, esi
  01fe6	c1 f9 07	 sar	 ecx, 7
  01fe9	83 e1 01	 and	 ecx, 1
  01fec	6b c9 1b	 imul	 ecx, 27			; 0000001bH
  01fef	33 c1		 xor	 eax, ecx
  01ff1	d1 e0		 shl	 eax, 1
  01ff3	0f b6 4d bf	 movzx	 ecx, BYTE PTR _c$[ebp]
  01ff7	8b 55 0c	 mov	 edx, DWORD PTR _r$[ebp]
  01ffa	0f b6 0c 0a	 movzx	 ecx, BYTE PTR [edx+ecx]
  01ffe	d1 e1		 shl	 ecx, 1
  02000	0f b6 55 bf	 movzx	 edx, BYTE PTR _c$[ebp]
  02004	8b 75 0c	 mov	 esi, DWORD PTR _r$[ebp]
  02007	0f b6 14 16	 movzx	 edx, BYTE PTR [esi+edx]
  0200b	c1 fa 07	 sar	 edx, 7
  0200e	83 e2 01	 and	 edx, 1
  02011	6b d2 1b	 imul	 edx, 27			; 0000001bH
  02014	33 ca		 xor	 ecx, edx
  02016	d1 e1		 shl	 ecx, 1
  02018	0f b6 55 bf	 movzx	 edx, BYTE PTR _c$[ebp]
  0201c	8b 75 0c	 mov	 esi, DWORD PTR _r$[ebp]
  0201f	0f b6 14 16	 movzx	 edx, BYTE PTR [esi+edx]
  02023	d1 e2		 shl	 edx, 1
  02025	0f b6 75 bf	 movzx	 esi, BYTE PTR _c$[ebp]
  02029	8b 7d 0c	 mov	 edi, DWORD PTR _r$[ebp]
  0202c	0f b6 34 37	 movzx	 esi, BYTE PTR [edi+esi]
  02030	c1 fe 07	 sar	 esi, 7
  02033	83 e6 01	 and	 esi, 1
  02036	6b f6 1b	 imul	 esi, 27			; 0000001bH
  02039	33 d6		 xor	 edx, esi
  0203b	c1 fa 07	 sar	 edx, 7
  0203e	83 e2 01	 and	 edx, 1
  02041	6b d2 1b	 imul	 edx, 27			; 0000001bH
  02044	33 ca		 xor	 ecx, edx
  02046	d1 e1		 shl	 ecx, 1
  02048	0f b6 55 bf	 movzx	 edx, BYTE PTR _c$[ebp]
  0204c	8b 75 0c	 mov	 esi, DWORD PTR _r$[ebp]
  0204f	0f b6 14 16	 movzx	 edx, BYTE PTR [esi+edx]
  02053	d1 e2		 shl	 edx, 1
  02055	0f b6 75 bf	 movzx	 esi, BYTE PTR _c$[ebp]
  02059	8b 7d 0c	 mov	 edi, DWORD PTR _r$[ebp]
  0205c	0f b6 34 37	 movzx	 esi, BYTE PTR [edi+esi]
  02060	c1 fe 07	 sar	 esi, 7
  02063	83 e6 01	 and	 esi, 1
  02066	6b f6 1b	 imul	 esi, 27			; 0000001bH
  02069	33 d6		 xor	 edx, esi
  0206b	d1 e2		 shl	 edx, 1
  0206d	0f b6 75 bf	 movzx	 esi, BYTE PTR _c$[ebp]
  02071	8b 7d 0c	 mov	 edi, DWORD PTR _r$[ebp]
  02074	0f b6 34 37	 movzx	 esi, BYTE PTR [edi+esi]
  02078	d1 e6		 shl	 esi, 1
  0207a	0f b6 7d bf	 movzx	 edi, BYTE PTR _c$[ebp]
  0207e	8b 5d 0c	 mov	 ebx, DWORD PTR _r$[ebp]
  02081	0f b6 3c 3b	 movzx	 edi, BYTE PTR [ebx+edi]
  02085	c1 ff 07	 sar	 edi, 7
  02088	83 e7 01	 and	 edi, 1
  0208b	6b ff 1b	 imul	 edi, 27			; 0000001bH
  0208e	33 f7		 xor	 esi, edi
  02090	c1 fe 07	 sar	 esi, 7
  02093	83 e6 01	 and	 esi, 1
  02096	6b f6 1b	 imul	 esi, 27			; 0000001bH
  02099	33 d6		 xor	 edx, esi
  0209b	c1 fa 07	 sar	 edx, 7
  0209e	83 e2 01	 and	 edx, 1
  020a1	6b d2 1b	 imul	 edx, 27			; 0000001bH
  020a4	33 ca		 xor	 ecx, edx
  020a6	d1 e1		 shl	 ecx, 1
  020a8	0f b6 55 bf	 movzx	 edx, BYTE PTR _c$[ebp]
  020ac	8b 75 0c	 mov	 esi, DWORD PTR _r$[ebp]
  020af	0f b6 14 16	 movzx	 edx, BYTE PTR [esi+edx]
  020b3	d1 e2		 shl	 edx, 1
  020b5	0f b6 75 bf	 movzx	 esi, BYTE PTR _c$[ebp]
  020b9	8b 7d 0c	 mov	 edi, DWORD PTR _r$[ebp]
  020bc	0f b6 34 37	 movzx	 esi, BYTE PTR [edi+esi]
  020c0	c1 fe 07	 sar	 esi, 7
  020c3	83 e6 01	 and	 esi, 1
  020c6	6b f6 1b	 imul	 esi, 27			; 0000001bH
  020c9	33 d6		 xor	 edx, esi
  020cb	d1 e2		 shl	 edx, 1
  020cd	0f b6 75 bf	 movzx	 esi, BYTE PTR _c$[ebp]
  020d1	8b 7d 0c	 mov	 edi, DWORD PTR _r$[ebp]
  020d4	0f b6 34 37	 movzx	 esi, BYTE PTR [edi+esi]
  020d8	d1 e6		 shl	 esi, 1
  020da	0f b6 7d bf	 movzx	 edi, BYTE PTR _c$[ebp]
  020de	8b 5d 0c	 mov	 ebx, DWORD PTR _r$[ebp]
  020e1	0f b6 3c 3b	 movzx	 edi, BYTE PTR [ebx+edi]
  020e5	c1 ff 07	 sar	 edi, 7
  020e8	83 e7 01	 and	 edi, 1
  020eb	6b ff 1b	 imul	 edi, 27			; 0000001bH
  020ee	33 f7		 xor	 esi, edi
  020f0	c1 fe 07	 sar	 esi, 7
  020f3	83 e6 01	 and	 esi, 1
  020f6	6b f6 1b	 imul	 esi, 27			; 0000001bH
  020f9	33 d6		 xor	 edx, esi
  020fb	d1 e2		 shl	 edx, 1
  020fd	0f b6 75 bf	 movzx	 esi, BYTE PTR _c$[ebp]
  02101	8b 7d 0c	 mov	 edi, DWORD PTR _r$[ebp]
  02104	0f b6 34 37	 movzx	 esi, BYTE PTR [edi+esi]
  02108	d1 e6		 shl	 esi, 1
  0210a	0f b6 7d bf	 movzx	 edi, BYTE PTR _c$[ebp]
  0210e	8b 5d 0c	 mov	 ebx, DWORD PTR _r$[ebp]
  02111	0f b6 3c 3b	 movzx	 edi, BYTE PTR [ebx+edi]
  02115	c1 ff 07	 sar	 edi, 7
  02118	83 e7 01	 and	 edi, 1
  0211b	6b ff 1b	 imul	 edi, 27			; 0000001bH
  0211e	33 f7		 xor	 esi, edi
  02120	d1 e6		 shl	 esi, 1
  02122	0f b6 7d bf	 movzx	 edi, BYTE PTR _c$[ebp]
  02126	8b 5d 0c	 mov	 ebx, DWORD PTR _r$[ebp]
  02129	0f b6 3c 3b	 movzx	 edi, BYTE PTR [ebx+edi]
  0212d	d1 e7		 shl	 edi, 1
  0212f	0f b6 5d bf	 movzx	 ebx, BYTE PTR _c$[ebp]
  02133	89 85 e4 fe ff
	ff		 mov	 DWORD PTR tv9276[ebp], eax
  02139	8b 45 0c	 mov	 eax, DWORD PTR _r$[ebp]
  0213c	0f b6 04 18	 movzx	 eax, BYTE PTR [eax+ebx]
  02140	c1 f8 07	 sar	 eax, 7
  02143	83 e0 01	 and	 eax, 1
  02146	6b c0 1b	 imul	 eax, 27			; 0000001bH
  02149	33 f8		 xor	 edi, eax
  0214b	c1 ff 07	 sar	 edi, 7
  0214e	83 e7 01	 and	 edi, 1
  02151	6b ff 1b	 imul	 edi, 27			; 0000001bH
  02154	33 f7		 xor	 esi, edi
  02156	c1 fe 07	 sar	 esi, 7
  02159	83 e6 01	 and	 esi, 1
  0215c	6b f6 1b	 imul	 esi, 27			; 0000001bH
  0215f	33 d6		 xor	 edx, esi
  02161	c1 fa 07	 sar	 edx, 7
  02164	83 e2 01	 and	 edx, 1
  02167	6b d2 1b	 imul	 edx, 27			; 0000001bH
  0216a	33 ca		 xor	 ecx, edx
  0216c	c1 f9 07	 sar	 ecx, 7
  0216f	83 e1 01	 and	 ecx, 1
  02172	6b c9 1b	 imul	 ecx, 27			; 0000001bH
  02175	8b 95 e4 fe ff
	ff		 mov	 edx, DWORD PTR tv9276[ebp]
  0217b	33 d1		 xor	 edx, ecx
  0217d	d1 e2		 shl	 edx, 1
  0217f	0f b6 45 bf	 movzx	 eax, BYTE PTR _c$[ebp]
  02183	8b 4d 0c	 mov	 ecx, DWORD PTR _r$[ebp]
  02186	0f b6 04 01	 movzx	 eax, BYTE PTR [ecx+eax]
  0218a	d1 e0		 shl	 eax, 1
  0218c	0f b6 4d bf	 movzx	 ecx, BYTE PTR _c$[ebp]
  02190	8b 75 0c	 mov	 esi, DWORD PTR _r$[ebp]
  02193	0f b6 0c 0e	 movzx	 ecx, BYTE PTR [esi+ecx]
  02197	c1 f9 07	 sar	 ecx, 7
  0219a	83 e1 01	 and	 ecx, 1
  0219d	6b c9 1b	 imul	 ecx, 27			; 0000001bH
  021a0	33 c1		 xor	 eax, ecx
  021a2	d1 e0		 shl	 eax, 1
  021a4	0f b6 4d bf	 movzx	 ecx, BYTE PTR _c$[ebp]
  021a8	8b 75 0c	 mov	 esi, DWORD PTR _r$[ebp]
  021ab	0f b6 0c 0e	 movzx	 ecx, BYTE PTR [esi+ecx]
  021af	d1 e1		 shl	 ecx, 1
  021b1	0f b6 75 bf	 movzx	 esi, BYTE PTR _c$[ebp]
  021b5	8b 7d 0c	 mov	 edi, DWORD PTR _r$[ebp]
  021b8	0f b6 34 37	 movzx	 esi, BYTE PTR [edi+esi]
  021bc	c1 fe 07	 sar	 esi, 7
  021bf	83 e6 01	 and	 esi, 1
  021c2	6b f6 1b	 imul	 esi, 27			; 0000001bH
  021c5	33 ce		 xor	 ecx, esi
  021c7	c1 f9 07	 sar	 ecx, 7
  021ca	83 e1 01	 and	 ecx, 1
  021cd	6b c9 1b	 imul	 ecx, 27			; 0000001bH
  021d0	33 c1		 xor	 eax, ecx
  021d2	d1 e0		 shl	 eax, 1
  021d4	0f b6 4d bf	 movzx	 ecx, BYTE PTR _c$[ebp]
  021d8	8b 75 0c	 mov	 esi, DWORD PTR _r$[ebp]
  021db	0f b6 0c 0e	 movzx	 ecx, BYTE PTR [esi+ecx]
  021df	d1 e1		 shl	 ecx, 1
  021e1	0f b6 75 bf	 movzx	 esi, BYTE PTR _c$[ebp]
  021e5	8b 7d 0c	 mov	 edi, DWORD PTR _r$[ebp]
  021e8	0f b6 34 37	 movzx	 esi, BYTE PTR [edi+esi]
  021ec	c1 fe 07	 sar	 esi, 7
  021ef	83 e6 01	 and	 esi, 1
  021f2	6b f6 1b	 imul	 esi, 27			; 0000001bH
  021f5	33 ce		 xor	 ecx, esi
  021f7	d1 e1		 shl	 ecx, 1
  021f9	0f b6 75 bf	 movzx	 esi, BYTE PTR _c$[ebp]
  021fd	8b 7d 0c	 mov	 edi, DWORD PTR _r$[ebp]
  02200	0f b6 34 37	 movzx	 esi, BYTE PTR [edi+esi]
  02204	d1 e6		 shl	 esi, 1
  02206	0f b6 7d bf	 movzx	 edi, BYTE PTR _c$[ebp]
  0220a	8b 5d 0c	 mov	 ebx, DWORD PTR _r$[ebp]
  0220d	0f b6 3c 3b	 movzx	 edi, BYTE PTR [ebx+edi]
  02211	c1 ff 07	 sar	 edi, 7
  02214	83 e7 01	 and	 edi, 1
  02217	6b ff 1b	 imul	 edi, 27			; 0000001bH
  0221a	33 f7		 xor	 esi, edi
  0221c	c1 fe 07	 sar	 esi, 7
  0221f	83 e6 01	 and	 esi, 1
  02222	6b f6 1b	 imul	 esi, 27			; 0000001bH
  02225	33 ce		 xor	 ecx, esi
  02227	c1 f9 07	 sar	 ecx, 7
  0222a	83 e1 01	 and	 ecx, 1
  0222d	6b c9 1b	 imul	 ecx, 27			; 0000001bH
  02230	33 c1		 xor	 eax, ecx
  02232	d1 e0		 shl	 eax, 1
  02234	0f b6 4d bf	 movzx	 ecx, BYTE PTR _c$[ebp]
  02238	8b 75 0c	 mov	 esi, DWORD PTR _r$[ebp]
  0223b	0f b6 0c 0e	 movzx	 ecx, BYTE PTR [esi+ecx]
  0223f	d1 e1		 shl	 ecx, 1
  02241	0f b6 75 bf	 movzx	 esi, BYTE PTR _c$[ebp]
  02245	8b 7d 0c	 mov	 edi, DWORD PTR _r$[ebp]
  02248	0f b6 34 37	 movzx	 esi, BYTE PTR [edi+esi]
  0224c	c1 fe 07	 sar	 esi, 7
  0224f	83 e6 01	 and	 esi, 1
  02252	6b f6 1b	 imul	 esi, 27			; 0000001bH
  02255	33 ce		 xor	 ecx, esi
  02257	d1 e1		 shl	 ecx, 1
  02259	0f b6 75 bf	 movzx	 esi, BYTE PTR _c$[ebp]
  0225d	8b 7d 0c	 mov	 edi, DWORD PTR _r$[ebp]
  02260	0f b6 34 37	 movzx	 esi, BYTE PTR [edi+esi]
  02264	d1 e6		 shl	 esi, 1
  02266	0f b6 7d bf	 movzx	 edi, BYTE PTR _c$[ebp]
  0226a	8b 5d 0c	 mov	 ebx, DWORD PTR _r$[ebp]
  0226d	0f b6 3c 3b	 movzx	 edi, BYTE PTR [ebx+edi]
  02271	c1 ff 07	 sar	 edi, 7
  02274	83 e7 01	 and	 edi, 1
  02277	6b ff 1b	 imul	 edi, 27			; 0000001bH
  0227a	33 f7		 xor	 esi, edi
  0227c	c1 fe 07	 sar	 esi, 7
  0227f	83 e6 01	 and	 esi, 1
  02282	6b f6 1b	 imul	 esi, 27			; 0000001bH
  02285	33 ce		 xor	 ecx, esi
  02287	d1 e1		 shl	 ecx, 1
  02289	0f b6 75 bf	 movzx	 esi, BYTE PTR _c$[ebp]
  0228d	8b 7d 0c	 mov	 edi, DWORD PTR _r$[ebp]
  02290	0f b6 34 37	 movzx	 esi, BYTE PTR [edi+esi]
  02294	d1 e6		 shl	 esi, 1
  02296	0f b6 7d bf	 movzx	 edi, BYTE PTR _c$[ebp]
  0229a	8b 5d 0c	 mov	 ebx, DWORD PTR _r$[ebp]
  0229d	0f b6 3c 3b	 movzx	 edi, BYTE PTR [ebx+edi]
  022a1	c1 ff 07	 sar	 edi, 7
  022a4	83 e7 01	 and	 edi, 1
  022a7	6b ff 1b	 imul	 edi, 27			; 0000001bH
  022aa	33 f7		 xor	 esi, edi
  022ac	d1 e6		 shl	 esi, 1
  022ae	0f b6 7d bf	 movzx	 edi, BYTE PTR _c$[ebp]
  022b2	8b 5d 0c	 mov	 ebx, DWORD PTR _r$[ebp]
  022b5	0f b6 3c 3b	 movzx	 edi, BYTE PTR [ebx+edi]
  022b9	d1 e7		 shl	 edi, 1
  022bb	0f b6 5d bf	 movzx	 ebx, BYTE PTR _c$[ebp]
  022bf	89 95 e0 fe ff
	ff		 mov	 DWORD PTR tv9278[ebp], edx
  022c5	8b 55 0c	 mov	 edx, DWORD PTR _r$[ebp]
  022c8	0f b6 14 1a	 movzx	 edx, BYTE PTR [edx+ebx]
  022cc	c1 fa 07	 sar	 edx, 7
  022cf	83 e2 01	 and	 edx, 1
  022d2	6b d2 1b	 imul	 edx, 27			; 0000001bH
  022d5	33 fa		 xor	 edi, edx
  022d7	c1 ff 07	 sar	 edi, 7
  022da	83 e7 01	 and	 edi, 1
  022dd	6b ff 1b	 imul	 edi, 27			; 0000001bH
  022e0	33 f7		 xor	 esi, edi
  022e2	c1 fe 07	 sar	 esi, 7
  022e5	83 e6 01	 and	 esi, 1
  022e8	6b f6 1b	 imul	 esi, 27			; 0000001bH
  022eb	33 ce		 xor	 ecx, esi
  022ed	c1 f9 07	 sar	 ecx, 7
  022f0	83 e1 01	 and	 ecx, 1
  022f3	6b c9 1b	 imul	 ecx, 27			; 0000001bH
  022f6	33 c1		 xor	 eax, ecx
  022f8	d1 e0		 shl	 eax, 1
  022fa	0f b6 4d bf	 movzx	 ecx, BYTE PTR _c$[ebp]
  022fe	8b 55 0c	 mov	 edx, DWORD PTR _r$[ebp]
  02301	0f b6 0c 0a	 movzx	 ecx, BYTE PTR [edx+ecx]
  02305	d1 e1		 shl	 ecx, 1
  02307	0f b6 55 bf	 movzx	 edx, BYTE PTR _c$[ebp]
  0230b	8b 75 0c	 mov	 esi, DWORD PTR _r$[ebp]
  0230e	0f b6 14 16	 movzx	 edx, BYTE PTR [esi+edx]
  02312	c1 fa 07	 sar	 edx, 7
  02315	83 e2 01	 and	 edx, 1
  02318	6b d2 1b	 imul	 edx, 27			; 0000001bH
  0231b	33 ca		 xor	 ecx, edx
  0231d	d1 e1		 shl	 ecx, 1
  0231f	0f b6 55 bf	 movzx	 edx, BYTE PTR _c$[ebp]
  02323	8b 75 0c	 mov	 esi, DWORD PTR _r$[ebp]
  02326	0f b6 14 16	 movzx	 edx, BYTE PTR [esi+edx]
  0232a	d1 e2		 shl	 edx, 1
  0232c	0f b6 75 bf	 movzx	 esi, BYTE PTR _c$[ebp]
  02330	8b 7d 0c	 mov	 edi, DWORD PTR _r$[ebp]
  02333	0f b6 34 37	 movzx	 esi, BYTE PTR [edi+esi]
  02337	c1 fe 07	 sar	 esi, 7
  0233a	83 e6 01	 and	 esi, 1
  0233d	6b f6 1b	 imul	 esi, 27			; 0000001bH
  02340	33 d6		 xor	 edx, esi
  02342	c1 fa 07	 sar	 edx, 7
  02345	83 e2 01	 and	 edx, 1
  02348	6b d2 1b	 imul	 edx, 27			; 0000001bH
  0234b	33 ca		 xor	 ecx, edx
  0234d	d1 e1		 shl	 ecx, 1
  0234f	0f b6 55 bf	 movzx	 edx, BYTE PTR _c$[ebp]
  02353	8b 75 0c	 mov	 esi, DWORD PTR _r$[ebp]
  02356	0f b6 14 16	 movzx	 edx, BYTE PTR [esi+edx]
  0235a	d1 e2		 shl	 edx, 1
  0235c	0f b6 75 bf	 movzx	 esi, BYTE PTR _c$[ebp]
  02360	8b 7d 0c	 mov	 edi, DWORD PTR _r$[ebp]
  02363	0f b6 34 37	 movzx	 esi, BYTE PTR [edi+esi]
  02367	c1 fe 07	 sar	 esi, 7
  0236a	83 e6 01	 and	 esi, 1
  0236d	6b f6 1b	 imul	 esi, 27			; 0000001bH
  02370	33 d6		 xor	 edx, esi
  02372	d1 e2		 shl	 edx, 1
  02374	0f b6 75 bf	 movzx	 esi, BYTE PTR _c$[ebp]
  02378	8b 7d 0c	 mov	 edi, DWORD PTR _r$[ebp]
  0237b	0f b6 34 37	 movzx	 esi, BYTE PTR [edi+esi]
  0237f	d1 e6		 shl	 esi, 1
  02381	0f b6 7d bf	 movzx	 edi, BYTE PTR _c$[ebp]
  02385	8b 5d 0c	 mov	 ebx, DWORD PTR _r$[ebp]
  02388	0f b6 3c 3b	 movzx	 edi, BYTE PTR [ebx+edi]
  0238c	c1 ff 07	 sar	 edi, 7
  0238f	83 e7 01	 and	 edi, 1
  02392	6b ff 1b	 imul	 edi, 27			; 0000001bH
  02395	33 f7		 xor	 esi, edi
  02397	c1 fe 07	 sar	 esi, 7
  0239a	83 e6 01	 and	 esi, 1
  0239d	6b f6 1b	 imul	 esi, 27			; 0000001bH
  023a0	33 d6		 xor	 edx, esi
  023a2	c1 fa 07	 sar	 edx, 7
  023a5	83 e2 01	 and	 edx, 1
  023a8	6b d2 1b	 imul	 edx, 27			; 0000001bH
  023ab	33 ca		 xor	 ecx, edx
  023ad	d1 e1		 shl	 ecx, 1
  023af	0f b6 55 bf	 movzx	 edx, BYTE PTR _c$[ebp]
  023b3	8b 75 0c	 mov	 esi, DWORD PTR _r$[ebp]
  023b6	0f b6 14 16	 movzx	 edx, BYTE PTR [esi+edx]
  023ba	d1 e2		 shl	 edx, 1
  023bc	0f b6 75 bf	 movzx	 esi, BYTE PTR _c$[ebp]
  023c0	8b 7d 0c	 mov	 edi, DWORD PTR _r$[ebp]
  023c3	0f b6 34 37	 movzx	 esi, BYTE PTR [edi+esi]
  023c7	c1 fe 07	 sar	 esi, 7
  023ca	83 e6 01	 and	 esi, 1
  023cd	6b f6 1b	 imul	 esi, 27			; 0000001bH
  023d0	33 d6		 xor	 edx, esi
  023d2	d1 e2		 shl	 edx, 1
  023d4	0f b6 75 bf	 movzx	 esi, BYTE PTR _c$[ebp]
  023d8	8b 7d 0c	 mov	 edi, DWORD PTR _r$[ebp]
  023db	0f b6 34 37	 movzx	 esi, BYTE PTR [edi+esi]
  023df	d1 e6		 shl	 esi, 1
  023e1	0f b6 7d bf	 movzx	 edi, BYTE PTR _c$[ebp]
  023e5	8b 5d 0c	 mov	 ebx, DWORD PTR _r$[ebp]
  023e8	0f b6 3c 3b	 movzx	 edi, BYTE PTR [ebx+edi]
  023ec	c1 ff 07	 sar	 edi, 7
  023ef	83 e7 01	 and	 edi, 1
  023f2	6b ff 1b	 imul	 edi, 27			; 0000001bH
  023f5	33 f7		 xor	 esi, edi
  023f7	c1 fe 07	 sar	 esi, 7
  023fa	83 e6 01	 and	 esi, 1
  023fd	6b f6 1b	 imul	 esi, 27			; 0000001bH
  02400	33 d6		 xor	 edx, esi
  02402	d1 e2		 shl	 edx, 1
  02404	0f b6 75 bf	 movzx	 esi, BYTE PTR _c$[ebp]
  02408	8b 7d 0c	 mov	 edi, DWORD PTR _r$[ebp]
  0240b	0f b6 34 37	 movzx	 esi, BYTE PTR [edi+esi]
  0240f	d1 e6		 shl	 esi, 1
  02411	0f b6 7d bf	 movzx	 edi, BYTE PTR _c$[ebp]
  02415	8b 5d 0c	 mov	 ebx, DWORD PTR _r$[ebp]
  02418	0f b6 3c 3b	 movzx	 edi, BYTE PTR [ebx+edi]
  0241c	c1 ff 07	 sar	 edi, 7
  0241f	83 e7 01	 and	 edi, 1
  02422	6b ff 1b	 imul	 edi, 27			; 0000001bH
  02425	33 f7		 xor	 esi, edi
  02427	d1 e6		 shl	 esi, 1
  02429	0f b6 7d bf	 movzx	 edi, BYTE PTR _c$[ebp]
  0242d	8b 5d 0c	 mov	 ebx, DWORD PTR _r$[ebp]
  02430	0f b6 3c 3b	 movzx	 edi, BYTE PTR [ebx+edi]
  02434	d1 e7		 shl	 edi, 1
  02436	0f b6 5d bf	 movzx	 ebx, BYTE PTR _c$[ebp]
  0243a	89 85 dc fe ff
	ff		 mov	 DWORD PTR tv9280[ebp], eax
  02440	8b 45 0c	 mov	 eax, DWORD PTR _r$[ebp]
  02443	0f b6 04 18	 movzx	 eax, BYTE PTR [eax+ebx]
  02447	c1 f8 07	 sar	 eax, 7
  0244a	83 e0 01	 and	 eax, 1
  0244d	6b c0 1b	 imul	 eax, 27			; 0000001bH
  02450	33 f8		 xor	 edi, eax
  02452	c1 ff 07	 sar	 edi, 7
  02455	83 e7 01	 and	 edi, 1
  02458	6b ff 1b	 imul	 edi, 27			; 0000001bH
  0245b	33 f7		 xor	 esi, edi
  0245d	c1 fe 07	 sar	 esi, 7
  02460	83 e6 01	 and	 esi, 1
  02463	6b f6 1b	 imul	 esi, 27			; 0000001bH
  02466	33 d6		 xor	 edx, esi
  02468	c1 fa 07	 sar	 edx, 7
  0246b	83 e2 01	 and	 edx, 1
  0246e	6b d2 1b	 imul	 edx, 27			; 0000001bH
  02471	33 ca		 xor	 ecx, edx
  02473	c1 f9 07	 sar	 ecx, 7
  02476	83 e1 01	 and	 ecx, 1
  02479	6b c9 1b	 imul	 ecx, 27			; 0000001bH
  0247c	8b 95 dc fe ff
	ff		 mov	 edx, DWORD PTR tv9280[ebp]
  02482	33 d1		 xor	 edx, ecx
  02484	c1 fa 07	 sar	 edx, 7
  02487	83 e2 01	 and	 edx, 1
  0248a	6b d2 1b	 imul	 edx, 27			; 0000001bH
  0248d	8b 85 e0 fe ff
	ff		 mov	 eax, DWORD PTR tv9278[ebp]
  02493	33 c2		 xor	 eax, edx
  02495	6b c0 00	 imul	 eax, 0
  02498	8b 8d e8 fe ff
	ff		 mov	 ecx, DWORD PTR tv9274[ebp]
  0249e	33 c8		 xor	 ecx, eax
  024a0	0f b6 55 bf	 movzx	 edx, BYTE PTR _c$[ebp]
  024a4	8b 45 0c	 mov	 eax, DWORD PTR _r$[ebp]
  024a7	0f b6 14 10	 movzx	 edx, BYTE PTR [eax+edx]
  024ab	d1 e2		 shl	 edx, 1
  024ad	0f b6 45 bf	 movzx	 eax, BYTE PTR _c$[ebp]
  024b1	8b 75 0c	 mov	 esi, DWORD PTR _r$[ebp]
  024b4	0f b6 04 06	 movzx	 eax, BYTE PTR [esi+eax]
  024b8	c1 f8 07	 sar	 eax, 7
  024bb	83 e0 01	 and	 eax, 1
  024be	6b c0 1b	 imul	 eax, 27			; 0000001bH
  024c1	33 d0		 xor	 edx, eax
  024c3	d1 e2		 shl	 edx, 1
  024c5	0f b6 45 bf	 movzx	 eax, BYTE PTR _c$[ebp]
  024c9	8b 75 0c	 mov	 esi, DWORD PTR _r$[ebp]
  024cc	0f b6 04 06	 movzx	 eax, BYTE PTR [esi+eax]
  024d0	d1 e0		 shl	 eax, 1
  024d2	0f b6 75 bf	 movzx	 esi, BYTE PTR _c$[ebp]
  024d6	8b 7d 0c	 mov	 edi, DWORD PTR _r$[ebp]
  024d9	0f b6 34 37	 movzx	 esi, BYTE PTR [edi+esi]
  024dd	c1 fe 07	 sar	 esi, 7
  024e0	83 e6 01	 and	 esi, 1
  024e3	6b f6 1b	 imul	 esi, 27			; 0000001bH
  024e6	33 c6		 xor	 eax, esi
  024e8	c1 f8 07	 sar	 eax, 7
  024eb	83 e0 01	 and	 eax, 1
  024ee	6b c0 1b	 imul	 eax, 27			; 0000001bH
  024f1	33 d0		 xor	 edx, eax
  024f3	d1 e2		 shl	 edx, 1
  024f5	0f b6 45 bf	 movzx	 eax, BYTE PTR _c$[ebp]
  024f9	8b 75 0c	 mov	 esi, DWORD PTR _r$[ebp]
  024fc	0f b6 04 06	 movzx	 eax, BYTE PTR [esi+eax]
  02500	d1 e0		 shl	 eax, 1
  02502	0f b6 75 bf	 movzx	 esi, BYTE PTR _c$[ebp]
  02506	8b 7d 0c	 mov	 edi, DWORD PTR _r$[ebp]
  02509	0f b6 34 37	 movzx	 esi, BYTE PTR [edi+esi]
  0250d	c1 fe 07	 sar	 esi, 7
  02510	83 e6 01	 and	 esi, 1
  02513	6b f6 1b	 imul	 esi, 27			; 0000001bH
  02516	33 c6		 xor	 eax, esi
  02518	d1 e0		 shl	 eax, 1
  0251a	0f b6 75 bf	 movzx	 esi, BYTE PTR _c$[ebp]
  0251e	8b 7d 0c	 mov	 edi, DWORD PTR _r$[ebp]
  02521	0f b6 34 37	 movzx	 esi, BYTE PTR [edi+esi]
  02525	d1 e6		 shl	 esi, 1
  02527	0f b6 7d bf	 movzx	 edi, BYTE PTR _c$[ebp]
  0252b	8b 5d 0c	 mov	 ebx, DWORD PTR _r$[ebp]
  0252e	0f b6 3c 3b	 movzx	 edi, BYTE PTR [ebx+edi]
  02532	c1 ff 07	 sar	 edi, 7
  02535	83 e7 01	 and	 edi, 1
  02538	6b ff 1b	 imul	 edi, 27			; 0000001bH
  0253b	33 f7		 xor	 esi, edi
  0253d	c1 fe 07	 sar	 esi, 7
  02540	83 e6 01	 and	 esi, 1
  02543	6b f6 1b	 imul	 esi, 27			; 0000001bH
  02546	33 c6		 xor	 eax, esi
  02548	c1 f8 07	 sar	 eax, 7
  0254b	83 e0 01	 and	 eax, 1
  0254e	6b c0 1b	 imul	 eax, 27			; 0000001bH
  02551	33 d0		 xor	 edx, eax
  02553	d1 e2		 shl	 edx, 1
  02555	0f b6 45 bf	 movzx	 eax, BYTE PTR _c$[ebp]
  02559	8b 75 0c	 mov	 esi, DWORD PTR _r$[ebp]
  0255c	0f b6 04 06	 movzx	 eax, BYTE PTR [esi+eax]
  02560	d1 e0		 shl	 eax, 1
  02562	0f b6 75 bf	 movzx	 esi, BYTE PTR _c$[ebp]
  02566	8b 7d 0c	 mov	 edi, DWORD PTR _r$[ebp]
  02569	0f b6 34 37	 movzx	 esi, BYTE PTR [edi+esi]
  0256d	c1 fe 07	 sar	 esi, 7
  02570	83 e6 01	 and	 esi, 1
  02573	6b f6 1b	 imul	 esi, 27			; 0000001bH
  02576	33 c6		 xor	 eax, esi
  02578	d1 e0		 shl	 eax, 1
  0257a	0f b6 75 bf	 movzx	 esi, BYTE PTR _c$[ebp]
  0257e	8b 7d 0c	 mov	 edi, DWORD PTR _r$[ebp]
  02581	0f b6 34 37	 movzx	 esi, BYTE PTR [edi+esi]
  02585	d1 e6		 shl	 esi, 1
  02587	0f b6 7d bf	 movzx	 edi, BYTE PTR _c$[ebp]
  0258b	8b 5d 0c	 mov	 ebx, DWORD PTR _r$[ebp]
  0258e	0f b6 3c 3b	 movzx	 edi, BYTE PTR [ebx+edi]
  02592	c1 ff 07	 sar	 edi, 7
  02595	83 e7 01	 and	 edi, 1
  02598	6b ff 1b	 imul	 edi, 27			; 0000001bH
  0259b	33 f7		 xor	 esi, edi
  0259d	c1 fe 07	 sar	 esi, 7
  025a0	83 e6 01	 and	 esi, 1
  025a3	6b f6 1b	 imul	 esi, 27			; 0000001bH
  025a6	33 c6		 xor	 eax, esi
  025a8	d1 e0		 shl	 eax, 1
  025aa	0f b6 75 bf	 movzx	 esi, BYTE PTR _c$[ebp]
  025ae	8b 7d 0c	 mov	 edi, DWORD PTR _r$[ebp]
  025b1	0f b6 34 37	 movzx	 esi, BYTE PTR [edi+esi]
  025b5	d1 e6		 shl	 esi, 1
  025b7	0f b6 7d bf	 movzx	 edi, BYTE PTR _c$[ebp]
  025bb	8b 5d 0c	 mov	 ebx, DWORD PTR _r$[ebp]
  025be	0f b6 3c 3b	 movzx	 edi, BYTE PTR [ebx+edi]
  025c2	c1 ff 07	 sar	 edi, 7
  025c5	83 e7 01	 and	 edi, 1
  025c8	6b ff 1b	 imul	 edi, 27			; 0000001bH
  025cb	33 f7		 xor	 esi, edi
  025cd	d1 e6		 shl	 esi, 1
  025cf	0f b6 7d bf	 movzx	 edi, BYTE PTR _c$[ebp]
  025d3	8b 5d 0c	 mov	 ebx, DWORD PTR _r$[ebp]
  025d6	0f b6 3c 3b	 movzx	 edi, BYTE PTR [ebx+edi]
  025da	d1 e7		 shl	 edi, 1
  025dc	0f b6 5d bf	 movzx	 ebx, BYTE PTR _c$[ebp]
  025e0	89 8d d8 fe ff
	ff		 mov	 DWORD PTR tv9282[ebp], ecx
  025e6	8b 4d 0c	 mov	 ecx, DWORD PTR _r$[ebp]
  025e9	0f b6 0c 19	 movzx	 ecx, BYTE PTR [ecx+ebx]
  025ed	c1 f9 07	 sar	 ecx, 7
  025f0	83 e1 01	 and	 ecx, 1
  025f3	6b c9 1b	 imul	 ecx, 27			; 0000001bH
  025f6	33 f9		 xor	 edi, ecx
  025f8	c1 ff 07	 sar	 edi, 7
  025fb	83 e7 01	 and	 edi, 1
  025fe	6b ff 1b	 imul	 edi, 27			; 0000001bH
  02601	33 f7		 xor	 esi, edi
  02603	c1 fe 07	 sar	 esi, 7
  02606	83 e6 01	 and	 esi, 1
  02609	6b f6 1b	 imul	 esi, 27			; 0000001bH
  0260c	33 c6		 xor	 eax, esi
  0260e	c1 f8 07	 sar	 eax, 7
  02611	83 e0 01	 and	 eax, 1
  02614	6b c0 1b	 imul	 eax, 27			; 0000001bH
  02617	33 d0		 xor	 edx, eax
  02619	d1 e2		 shl	 edx, 1
  0261b	0f b6 45 bf	 movzx	 eax, BYTE PTR _c$[ebp]
  0261f	8b 4d 0c	 mov	 ecx, DWORD PTR _r$[ebp]
  02622	0f b6 04 01	 movzx	 eax, BYTE PTR [ecx+eax]
  02626	d1 e0		 shl	 eax, 1
  02628	0f b6 4d bf	 movzx	 ecx, BYTE PTR _c$[ebp]
  0262c	8b 75 0c	 mov	 esi, DWORD PTR _r$[ebp]
  0262f	0f b6 0c 0e	 movzx	 ecx, BYTE PTR [esi+ecx]
  02633	c1 f9 07	 sar	 ecx, 7
  02636	83 e1 01	 and	 ecx, 1
  02639	6b c9 1b	 imul	 ecx, 27			; 0000001bH
  0263c	33 c1		 xor	 eax, ecx
  0263e	d1 e0		 shl	 eax, 1
  02640	0f b6 4d bf	 movzx	 ecx, BYTE PTR _c$[ebp]
  02644	8b 75 0c	 mov	 esi, DWORD PTR _r$[ebp]
  02647	0f b6 0c 0e	 movzx	 ecx, BYTE PTR [esi+ecx]
  0264b	d1 e1		 shl	 ecx, 1
  0264d	0f b6 75 bf	 movzx	 esi, BYTE PTR _c$[ebp]
  02651	8b 7d 0c	 mov	 edi, DWORD PTR _r$[ebp]
  02654	0f b6 34 37	 movzx	 esi, BYTE PTR [edi+esi]
  02658	c1 fe 07	 sar	 esi, 7
  0265b	83 e6 01	 and	 esi, 1
  0265e	6b f6 1b	 imul	 esi, 27			; 0000001bH
  02661	33 ce		 xor	 ecx, esi
  02663	c1 f9 07	 sar	 ecx, 7
  02666	83 e1 01	 and	 ecx, 1
  02669	6b c9 1b	 imul	 ecx, 27			; 0000001bH
  0266c	33 c1		 xor	 eax, ecx
  0266e	d1 e0		 shl	 eax, 1
  02670	0f b6 4d bf	 movzx	 ecx, BYTE PTR _c$[ebp]
  02674	8b 75 0c	 mov	 esi, DWORD PTR _r$[ebp]
  02677	0f b6 0c 0e	 movzx	 ecx, BYTE PTR [esi+ecx]
  0267b	d1 e1		 shl	 ecx, 1
  0267d	0f b6 75 bf	 movzx	 esi, BYTE PTR _c$[ebp]
  02681	8b 7d 0c	 mov	 edi, DWORD PTR _r$[ebp]
  02684	0f b6 34 37	 movzx	 esi, BYTE PTR [edi+esi]
  02688	c1 fe 07	 sar	 esi, 7
  0268b	83 e6 01	 and	 esi, 1
  0268e	6b f6 1b	 imul	 esi, 27			; 0000001bH
  02691	33 ce		 xor	 ecx, esi
  02693	d1 e1		 shl	 ecx, 1
  02695	0f b6 75 bf	 movzx	 esi, BYTE PTR _c$[ebp]
  02699	8b 7d 0c	 mov	 edi, DWORD PTR _r$[ebp]
  0269c	0f b6 34 37	 movzx	 esi, BYTE PTR [edi+esi]
  026a0	d1 e6		 shl	 esi, 1
  026a2	0f b6 7d bf	 movzx	 edi, BYTE PTR _c$[ebp]
  026a6	8b 5d 0c	 mov	 ebx, DWORD PTR _r$[ebp]
  026a9	0f b6 3c 3b	 movzx	 edi, BYTE PTR [ebx+edi]
  026ad	c1 ff 07	 sar	 edi, 7
  026b0	83 e7 01	 and	 edi, 1
  026b3	6b ff 1b	 imul	 edi, 27			; 0000001bH
  026b6	33 f7		 xor	 esi, edi
  026b8	c1 fe 07	 sar	 esi, 7
  026bb	83 e6 01	 and	 esi, 1
  026be	6b f6 1b	 imul	 esi, 27			; 0000001bH
  026c1	33 ce		 xor	 ecx, esi
  026c3	c1 f9 07	 sar	 ecx, 7
  026c6	83 e1 01	 and	 ecx, 1
  026c9	6b c9 1b	 imul	 ecx, 27			; 0000001bH
  026cc	33 c1		 xor	 eax, ecx
  026ce	d1 e0		 shl	 eax, 1
  026d0	0f b6 4d bf	 movzx	 ecx, BYTE PTR _c$[ebp]
  026d4	8b 75 0c	 mov	 esi, DWORD PTR _r$[ebp]
  026d7	0f b6 0c 0e	 movzx	 ecx, BYTE PTR [esi+ecx]
  026db	d1 e1		 shl	 ecx, 1
  026dd	0f b6 75 bf	 movzx	 esi, BYTE PTR _c$[ebp]
  026e1	8b 7d 0c	 mov	 edi, DWORD PTR _r$[ebp]
  026e4	0f b6 34 37	 movzx	 esi, BYTE PTR [edi+esi]
  026e8	c1 fe 07	 sar	 esi, 7
  026eb	83 e6 01	 and	 esi, 1
  026ee	6b f6 1b	 imul	 esi, 27			; 0000001bH
  026f1	33 ce		 xor	 ecx, esi
  026f3	d1 e1		 shl	 ecx, 1
  026f5	0f b6 75 bf	 movzx	 esi, BYTE PTR _c$[ebp]
  026f9	8b 7d 0c	 mov	 edi, DWORD PTR _r$[ebp]
  026fc	0f b6 34 37	 movzx	 esi, BYTE PTR [edi+esi]
  02700	d1 e6		 shl	 esi, 1
  02702	0f b6 7d bf	 movzx	 edi, BYTE PTR _c$[ebp]
  02706	8b 5d 0c	 mov	 ebx, DWORD PTR _r$[ebp]
  02709	0f b6 3c 3b	 movzx	 edi, BYTE PTR [ebx+edi]
  0270d	c1 ff 07	 sar	 edi, 7
  02710	83 e7 01	 and	 edi, 1
  02713	6b ff 1b	 imul	 edi, 27			; 0000001bH
  02716	33 f7		 xor	 esi, edi
  02718	c1 fe 07	 sar	 esi, 7
  0271b	83 e6 01	 and	 esi, 1
  0271e	6b f6 1b	 imul	 esi, 27			; 0000001bH
  02721	33 ce		 xor	 ecx, esi
  02723	d1 e1		 shl	 ecx, 1
  02725	0f b6 75 bf	 movzx	 esi, BYTE PTR _c$[ebp]
  02729	8b 7d 0c	 mov	 edi, DWORD PTR _r$[ebp]
  0272c	0f b6 34 37	 movzx	 esi, BYTE PTR [edi+esi]
  02730	d1 e6		 shl	 esi, 1
  02732	0f b6 7d bf	 movzx	 edi, BYTE PTR _c$[ebp]
  02736	8b 5d 0c	 mov	 ebx, DWORD PTR _r$[ebp]
  02739	0f b6 3c 3b	 movzx	 edi, BYTE PTR [ebx+edi]
  0273d	c1 ff 07	 sar	 edi, 7
  02740	83 e7 01	 and	 edi, 1
  02743	6b ff 1b	 imul	 edi, 27			; 0000001bH
  02746	33 f7		 xor	 esi, edi
  02748	d1 e6		 shl	 esi, 1
  0274a	0f b6 7d bf	 movzx	 edi, BYTE PTR _c$[ebp]
  0274e	8b 5d 0c	 mov	 ebx, DWORD PTR _r$[ebp]
  02751	0f b6 3c 3b	 movzx	 edi, BYTE PTR [ebx+edi]
  02755	d1 e7		 shl	 edi, 1
  02757	0f b6 5d bf	 movzx	 ebx, BYTE PTR _c$[ebp]
  0275b	89 95 d4 fe ff
	ff		 mov	 DWORD PTR tv9284[ebp], edx
  02761	8b 55 0c	 mov	 edx, DWORD PTR _r$[ebp]
  02764	0f b6 14 1a	 movzx	 edx, BYTE PTR [edx+ebx]
  02768	c1 fa 07	 sar	 edx, 7
  0276b	83 e2 01	 and	 edx, 1
  0276e	6b d2 1b	 imul	 edx, 27			; 0000001bH
  02771	33 fa		 xor	 edi, edx
  02773	c1 ff 07	 sar	 edi, 7
  02776	83 e7 01	 and	 edi, 1
  02779	6b ff 1b	 imul	 edi, 27			; 0000001bH
  0277c	33 f7		 xor	 esi, edi
  0277e	c1 fe 07	 sar	 esi, 7
  02781	83 e6 01	 and	 esi, 1
  02784	6b f6 1b	 imul	 esi, 27			; 0000001bH
  02787	33 ce		 xor	 ecx, esi
  02789	c1 f9 07	 sar	 ecx, 7
  0278c	83 e1 01	 and	 ecx, 1
  0278f	6b c9 1b	 imul	 ecx, 27			; 0000001bH
  02792	33 c1		 xor	 eax, ecx
  02794	c1 f8 07	 sar	 eax, 7
  02797	83 e0 01	 and	 eax, 1
  0279a	6b c0 1b	 imul	 eax, 27			; 0000001bH
  0279d	8b 8d d4 fe ff
	ff		 mov	 ecx, DWORD PTR tv9284[ebp]
  027a3	33 c8		 xor	 ecx, eax
  027a5	d1 e1		 shl	 ecx, 1
  027a7	0f b6 55 bf	 movzx	 edx, BYTE PTR _c$[ebp]
  027ab	8b 45 0c	 mov	 eax, DWORD PTR _r$[ebp]
  027ae	0f b6 14 10	 movzx	 edx, BYTE PTR [eax+edx]
  027b2	d1 e2		 shl	 edx, 1
  027b4	0f b6 45 bf	 movzx	 eax, BYTE PTR _c$[ebp]
  027b8	8b 75 0c	 mov	 esi, DWORD PTR _r$[ebp]
  027bb	0f b6 04 06	 movzx	 eax, BYTE PTR [esi+eax]
  027bf	c1 f8 07	 sar	 eax, 7
  027c2	83 e0 01	 and	 eax, 1
  027c5	6b c0 1b	 imul	 eax, 27			; 0000001bH
  027c8	33 d0		 xor	 edx, eax
  027ca	d1 e2		 shl	 edx, 1
  027cc	0f b6 45 bf	 movzx	 eax, BYTE PTR _c$[ebp]
  027d0	8b 75 0c	 mov	 esi, DWORD PTR _r$[ebp]
  027d3	0f b6 04 06	 movzx	 eax, BYTE PTR [esi+eax]
  027d7	d1 e0		 shl	 eax, 1
  027d9	0f b6 75 bf	 movzx	 esi, BYTE PTR _c$[ebp]
  027dd	8b 7d 0c	 mov	 edi, DWORD PTR _r$[ebp]
  027e0	0f b6 34 37	 movzx	 esi, BYTE PTR [edi+esi]
  027e4	c1 fe 07	 sar	 esi, 7
  027e7	83 e6 01	 and	 esi, 1
  027ea	6b f6 1b	 imul	 esi, 27			; 0000001bH
  027ed	33 c6		 xor	 eax, esi
  027ef	c1 f8 07	 sar	 eax, 7
  027f2	83 e0 01	 and	 eax, 1
  027f5	6b c0 1b	 imul	 eax, 27			; 0000001bH
  027f8	33 d0		 xor	 edx, eax
  027fa	d1 e2		 shl	 edx, 1
  027fc	0f b6 45 bf	 movzx	 eax, BYTE PTR _c$[ebp]
  02800	8b 75 0c	 mov	 esi, DWORD PTR _r$[ebp]
  02803	0f b6 04 06	 movzx	 eax, BYTE PTR [esi+eax]
  02807	d1 e0		 shl	 eax, 1
  02809	0f b6 75 bf	 movzx	 esi, BYTE PTR _c$[ebp]
  0280d	8b 7d 0c	 mov	 edi, DWORD PTR _r$[ebp]
  02810	0f b6 34 37	 movzx	 esi, BYTE PTR [edi+esi]
  02814	c1 fe 07	 sar	 esi, 7
  02817	83 e6 01	 and	 esi, 1
  0281a	6b f6 1b	 imul	 esi, 27			; 0000001bH
  0281d	33 c6		 xor	 eax, esi
  0281f	d1 e0		 shl	 eax, 1
  02821	0f b6 75 bf	 movzx	 esi, BYTE PTR _c$[ebp]
  02825	8b 7d 0c	 mov	 edi, DWORD PTR _r$[ebp]
  02828	0f b6 34 37	 movzx	 esi, BYTE PTR [edi+esi]
  0282c	d1 e6		 shl	 esi, 1
  0282e	0f b6 7d bf	 movzx	 edi, BYTE PTR _c$[ebp]
  02832	8b 5d 0c	 mov	 ebx, DWORD PTR _r$[ebp]
  02835	0f b6 3c 3b	 movzx	 edi, BYTE PTR [ebx+edi]
  02839	c1 ff 07	 sar	 edi, 7
  0283c	83 e7 01	 and	 edi, 1
  0283f	6b ff 1b	 imul	 edi, 27			; 0000001bH
  02842	33 f7		 xor	 esi, edi
  02844	c1 fe 07	 sar	 esi, 7
  02847	83 e6 01	 and	 esi, 1
  0284a	6b f6 1b	 imul	 esi, 27			; 0000001bH
  0284d	33 c6		 xor	 eax, esi
  0284f	c1 f8 07	 sar	 eax, 7
  02852	83 e0 01	 and	 eax, 1
  02855	6b c0 1b	 imul	 eax, 27			; 0000001bH
  02858	33 d0		 xor	 edx, eax
  0285a	d1 e2		 shl	 edx, 1
  0285c	0f b6 45 bf	 movzx	 eax, BYTE PTR _c$[ebp]
  02860	8b 75 0c	 mov	 esi, DWORD PTR _r$[ebp]
  02863	0f b6 04 06	 movzx	 eax, BYTE PTR [esi+eax]
  02867	d1 e0		 shl	 eax, 1
  02869	0f b6 75 bf	 movzx	 esi, BYTE PTR _c$[ebp]
  0286d	8b 7d 0c	 mov	 edi, DWORD PTR _r$[ebp]
  02870	0f b6 34 37	 movzx	 esi, BYTE PTR [edi+esi]
  02874	c1 fe 07	 sar	 esi, 7
  02877	83 e6 01	 and	 esi, 1
  0287a	6b f6 1b	 imul	 esi, 27			; 0000001bH
  0287d	33 c6		 xor	 eax, esi
  0287f	d1 e0		 shl	 eax, 1
  02881	0f b6 75 bf	 movzx	 esi, BYTE PTR _c$[ebp]
  02885	8b 7d 0c	 mov	 edi, DWORD PTR _r$[ebp]
  02888	0f b6 34 37	 movzx	 esi, BYTE PTR [edi+esi]
  0288c	d1 e6		 shl	 esi, 1
  0288e	0f b6 7d bf	 movzx	 edi, BYTE PTR _c$[ebp]
  02892	8b 5d 0c	 mov	 ebx, DWORD PTR _r$[ebp]
  02895	0f b6 3c 3b	 movzx	 edi, BYTE PTR [ebx+edi]
  02899	c1 ff 07	 sar	 edi, 7
  0289c	83 e7 01	 and	 edi, 1
  0289f	6b ff 1b	 imul	 edi, 27			; 0000001bH
  028a2	33 f7		 xor	 esi, edi
  028a4	c1 fe 07	 sar	 esi, 7
  028a7	83 e6 01	 and	 esi, 1
  028aa	6b f6 1b	 imul	 esi, 27			; 0000001bH
  028ad	33 c6		 xor	 eax, esi
  028af	d1 e0		 shl	 eax, 1
  028b1	0f b6 75 bf	 movzx	 esi, BYTE PTR _c$[ebp]
  028b5	8b 7d 0c	 mov	 edi, DWORD PTR _r$[ebp]
  028b8	0f b6 34 37	 movzx	 esi, BYTE PTR [edi+esi]
  028bc	d1 e6		 shl	 esi, 1
  028be	0f b6 7d bf	 movzx	 edi, BYTE PTR _c$[ebp]
  028c2	8b 5d 0c	 mov	 ebx, DWORD PTR _r$[ebp]
  028c5	0f b6 3c 3b	 movzx	 edi, BYTE PTR [ebx+edi]
  028c9	c1 ff 07	 sar	 edi, 7
  028cc	83 e7 01	 and	 edi, 1
  028cf	6b ff 1b	 imul	 edi, 27			; 0000001bH
  028d2	33 f7		 xor	 esi, edi
  028d4	d1 e6		 shl	 esi, 1
  028d6	0f b6 7d bf	 movzx	 edi, BYTE PTR _c$[ebp]
  028da	8b 5d 0c	 mov	 ebx, DWORD PTR _r$[ebp]
  028dd	0f b6 3c 3b	 movzx	 edi, BYTE PTR [ebx+edi]
  028e1	d1 e7		 shl	 edi, 1
  028e3	0f b6 5d bf	 movzx	 ebx, BYTE PTR _c$[ebp]
  028e7	89 8d d0 fe ff
	ff		 mov	 DWORD PTR tv9286[ebp], ecx
